Archive member included to satisfy reference by file (symbol)

c:/intelfpga_lite/18.1/nios2eds/bin/gnu/h-x86_64-mingw32/bin/../lib/gcc/nios2-elf/5.3.0/../../../../../H-x86_64-mingw32/nios2-elf/lib/pg\libstdc++.a(new_opv.o)
                              obj/default/Image.o (operator new[](unsigned int))
c:/intelfpga_lite/18.1/nios2eds/bin/gnu/h-x86_64-mingw32/bin/../lib/gcc/nios2-elf/5.3.0/../../../../../H-x86_64-mingw32/nios2-elf/lib/pg\libstdc++.a(new_op.o)
                              obj/default/Image.o (operator new(unsigned int))
c:/intelfpga_lite/18.1/nios2eds/bin/gnu/h-x86_64-mingw32/bin/../lib/gcc/nios2-elf/5.3.0/../../../../../H-x86_64-mingw32/nios2-elf/lib/pg\libstdc++.a(del_opv.o)
                              obj/default/Image.o (operator delete[](void*))
c:/intelfpga_lite/18.1/nios2eds/bin/gnu/h-x86_64-mingw32/bin/../lib/gcc/nios2-elf/5.3.0/../../../../../H-x86_64-mingw32/nios2-elf/lib/pg\libstdc++.a(new_handler.o)
                              c:/intelfpga_lite/18.1/nios2eds/bin/gnu/h-x86_64-mingw32/bin/../lib/gcc/nios2-elf/5.3.0/../../../../../H-x86_64-mingw32/nios2-elf/lib/pg\libstdc++.a(new_op.o) (std::get_new_handler())
c:/intelfpga_lite/18.1/nios2eds/bin/gnu/h-x86_64-mingw32/bin/../lib/gcc/nios2-elf/5.3.0/../../../../../H-x86_64-mingw32/nios2-elf/lib/pg\libstdc++.a(eh_personality.o)
                              obj/default/Image.o (__gxx_personality_sj0)
c:/intelfpga_lite/18.1/nios2eds/bin/gnu/h-x86_64-mingw32/bin/../lib/gcc/nios2-elf/5.3.0/../../../../../H-x86_64-mingw32/nios2-elf/lib/pg\libstdc++.a(bad_alloc.o)
                              c:/intelfpga_lite/18.1/nios2eds/bin/gnu/h-x86_64-mingw32/bin/../lib/gcc/nios2-elf/5.3.0/../../../../../H-x86_64-mingw32/nios2-elf/lib/pg\libstdc++.a(new_op.o) (vtable for std::bad_alloc)
c:/intelfpga_lite/18.1/nios2eds/bin/gnu/h-x86_64-mingw32/bin/../lib/gcc/nios2-elf/5.3.0/../../../../../H-x86_64-mingw32/nios2-elf/lib/pg\libstdc++.a(del_op.o)
                              obj/default/Image.o (operator delete(void*))
c:/intelfpga_lite/18.1/nios2eds/bin/gnu/h-x86_64-mingw32/bin/../lib/gcc/nios2-elf/5.3.0/../../../../../H-x86_64-mingw32/nios2-elf/lib/pg\libstdc++.a(eh_throw.o)
                              c:/intelfpga_lite/18.1/nios2eds/bin/gnu/h-x86_64-mingw32/bin/../lib/gcc/nios2-elf/5.3.0/../../../../../H-x86_64-mingw32/nios2-elf/lib/pg\libstdc++.a(new_op.o) (__cxa_throw)
c:/intelfpga_lite/18.1/nios2eds/bin/gnu/h-x86_64-mingw32/bin/../lib/gcc/nios2-elf/5.3.0/../../../../../H-x86_64-mingw32/nios2-elf/lib/pg\libstdc++.a(eh_catch.o)
                              c:/intelfpga_lite/18.1/nios2eds/bin/gnu/h-x86_64-mingw32/bin/../lib/gcc/nios2-elf/5.3.0/../../../../../H-x86_64-mingw32/nios2-elf/lib/pg\libstdc++.a(eh_personality.o) (__cxa_begin_catch)
c:/intelfpga_lite/18.1/nios2eds/bin/gnu/h-x86_64-mingw32/bin/../lib/gcc/nios2-elf/5.3.0/../../../../../H-x86_64-mingw32/nios2-elf/lib/pg\libstdc++.a(class_type_info.o)
                              obj/default/NN.o (vtable for __cxxabiv1::__class_type_info)
c:/intelfpga_lite/18.1/nios2eds/bin/gnu/h-x86_64-mingw32/bin/../lib/gcc/nios2-elf/5.3.0/../../../../../H-x86_64-mingw32/nios2-elf/lib/pg\libstdc++.a(eh_terminate.o)
                              c:/intelfpga_lite/18.1/nios2eds/bin/gnu/h-x86_64-mingw32/bin/../lib/gcc/nios2-elf/5.3.0/../../../../../H-x86_64-mingw32/nios2-elf/lib/pg\libstdc++.a(eh_personality.o) (__cxxabiv1::__terminate(void (*)()))
c:/intelfpga_lite/18.1/nios2eds/bin/gnu/h-x86_64-mingw32/bin/../lib/gcc/nios2-elf/5.3.0/../../../../../H-x86_64-mingw32/nios2-elf/lib/pg\libstdc++.a(eh_unex_handler.o)
                              c:/intelfpga_lite/18.1/nios2eds/bin/gnu/h-x86_64-mingw32/bin/../lib/gcc/nios2-elf/5.3.0/../../../../../H-x86_64-mingw32/nios2-elf/lib/pg\libstdc++.a(eh_terminate.o) (__cxxabiv1::__unexpected_handler)
c:/intelfpga_lite/18.1/nios2eds/bin/gnu/h-x86_64-mingw32/bin/../lib/gcc/nios2-elf/5.3.0/../../../../../H-x86_64-mingw32/nios2-elf/lib/pg\libstdc++.a(eh_alloc.o)
                              c:/intelfpga_lite/18.1/nios2eds/bin/gnu/h-x86_64-mingw32/bin/../lib/gcc/nios2-elf/5.3.0/../../../../../H-x86_64-mingw32/nios2-elf/lib/pg\libstdc++.a(new_op.o) (__cxa_allocate_exception)
c:/intelfpga_lite/18.1/nios2eds/bin/gnu/h-x86_64-mingw32/bin/../lib/gcc/nios2-elf/5.3.0/../../../../../H-x86_64-mingw32/nios2-elf/lib/pg\libstdc++.a(eh_call.o)
                              c:/intelfpga_lite/18.1/nios2eds/bin/gnu/h-x86_64-mingw32/bin/../lib/gcc/nios2-elf/5.3.0/../../../../../H-x86_64-mingw32/nios2-elf/lib/pg\libstdc++.a(eh_personality.o) (__cxa_call_terminate)
c:/intelfpga_lite/18.1/nios2eds/bin/gnu/h-x86_64-mingw32/bin/../lib/gcc/nios2-elf/5.3.0/../../../../../H-x86_64-mingw32/nios2-elf/lib/pg\libstdc++.a(eh_globals.o)
                              c:/intelfpga_lite/18.1/nios2eds/bin/gnu/h-x86_64-mingw32/bin/../lib/gcc/nios2-elf/5.3.0/../../../../../H-x86_64-mingw32/nios2-elf/lib/pg\libstdc++.a(eh_personality.o) (__cxa_get_globals_fast)
c:/intelfpga_lite/18.1/nios2eds/bin/gnu/h-x86_64-mingw32/bin/../lib/gcc/nios2-elf/5.3.0/../../../../../H-x86_64-mingw32/nios2-elf/lib/pg\libstdc++.a(si_class_type_info.o)
                              c:/intelfpga_lite/18.1/nios2eds/bin/gnu/h-x86_64-mingw32/bin/../lib/gcc/nios2-elf/5.3.0/../../../../../H-x86_64-mingw32/nios2-elf/lib/pg\libstdc++.a(bad_alloc.o) (vtable for __cxxabiv1::__si_class_type_info)
c:/intelfpga_lite/18.1/nios2eds/bin/gnu/h-x86_64-mingw32/bin/../lib/gcc/nios2-elf/5.3.0/../../../../../H-x86_64-mingw32/nios2-elf/lib/pg\libstdc++.a(eh_exception.o)
                              c:/intelfpga_lite/18.1/nios2eds/bin/gnu/h-x86_64-mingw32/bin/../lib/gcc/nios2-elf/5.3.0/../../../../../H-x86_64-mingw32/nios2-elf/lib/pg\libstdc++.a(bad_alloc.o) (std::exception::~exception())
c:/intelfpga_lite/18.1/nios2eds/bin/gnu/h-x86_64-mingw32/bin/../lib/gcc/nios2-elf/5.3.0/../../../../../H-x86_64-mingw32/nios2-elf/lib/pg\libstdc++.a(eh_term_handler.o)
                              c:/intelfpga_lite/18.1/nios2eds/bin/gnu/h-x86_64-mingw32/bin/../lib/gcc/nios2-elf/5.3.0/../../../../../H-x86_64-mingw32/nios2-elf/lib/pg\libstdc++.a(eh_terminate.o) (__cxxabiv1::__terminate_handler)
c:/intelfpga_lite/18.1/nios2eds/bin/gnu/h-x86_64-mingw32/bin/../lib/gcc/nios2-elf/5.3.0/../../../../../H-x86_64-mingw32/nios2-elf/lib/pg\libstdc++.a(tinfo.o)
                              c:/intelfpga_lite/18.1/nios2eds/bin/gnu/h-x86_64-mingw32/bin/../lib/gcc/nios2-elf/5.3.0/../../../../../H-x86_64-mingw32/nios2-elf/lib/pg\libstdc++.a(class_type_info.o) (std::type_info::~type_info())
c:/intelfpga_lite/18.1/nios2eds/bin/gnu/h-x86_64-mingw32/bin/../lib/gcc/nios2-elf/5.3.0/../../../../../H-x86_64-mingw32/nios2-elf/lib/pg\libstdc++.a(pure.o)
                              c:/intelfpga_lite/18.1/nios2eds/bin/gnu/h-x86_64-mingw32/bin/../lib/gcc/nios2-elf/5.3.0/../../../../../H-x86_64-mingw32/nios2-elf/lib/pg\libstdc++.a(eh_exception.o) (__cxa_pure_virtual)
c:/intelfpga_lite/18.1/nios2eds/bin/gnu/h-x86_64-mingw32/bin/../lib/gcc/nios2-elf/5.3.0/pg\libgcc.a(_fixunssfsi.o)
                              obj/default/Image.o (__fixunssfsi)
c:/intelfpga_lite/18.1/nios2eds/bin/gnu/h-x86_64-mingw32/bin/../lib/gcc/nios2-elf/5.3.0/pg\libgcc.a(lib2-divmod.o)
                              obj/default/NNLayer.o (__umodsi3)
c:/intelfpga_lite/18.1/nios2eds/bin/gnu/h-x86_64-mingw32/bin/../lib/gcc/nios2-elf/5.3.0/pg\libgcc.a(addsf3.o)
                              obj/default/Image.o (__addsf3)
c:/intelfpga_lite/18.1/nios2eds/bin/gnu/h-x86_64-mingw32/bin/../lib/gcc/nios2-elf/5.3.0/pg\libgcc.a(divsf3.o)
                              obj/default/Image.o (__divsf3)
c:/intelfpga_lite/18.1/nios2eds/bin/gnu/h-x86_64-mingw32/bin/../lib/gcc/nios2-elf/5.3.0/pg\libgcc.a(eqsf2.o)
                              obj/default/Image.o (__eqsf2)
c:/intelfpga_lite/18.1/nios2eds/bin/gnu/h-x86_64-mingw32/bin/../lib/gcc/nios2-elf/5.3.0/pg\libgcc.a(gesf2.o)
                              c:/intelfpga_lite/18.1/nios2eds/bin/gnu/h-x86_64-mingw32/bin/../lib/gcc/nios2-elf/5.3.0/pg\libgcc.a(_fixunssfsi.o) (__gesf2)
c:/intelfpga_lite/18.1/nios2eds/bin/gnu/h-x86_64-mingw32/bin/../lib/gcc/nios2-elf/5.3.0/pg\libgcc.a(mulsf3.o)
                              obj/default/Image.o (__mulsf3)
c:/intelfpga_lite/18.1/nios2eds/bin/gnu/h-x86_64-mingw32/bin/../lib/gcc/nios2-elf/5.3.0/pg\libgcc.a(subsf3.o)
                              obj/default/Image.o (__subsf3)
c:/intelfpga_lite/18.1/nios2eds/bin/gnu/h-x86_64-mingw32/bin/../lib/gcc/nios2-elf/5.3.0/pg\libgcc.a(fixsfsi.o)
                              obj/default/Image.o (__fixsfsi)
c:/intelfpga_lite/18.1/nios2eds/bin/gnu/h-x86_64-mingw32/bin/../lib/gcc/nios2-elf/5.3.0/pg\libgcc.a(floatsisf.o)
                              obj/default/Image.o (__floatsisf)
c:/intelfpga_lite/18.1/nios2eds/bin/gnu/h-x86_64-mingw32/bin/../lib/gcc/nios2-elf/5.3.0/pg\libgcc.a(floatunsisf.o)
                              obj/default/NNLayer.o (__floatunsisf)
c:/intelfpga_lite/18.1/nios2eds/bin/gnu/h-x86_64-mingw32/bin/../lib/gcc/nios2-elf/5.3.0/pg\libgcc.a(divdf3.o)
                              obj/default/Image.o (__divdf3)
c:/intelfpga_lite/18.1/nios2eds/bin/gnu/h-x86_64-mingw32/bin/../lib/gcc/nios2-elf/5.3.0/pg\libgcc.a(floatsidf.o)
                              obj/default/Image.o (__floatsidf)
c:/intelfpga_lite/18.1/nios2eds/bin/gnu/h-x86_64-mingw32/bin/../lib/gcc/nios2-elf/5.3.0/pg\libgcc.a(extendsfdf2.o)
                              obj/default/NN.o (__extendsfdf2)
c:/intelfpga_lite/18.1/nios2eds/bin/gnu/h-x86_64-mingw32/bin/../lib/gcc/nios2-elf/5.3.0/pg\libgcc.a(truncdfsf2.o)
                              obj/default/Image.o (__truncdfsf2)
c:/intelfpga_lite/18.1/nios2eds/bin/gnu/h-x86_64-mingw32/bin/../lib/gcc/nios2-elf/5.3.0/pg\libgcc.a(unwind-sjlj.o)
                              obj/default/Image.o (_Unwind_SjLj_Register)
c:/intelfpga_lite/18.1/nios2eds/bin/gnu/h-x86_64-mingw32/bin/../lib/gcc/nios2-elf/5.3.0/pg\libgcc.a(_clzsi2.o)
                              c:/intelfpga_lite/18.1/nios2eds/bin/gnu/h-x86_64-mingw32/bin/../lib/gcc/nios2-elf/5.3.0/pg\libgcc.a(addsf3.o) (__clzsi2)
c:/intelfpga_lite/18.1/nios2eds/bin/gnu/h-x86_64-mingw32/bin/../lib/gcc/nios2-elf/5.3.0/pg\libgcc.a(_clz.o)
                              c:/intelfpga_lite/18.1/nios2eds/bin/gnu/h-x86_64-mingw32/bin/../lib/gcc/nios2-elf/5.3.0/pg\libgcc.a(_clzsi2.o) (__clz_tab)
c:/intelfpga_lite/18.1/nios2eds/bin/gnu/h-x86_64-mingw32/bin/../lib/gcc/nios2-elf/5.3.0/../../../../../H-x86_64-mingw32/nios2-elf/lib/pg\libc.a(lib_a-abort.o)
                              c:/intelfpga_lite/18.1/nios2eds/bin/gnu/h-x86_64-mingw32/bin/../lib/gcc/nios2-elf/5.3.0/../../../../../H-x86_64-mingw32/nios2-elf/lib/pg\libstdc++.a(eh_personality.o) (abort)
c:/intelfpga_lite/18.1/nios2eds/bin/gnu/h-x86_64-mingw32/bin/../lib/gcc/nios2-elf/5.3.0/../../../../../H-x86_64-mingw32/nios2-elf/lib/pg\libc.a(lib_a-malloc.o)
                              c:/intelfpga_lite/18.1/nios2eds/bin/gnu/h-x86_64-mingw32/bin/../lib/gcc/nios2-elf/5.3.0/../../../../../H-x86_64-mingw32/nios2-elf/lib/pg\libstdc++.a(new_op.o) (malloc)
c:/intelfpga_lite/18.1/nios2eds/bin/gnu/h-x86_64-mingw32/bin/../lib/gcc/nios2-elf/5.3.0/../../../../../H-x86_64-mingw32/nios2-elf/lib/pg\libc.a(lib_a-mallocr.o)
                              c:/intelfpga_lite/18.1/nios2eds/bin/gnu/h-x86_64-mingw32/bin/../lib/gcc/nios2-elf/5.3.0/../../../../../H-x86_64-mingw32/nios2-elf/lib/pg\libc.a(lib_a-malloc.o) (_malloc_r)
c:/intelfpga_lite/18.1/nios2eds/bin/gnu/h-x86_64-mingw32/bin/../lib/gcc/nios2-elf/5.3.0/../../../../../H-x86_64-mingw32/nios2-elf/lib/pg\libc.a(lib_a-memset.o)
                              c:/intelfpga_lite/18.1/nios2eds/bin/gnu/h-x86_64-mingw32/bin/../lib/gcc/nios2-elf/5.3.0/../../../../../H-x86_64-mingw32/nios2-elf/lib/pg\libstdc++.a(eh_alloc.o) (memset)
c:/intelfpga_lite/18.1/nios2eds/bin/gnu/h-x86_64-mingw32/bin/../lib/gcc/nios2-elf/5.3.0/../../../../../H-x86_64-mingw32/nios2-elf/lib/pg\libc.a(lib_a-printf.o)
                              obj/default/Image.o (printf)
c:/intelfpga_lite/18.1/nios2eds/bin/gnu/h-x86_64-mingw32/bin/../lib/gcc/nios2-elf/5.3.0/../../../../../H-x86_64-mingw32/nios2-elf/lib/pg\libc.a(lib_a-putchar.o)
                              obj/default/Image.o (putchar)
c:/intelfpga_lite/18.1/nios2eds/bin/gnu/h-x86_64-mingw32/bin/../lib/gcc/nios2-elf/5.3.0/../../../../../H-x86_64-mingw32/nios2-elf/lib/pg\libc.a(lib_a-puts.o)
                              obj/default/Image.o (puts)
c:/intelfpga_lite/18.1/nios2eds/bin/gnu/h-x86_64-mingw32/bin/../lib/gcc/nios2-elf/5.3.0/../../../../../H-x86_64-mingw32/nios2-elf/lib/pg\libc.a(lib_a-rand.o)
                              obj/default/Image.o (rand)
c:/intelfpga_lite/18.1/nios2eds/bin/gnu/h-x86_64-mingw32/bin/../lib/gcc/nios2-elf/5.3.0/../../../../../H-x86_64-mingw32/nios2-elf/lib/pg\libc.a(lib_a-sbrkr.o)
                              c:/intelfpga_lite/18.1/nios2eds/bin/gnu/h-x86_64-mingw32/bin/../lib/gcc/nios2-elf/5.3.0/../../../../../H-x86_64-mingw32/nios2-elf/lib/pg\libc.a(lib_a-mallocr.o) (_sbrk_r)
c:/intelfpga_lite/18.1/nios2eds/bin/gnu/h-x86_64-mingw32/bin/../lib/gcc/nios2-elf/5.3.0/../../../../../H-x86_64-mingw32/nios2-elf/lib/pg\libc.a(lib_a-signal.o)
                              c:/intelfpga_lite/18.1/nios2eds/bin/gnu/h-x86_64-mingw32/bin/../lib/gcc/nios2-elf/5.3.0/../../../../../H-x86_64-mingw32/nios2-elf/lib/pg\libc.a(lib_a-abort.o) (raise)
c:/intelfpga_lite/18.1/nios2eds/bin/gnu/h-x86_64-mingw32/bin/../lib/gcc/nios2-elf/5.3.0/../../../../../H-x86_64-mingw32/nios2-elf/lib/pg\libc.a(lib_a-signalr.o)
                              c:/intelfpga_lite/18.1/nios2eds/bin/gnu/h-x86_64-mingw32/bin/../lib/gcc/nios2-elf/5.3.0/../../../../../H-x86_64-mingw32/nios2-elf/lib/pg\libc.a(lib_a-signal.o) (_kill_r)
c:/intelfpga_lite/18.1/nios2eds/bin/gnu/h-x86_64-mingw32/bin/../lib/gcc/nios2-elf/5.3.0/../../../../../H-x86_64-mingw32/nios2-elf/lib/pg\libc.a(lib_a-strcmp.o)
                              c:/intelfpga_lite/18.1/nios2eds/bin/gnu/h-x86_64-mingw32/bin/../lib/gcc/nios2-elf/5.3.0/../../../../../H-x86_64-mingw32/nios2-elf/lib/pg\libstdc++.a(class_type_info.o) (strcmp)
c:/intelfpga_lite/18.1/nios2eds/bin/gnu/h-x86_64-mingw32/bin/../lib/gcc/nios2-elf/5.3.0/../../../../../H-x86_64-mingw32/nios2-elf/lib/pg\libc.a(lib_a-strlen.o)
                              c:/intelfpga_lite/18.1/nios2eds/bin/gnu/h-x86_64-mingw32/bin/../lib/gcc/nios2-elf/5.3.0/../../../../../H-x86_64-mingw32/nios2-elf/lib/pg\libc.a(lib_a-puts.o) (strlen)
c:/intelfpga_lite/18.1/nios2eds/bin/gnu/h-x86_64-mingw32/bin/../lib/gcc/nios2-elf/5.3.0/../../../../../H-x86_64-mingw32/nios2-elf/lib/pg\libc.a(lib_a-vfprintf.o)
                              c:/intelfpga_lite/18.1/nios2eds/bin/gnu/h-x86_64-mingw32/bin/../lib/gcc/nios2-elf/5.3.0/../../../../../H-x86_64-mingw32/nios2-elf/lib/pg\libc.a(lib_a-printf.o) (___vfprintf_internal_r)
c:/intelfpga_lite/18.1/nios2eds/bin/gnu/h-x86_64-mingw32/bin/../lib/gcc/nios2-elf/5.3.0/../../../../../H-x86_64-mingw32/nios2-elf/lib/pg\libc.a(lib_a-wsetup.o)
                              c:/intelfpga_lite/18.1/nios2eds/bin/gnu/h-x86_64-mingw32/bin/../lib/gcc/nios2-elf/5.3.0/../../../../../H-x86_64-mingw32/nios2-elf/lib/pg\libc.a(lib_a-vfprintf.o) (__swsetup_r)
c:/intelfpga_lite/18.1/nios2eds/bin/gnu/h-x86_64-mingw32/bin/../lib/gcc/nios2-elf/5.3.0/../../../../../H-x86_64-mingw32/nios2-elf/lib/pg\libc.a(lib_a-dtoa.o)
                              c:/intelfpga_lite/18.1/nios2eds/bin/gnu/h-x86_64-mingw32/bin/../lib/gcc/nios2-elf/5.3.0/../../../../../H-x86_64-mingw32/nios2-elf/lib/pg\libc.a(lib_a-vfprintf.o) (_dtoa_r)
c:/intelfpga_lite/18.1/nios2eds/bin/gnu/h-x86_64-mingw32/bin/../lib/gcc/nios2-elf/5.3.0/../../../../../H-x86_64-mingw32/nios2-elf/lib/pg\libc.a(lib_a-fflush.o)
                              c:/intelfpga_lite/18.1/nios2eds/bin/gnu/h-x86_64-mingw32/bin/../lib/gcc/nios2-elf/5.3.0/../../../../../H-x86_64-mingw32/nios2-elf/lib/pg\libc.a(lib_a-vfprintf.o) (_fflush_r)
c:/intelfpga_lite/18.1/nios2eds/bin/gnu/h-x86_64-mingw32/bin/../lib/gcc/nios2-elf/5.3.0/../../../../../H-x86_64-mingw32/nios2-elf/lib/pg\libc.a(lib_a-findfp.o)
                              c:/intelfpga_lite/18.1/nios2eds/bin/gnu/h-x86_64-mingw32/bin/../lib/gcc/nios2-elf/5.3.0/../../../../../H-x86_64-mingw32/nios2-elf/lib/pg\libc.a(lib_a-puts.o) (__sinit)
c:/intelfpga_lite/18.1/nios2eds/bin/gnu/h-x86_64-mingw32/bin/../lib/gcc/nios2-elf/5.3.0/../../../../../H-x86_64-mingw32/nios2-elf/lib/pg\libc.a(lib_a-freer.o)
                              c:/intelfpga_lite/18.1/nios2eds/bin/gnu/h-x86_64-mingw32/bin/../lib/gcc/nios2-elf/5.3.0/../../../../../H-x86_64-mingw32/nios2-elf/lib/pg\libc.a(lib_a-malloc.o) (_free_r)
c:/intelfpga_lite/18.1/nios2eds/bin/gnu/h-x86_64-mingw32/bin/../lib/gcc/nios2-elf/5.3.0/../../../../../H-x86_64-mingw32/nios2-elf/lib/pg\libc.a(lib_a-fvwrite.o)
                              c:/intelfpga_lite/18.1/nios2eds/bin/gnu/h-x86_64-mingw32/bin/../lib/gcc/nios2-elf/5.3.0/../../../../../H-x86_64-mingw32/nios2-elf/lib/pg\libc.a(lib_a-puts.o) (__sfvwrite_r)
c:/intelfpga_lite/18.1/nios2eds/bin/gnu/h-x86_64-mingw32/bin/../lib/gcc/nios2-elf/5.3.0/../../../../../H-x86_64-mingw32/nios2-elf/lib/pg\libc.a(lib_a-fwalk.o)
                              c:/intelfpga_lite/18.1/nios2eds/bin/gnu/h-x86_64-mingw32/bin/../lib/gcc/nios2-elf/5.3.0/../../../../../H-x86_64-mingw32/nios2-elf/lib/pg\libc.a(lib_a-findfp.o) (_fwalk)
c:/intelfpga_lite/18.1/nios2eds/bin/gnu/h-x86_64-mingw32/bin/../lib/gcc/nios2-elf/5.3.0/../../../../../H-x86_64-mingw32/nios2-elf/lib/pg\libc.a(lib_a-impure.o)
                              c:/intelfpga_lite/18.1/nios2eds/bin/gnu/h-x86_64-mingw32/bin/../lib/gcc/nios2-elf/5.3.0/../../../../../H-x86_64-mingw32/nios2-elf/lib/pg\libc.a(lib_a-fflush.o) (_global_impure_ptr)
c:/intelfpga_lite/18.1/nios2eds/bin/gnu/h-x86_64-mingw32/bin/../lib/gcc/nios2-elf/5.3.0/../../../../../H-x86_64-mingw32/nios2-elf/lib/pg\libc.a(lib_a-int_errno.o)
                              c:/intelfpga_lite/18.1/nios2eds/bin/gnu/h-x86_64-mingw32/bin/../lib/gcc/nios2-elf/5.3.0/../../../../../H-x86_64-mingw32/nios2-elf/lib/pg\libc.a(lib_a-sbrkr.o) (errno)
c:/intelfpga_lite/18.1/nios2eds/bin/gnu/h-x86_64-mingw32/bin/../lib/gcc/nios2-elf/5.3.0/../../../../../H-x86_64-mingw32/nios2-elf/lib/pg\libc.a(lib_a-locale.o)
                              c:/intelfpga_lite/18.1/nios2eds/bin/gnu/h-x86_64-mingw32/bin/../lib/gcc/nios2-elf/5.3.0/../../../../../H-x86_64-mingw32/nios2-elf/lib/pg\libc.a(lib_a-vfprintf.o) (_localeconv_r)
c:/intelfpga_lite/18.1/nios2eds/bin/gnu/h-x86_64-mingw32/bin/../lib/gcc/nios2-elf/5.3.0/../../../../../H-x86_64-mingw32/nios2-elf/lib/pg\libc.a(lib_a-makebuf.o)
                              c:/intelfpga_lite/18.1/nios2eds/bin/gnu/h-x86_64-mingw32/bin/../lib/gcc/nios2-elf/5.3.0/../../../../../H-x86_64-mingw32/nios2-elf/lib/pg\libc.a(lib_a-wsetup.o) (__smakebuf_r)
c:/intelfpga_lite/18.1/nios2eds/bin/gnu/h-x86_64-mingw32/bin/../lib/gcc/nios2-elf/5.3.0/../../../../../H-x86_64-mingw32/nios2-elf/lib/pg\libc.a(lib_a-memchr.o)
                              c:/intelfpga_lite/18.1/nios2eds/bin/gnu/h-x86_64-mingw32/bin/../lib/gcc/nios2-elf/5.3.0/../../../../../H-x86_64-mingw32/nios2-elf/lib/pg\libc.a(lib_a-vfprintf.o) (memchr)
c:/intelfpga_lite/18.1/nios2eds/bin/gnu/h-x86_64-mingw32/bin/../lib/gcc/nios2-elf/5.3.0/../../../../../H-x86_64-mingw32/nios2-elf/lib/pg\libc.a(lib_a-memcpy.o)
                              c:/intelfpga_lite/18.1/nios2eds/bin/gnu/h-x86_64-mingw32/bin/../lib/gcc/nios2-elf/5.3.0/../../../../../H-x86_64-mingw32/nios2-elf/lib/pg\libc.a(lib_a-dtoa.o) (memcpy)
c:/intelfpga_lite/18.1/nios2eds/bin/gnu/h-x86_64-mingw32/bin/../lib/gcc/nios2-elf/5.3.0/../../../../../H-x86_64-mingw32/nios2-elf/lib/pg\libc.a(lib_a-memmove.o)
                              c:/intelfpga_lite/18.1/nios2eds/bin/gnu/h-x86_64-mingw32/bin/../lib/gcc/nios2-elf/5.3.0/../../../../../H-x86_64-mingw32/nios2-elf/lib/pg\libc.a(lib_a-fvwrite.o) (memmove)
c:/intelfpga_lite/18.1/nios2eds/bin/gnu/h-x86_64-mingw32/bin/../lib/gcc/nios2-elf/5.3.0/../../../../../H-x86_64-mingw32/nios2-elf/lib/pg\libc.a(lib_a-mprec.o)
                              c:/intelfpga_lite/18.1/nios2eds/bin/gnu/h-x86_64-mingw32/bin/../lib/gcc/nios2-elf/5.3.0/../../../../../H-x86_64-mingw32/nios2-elf/lib/pg\libc.a(lib_a-dtoa.o) (_Balloc)
c:/intelfpga_lite/18.1/nios2eds/bin/gnu/h-x86_64-mingw32/bin/../lib/gcc/nios2-elf/5.3.0/../../../../../H-x86_64-mingw32/nios2-elf/lib/pg\libc.a(lib_a-putc.o)
                              c:/intelfpga_lite/18.1/nios2eds/bin/gnu/h-x86_64-mingw32/bin/../lib/gcc/nios2-elf/5.3.0/../../../../../H-x86_64-mingw32/nios2-elf/lib/pg\libc.a(lib_a-putchar.o) (_putc_r)
c:/intelfpga_lite/18.1/nios2eds/bin/gnu/h-x86_64-mingw32/bin/../lib/gcc/nios2-elf/5.3.0/../../../../../H-x86_64-mingw32/nios2-elf/lib/pg\libc.a(lib_a-reallocr.o)
                              c:/intelfpga_lite/18.1/nios2eds/bin/gnu/h-x86_64-mingw32/bin/../lib/gcc/nios2-elf/5.3.0/../../../../../H-x86_64-mingw32/nios2-elf/lib/pg\libc.a(lib_a-fvwrite.o) (_realloc_r)
c:/intelfpga_lite/18.1/nios2eds/bin/gnu/h-x86_64-mingw32/bin/../lib/gcc/nios2-elf/5.3.0/../../../../../H-x86_64-mingw32/nios2-elf/lib/pg\libc.a(lib_a-s_fpclassify.o)
                              c:/intelfpga_lite/18.1/nios2eds/bin/gnu/h-x86_64-mingw32/bin/../lib/gcc/nios2-elf/5.3.0/../../../../../H-x86_64-mingw32/nios2-elf/lib/pg\libc.a(lib_a-vfprintf.o) (__fpclassifyd)
c:/intelfpga_lite/18.1/nios2eds/bin/gnu/h-x86_64-mingw32/bin/../lib/gcc/nios2-elf/5.3.0/../../../../../H-x86_64-mingw32/nios2-elf/lib/pg\libc.a(lib_a-stdio.o)
                              c:/intelfpga_lite/18.1/nios2eds/bin/gnu/h-x86_64-mingw32/bin/../lib/gcc/nios2-elf/5.3.0/../../../../../H-x86_64-mingw32/nios2-elf/lib/pg\libc.a(lib_a-findfp.o) (__sread)
c:/intelfpga_lite/18.1/nios2eds/bin/gnu/h-x86_64-mingw32/bin/../lib/gcc/nios2-elf/5.3.0/../../../../../H-x86_64-mingw32/nios2-elf/lib/pg\libc.a(lib_a-vfiprintf.o)
                              c:/intelfpga_lite/18.1/nios2eds/bin/gnu/h-x86_64-mingw32/bin/../lib/gcc/nios2-elf/5.3.0/../../../../../H-x86_64-mingw32/nios2-elf/lib/pg\libc.a(lib_a-vfprintf.o) (__sprint_r)
c:/intelfpga_lite/18.1/nios2eds/bin/gnu/h-x86_64-mingw32/bin/../lib/gcc/nios2-elf/5.3.0/../../../../../H-x86_64-mingw32/nios2-elf/lib/pg\libc.a(lib_a-wbuf.o)
                              c:/intelfpga_lite/18.1/nios2eds/bin/gnu/h-x86_64-mingw32/bin/../lib/gcc/nios2-elf/5.3.0/../../../../../H-x86_64-mingw32/nios2-elf/lib/pg\libc.a(lib_a-putc.o) (__swbuf_r)
c:/intelfpga_lite/18.1/nios2eds/bin/gnu/h-x86_64-mingw32/bin/../lib/gcc/nios2-elf/5.3.0/../../../../../H-x86_64-mingw32/nios2-elf/lib/pg\libc.a(lib_a-writer.o)
                              c:/intelfpga_lite/18.1/nios2eds/bin/gnu/h-x86_64-mingw32/bin/../lib/gcc/nios2-elf/5.3.0/../../../../../H-x86_64-mingw32/nios2-elf/lib/pg\libc.a(lib_a-stdio.o) (_write_r)
c:/intelfpga_lite/18.1/nios2eds/bin/gnu/h-x86_64-mingw32/bin/../lib/gcc/nios2-elf/5.3.0/../../../../../H-x86_64-mingw32/nios2-elf/lib/pg\libc.a(closer.o)
                              c:/intelfpga_lite/18.1/nios2eds/bin/gnu/h-x86_64-mingw32/bin/../lib/gcc/nios2-elf/5.3.0/../../../../../H-x86_64-mingw32/nios2-elf/lib/pg\libc.a(lib_a-stdio.o) (_close_r)
c:/intelfpga_lite/18.1/nios2eds/bin/gnu/h-x86_64-mingw32/bin/../lib/gcc/nios2-elf/5.3.0/../../../../../H-x86_64-mingw32/nios2-elf/lib/pg\libc.a(lib_a-callocr.o)
                              c:/intelfpga_lite/18.1/nios2eds/bin/gnu/h-x86_64-mingw32/bin/../lib/gcc/nios2-elf/5.3.0/../../../../../H-x86_64-mingw32/nios2-elf/lib/pg\libc.a(lib_a-mprec.o) (_calloc_r)
c:/intelfpga_lite/18.1/nios2eds/bin/gnu/h-x86_64-mingw32/bin/../lib/gcc/nios2-elf/5.3.0/../../../../../H-x86_64-mingw32/nios2-elf/lib/pg\libc.a(lib_a-fclose.o)
                              c:/intelfpga_lite/18.1/nios2eds/bin/gnu/h-x86_64-mingw32/bin/../lib/gcc/nios2-elf/5.3.0/../../../../../H-x86_64-mingw32/nios2-elf/lib/pg\libc.a(lib_a-findfp.o) (_fclose_r)
c:/intelfpga_lite/18.1/nios2eds/bin/gnu/h-x86_64-mingw32/bin/../lib/gcc/nios2-elf/5.3.0/../../../../../H-x86_64-mingw32/nios2-elf/lib/pg\libc.a(lib_a-fputwc.o)
                              c:/intelfpga_lite/18.1/nios2eds/bin/gnu/h-x86_64-mingw32/bin/../lib/gcc/nios2-elf/5.3.0/../../../../../H-x86_64-mingw32/nios2-elf/lib/pg\libc.a(lib_a-vfiprintf.o) (_fputwc_r)
c:/intelfpga_lite/18.1/nios2eds/bin/gnu/h-x86_64-mingw32/bin/../lib/gcc/nios2-elf/5.3.0/../../../../../H-x86_64-mingw32/nios2-elf/lib/pg\libc.a(lib_a-fstatr.o)
                              c:/intelfpga_lite/18.1/nios2eds/bin/gnu/h-x86_64-mingw32/bin/../lib/gcc/nios2-elf/5.3.0/../../../../../H-x86_64-mingw32/nios2-elf/lib/pg\libc.a(lib_a-makebuf.o) (_fstat_r)
c:/intelfpga_lite/18.1/nios2eds/bin/gnu/h-x86_64-mingw32/bin/../lib/gcc/nios2-elf/5.3.0/../../../../../H-x86_64-mingw32/nios2-elf/lib/pg\libc.a(lib_a-isattyr.o)
                              c:/intelfpga_lite/18.1/nios2eds/bin/gnu/h-x86_64-mingw32/bin/../lib/gcc/nios2-elf/5.3.0/../../../../../H-x86_64-mingw32/nios2-elf/lib/pg\libc.a(lib_a-makebuf.o) (_isatty_r)
c:/intelfpga_lite/18.1/nios2eds/bin/gnu/h-x86_64-mingw32/bin/../lib/gcc/nios2-elf/5.3.0/../../../../../H-x86_64-mingw32/nios2-elf/lib/pg\libc.a(lib_a-lseekr.o)
                              c:/intelfpga_lite/18.1/nios2eds/bin/gnu/h-x86_64-mingw32/bin/../lib/gcc/nios2-elf/5.3.0/../../../../../H-x86_64-mingw32/nios2-elf/lib/pg\libc.a(lib_a-stdio.o) (_lseek_r)
c:/intelfpga_lite/18.1/nios2eds/bin/gnu/h-x86_64-mingw32/bin/../lib/gcc/nios2-elf/5.3.0/../../../../../H-x86_64-mingw32/nios2-elf/lib/pg\libc.a(lib_a-readr.o)
                              c:/intelfpga_lite/18.1/nios2eds/bin/gnu/h-x86_64-mingw32/bin/../lib/gcc/nios2-elf/5.3.0/../../../../../H-x86_64-mingw32/nios2-elf/lib/pg\libc.a(lib_a-stdio.o) (_read_r)
c:/intelfpga_lite/18.1/nios2eds/bin/gnu/h-x86_64-mingw32/bin/../lib/gcc/nios2-elf/5.3.0/../../../../../H-x86_64-mingw32/nios2-elf/lib/pg\libc.a(lib_a-wcrtomb.o)
                              c:/intelfpga_lite/18.1/nios2eds/bin/gnu/h-x86_64-mingw32/bin/../lib/gcc/nios2-elf/5.3.0/../../../../../H-x86_64-mingw32/nios2-elf/lib/pg\libc.a(lib_a-fputwc.o) (_wcrtomb_r)
c:/intelfpga_lite/18.1/nios2eds/bin/gnu/h-x86_64-mingw32/bin/../lib/gcc/nios2-elf/5.3.0/../../../../../H-x86_64-mingw32/nios2-elf/lib/pg\libc.a(lib_a-wctomb_r.o)
                              c:/intelfpga_lite/18.1/nios2eds/bin/gnu/h-x86_64-mingw32/bin/../lib/gcc/nios2-elf/5.3.0/../../../../../H-x86_64-mingw32/nios2-elf/lib/pg\libc.a(lib_a-wcrtomb.o) (__wctomb)
c:/intelfpga_lite/18.1/nios2eds/bin/gnu/h-x86_64-mingw32/bin/../lib/gcc/nios2-elf/5.3.0/pg\libgcc.a(_muldi3.o)
                              c:/intelfpga_lite/18.1/nios2eds/bin/gnu/h-x86_64-mingw32/bin/../lib/gcc/nios2-elf/5.3.0/../../../../../H-x86_64-mingw32/nios2-elf/lib/pg\libc.a(lib_a-rand.o) (__muldi3)
c:/intelfpga_lite/18.1/nios2eds/bin/gnu/h-x86_64-mingw32/bin/../lib/gcc/nios2-elf/5.3.0/pg\libgcc.a(_udivdi3.o)
                              c:/intelfpga_lite/18.1/nios2eds/bin/gnu/h-x86_64-mingw32/bin/../lib/gcc/nios2-elf/5.3.0/../../../../../H-x86_64-mingw32/nios2-elf/lib/pg\libc.a(lib_a-vfprintf.o) (__udivdi3)
c:/intelfpga_lite/18.1/nios2eds/bin/gnu/h-x86_64-mingw32/bin/../lib/gcc/nios2-elf/5.3.0/pg\libgcc.a(_umoddi3.o)
                              c:/intelfpga_lite/18.1/nios2eds/bin/gnu/h-x86_64-mingw32/bin/../lib/gcc/nios2-elf/5.3.0/../../../../../H-x86_64-mingw32/nios2-elf/lib/pg\libc.a(lib_a-vfprintf.o) (__umoddi3)
c:/intelfpga_lite/18.1/nios2eds/bin/gnu/h-x86_64-mingw32/bin/../lib/gcc/nios2-elf/5.3.0/pg\libgcc.a(adddf3.o)
                              c:/intelfpga_lite/18.1/nios2eds/bin/gnu/h-x86_64-mingw32/bin/../lib/gcc/nios2-elf/5.3.0/../../../../../H-x86_64-mingw32/nios2-elf/lib/pg\libc.a(lib_a-dtoa.o) (__adddf3)
c:/intelfpga_lite/18.1/nios2eds/bin/gnu/h-x86_64-mingw32/bin/../lib/gcc/nios2-elf/5.3.0/pg\libgcc.a(eqdf2.o)
                              c:/intelfpga_lite/18.1/nios2eds/bin/gnu/h-x86_64-mingw32/bin/../lib/gcc/nios2-elf/5.3.0/../../../../../H-x86_64-mingw32/nios2-elf/lib/pg\libc.a(lib_a-vfprintf.o) (__eqdf2)
c:/intelfpga_lite/18.1/nios2eds/bin/gnu/h-x86_64-mingw32/bin/../lib/gcc/nios2-elf/5.3.0/pg\libgcc.a(gedf2.o)
                              c:/intelfpga_lite/18.1/nios2eds/bin/gnu/h-x86_64-mingw32/bin/../lib/gcc/nios2-elf/5.3.0/../../../../../H-x86_64-mingw32/nios2-elf/lib/pg\libc.a(lib_a-dtoa.o) (__gedf2)
c:/intelfpga_lite/18.1/nios2eds/bin/gnu/h-x86_64-mingw32/bin/../lib/gcc/nios2-elf/5.3.0/pg\libgcc.a(ledf2.o)
                              c:/intelfpga_lite/18.1/nios2eds/bin/gnu/h-x86_64-mingw32/bin/../lib/gcc/nios2-elf/5.3.0/../../../../../H-x86_64-mingw32/nios2-elf/lib/pg\libc.a(lib_a-vfprintf.o) (__ltdf2)
c:/intelfpga_lite/18.1/nios2eds/bin/gnu/h-x86_64-mingw32/bin/../lib/gcc/nios2-elf/5.3.0/pg\libgcc.a(muldf3.o)
                              c:/intelfpga_lite/18.1/nios2eds/bin/gnu/h-x86_64-mingw32/bin/../lib/gcc/nios2-elf/5.3.0/../../../../../H-x86_64-mingw32/nios2-elf/lib/pg\libc.a(lib_a-dtoa.o) (__muldf3)
c:/intelfpga_lite/18.1/nios2eds/bin/gnu/h-x86_64-mingw32/bin/../lib/gcc/nios2-elf/5.3.0/pg\libgcc.a(subdf3.o)
                              c:/intelfpga_lite/18.1/nios2eds/bin/gnu/h-x86_64-mingw32/bin/../lib/gcc/nios2-elf/5.3.0/../../../../../H-x86_64-mingw32/nios2-elf/lib/pg\libc.a(lib_a-dtoa.o) (__subdf3)
c:/intelfpga_lite/18.1/nios2eds/bin/gnu/h-x86_64-mingw32/bin/../lib/gcc/nios2-elf/5.3.0/pg\libgcc.a(fixdfsi.o)
                              c:/intelfpga_lite/18.1/nios2eds/bin/gnu/h-x86_64-mingw32/bin/../lib/gcc/nios2-elf/5.3.0/../../../../../H-x86_64-mingw32/nios2-elf/lib/pg\libc.a(lib_a-dtoa.o) (__fixdfsi)
c:/intelfpga_lite/18.1/nios2eds/bin/gnu/h-x86_64-mingw32/bin/../lib/gcc/nios2-elf/5.3.0/pg\libgcc.a(floatunsidf.o)
                              c:/intelfpga_lite/18.1/nios2eds/bin/gnu/h-x86_64-mingw32/bin/../lib/gcc/nios2-elf/5.3.0/../../../../../H-x86_64-mingw32/nios2-elf/lib/pg\libc.a(lib_a-dtoa.o) (__floatunsidf)
../LUTBrain_NIOS_bsp/\libhal_bsp.a(alt_close.o)
                              c:/intelfpga_lite/18.1/nios2eds/bin/gnu/h-x86_64-mingw32/bin/../lib/gcc/nios2-elf/5.3.0/../../../../../H-x86_64-mingw32/nios2-elf/lib/pg\libc.a(closer.o) (close)
../LUTBrain_NIOS_bsp/\libhal_bsp.a(alt_dev.o)
                              ../LUTBrain_NIOS_bsp/\libhal_bsp.a(alt_close.o) (alt_fd_list)
../LUTBrain_NIOS_bsp/\libhal_bsp.a(alt_errno.o)
                              ../LUTBrain_NIOS_bsp/\libhal_bsp.a(alt_close.o) (alt_errno)
../LUTBrain_NIOS_bsp/\libhal_bsp.a(alt_exit.o)
                              c:/intelfpga_lite/18.1/nios2eds/bin/gnu/h-x86_64-mingw32/bin/../lib/gcc/nios2-elf/5.3.0/../../../../../H-x86_64-mingw32/nios2-elf/lib/pg\libc.a(lib_a-abort.o) (_exit)
../LUTBrain_NIOS_bsp/\libhal_bsp.a(alt_fstat.o)
                              c:/intelfpga_lite/18.1/nios2eds/bin/gnu/h-x86_64-mingw32/bin/../lib/gcc/nios2-elf/5.3.0/../../../../../H-x86_64-mingw32/nios2-elf/lib/pg\libc.a(lib_a-fstatr.o) (fstat)
../LUTBrain_NIOS_bsp/\libhal_bsp.a(alt_getpid.o)
                              c:/intelfpga_lite/18.1/nios2eds/bin/gnu/h-x86_64-mingw32/bin/../lib/gcc/nios2-elf/5.3.0/../../../../../H-x86_64-mingw32/nios2-elf/lib/pg\libc.a(lib_a-signalr.o) (getpid)
../LUTBrain_NIOS_bsp/\libhal_bsp.a(alt_gmon.o)
                              ../LUTBrain_NIOS_bsp/\libhal_bsp.a(alt_exit.o) (alt_gmon_data)
../LUTBrain_NIOS_bsp/\libhal_bsp.a(alt_isatty.o)
                              c:/intelfpga_lite/18.1/nios2eds/bin/gnu/h-x86_64-mingw32/bin/../lib/gcc/nios2-elf/5.3.0/../../../../../H-x86_64-mingw32/nios2-elf/lib/pg\libc.a(lib_a-isattyr.o) (isatty)
../LUTBrain_NIOS_bsp/\libhal_bsp.a(alt_kill.o)
                              c:/intelfpga_lite/18.1/nios2eds/bin/gnu/h-x86_64-mingw32/bin/../lib/gcc/nios2-elf/5.3.0/../../../../../H-x86_64-mingw32/nios2-elf/lib/pg\libc.a(lib_a-signalr.o) (kill)
../LUTBrain_NIOS_bsp/\libhal_bsp.a(alt_load.o)
                              ../LUTBrain_NIOS_bsp//obj/HAL/src/crt0.o (alt_load)
../LUTBrain_NIOS_bsp/\libhal_bsp.a(alt_lseek.o)
                              c:/intelfpga_lite/18.1/nios2eds/bin/gnu/h-x86_64-mingw32/bin/../lib/gcc/nios2-elf/5.3.0/../../../../../H-x86_64-mingw32/nios2-elf/lib/pg\libc.a(lib_a-lseekr.o) (lseek)
../LUTBrain_NIOS_bsp/\libhal_bsp.a(alt_main.o)
                              ../LUTBrain_NIOS_bsp//obj/HAL/src/crt0.o (alt_main)
../LUTBrain_NIOS_bsp/\libhal_bsp.a(alt_malloc_lock.o)
                              c:/intelfpga_lite/18.1/nios2eds/bin/gnu/h-x86_64-mingw32/bin/../lib/gcc/nios2-elf/5.3.0/../../../../../H-x86_64-mingw32/nios2-elf/lib/pg\libc.a(lib_a-mallocr.o) (__malloc_lock)
../LUTBrain_NIOS_bsp/\libhal_bsp.a(alt_mcount.o)
                              obj/default/Image.o (_mcount)
../LUTBrain_NIOS_bsp/\libhal_bsp.a(alt_read.o)
                              c:/intelfpga_lite/18.1/nios2eds/bin/gnu/h-x86_64-mingw32/bin/../lib/gcc/nios2-elf/5.3.0/../../../../../H-x86_64-mingw32/nios2-elf/lib/pg\libc.a(lib_a-readr.o) (read)
../LUTBrain_NIOS_bsp/\libhal_bsp.a(alt_release_fd.o)
                              ../LUTBrain_NIOS_bsp/\libhal_bsp.a(alt_close.o) (alt_release_fd)
../LUTBrain_NIOS_bsp/\libhal_bsp.a(alt_sbrk.o)
                              c:/intelfpga_lite/18.1/nios2eds/bin/gnu/h-x86_64-mingw32/bin/../lib/gcc/nios2-elf/5.3.0/../../../../../H-x86_64-mingw32/nios2-elf/lib/pg\libc.a(lib_a-sbrkr.o) (sbrk)
../LUTBrain_NIOS_bsp/\libhal_bsp.a(alt_tick.o)
                              obj/default/main.o (_alt_nticks)
../LUTBrain_NIOS_bsp/\libhal_bsp.a(alt_write.o)
                              c:/intelfpga_lite/18.1/nios2eds/bin/gnu/h-x86_64-mingw32/bin/../lib/gcc/nios2-elf/5.3.0/../../../../../H-x86_64-mingw32/nios2-elf/lib/pg\libstdc++.a(pure.o) (write)
../LUTBrain_NIOS_bsp/\libhal_bsp.a(alt_sys_init.o)
                              ../LUTBrain_NIOS_bsp/\libhal_bsp.a(alt_main.o) (alt_irq_init)
../LUTBrain_NIOS_bsp/\libhal_bsp.a(altera_avalon_jtag_uart_fd.o)
                              ../LUTBrain_NIOS_bsp/\libhal_bsp.a(alt_sys_init.o) (altera_avalon_jtag_uart_read_fd)
../LUTBrain_NIOS_bsp/\libhal_bsp.a(altera_avalon_jtag_uart_init.o)
                              ../LUTBrain_NIOS_bsp/\libhal_bsp.a(alt_sys_init.o) (altera_avalon_jtag_uart_init)
../LUTBrain_NIOS_bsp/\libhal_bsp.a(altera_avalon_jtag_uart_ioctl.o)
                              ../LUTBrain_NIOS_bsp/\libhal_bsp.a(altera_avalon_jtag_uart_fd.o) (altera_avalon_jtag_uart_ioctl)
../LUTBrain_NIOS_bsp/\libhal_bsp.a(altera_avalon_jtag_uart_read.o)
                              ../LUTBrain_NIOS_bsp/\libhal_bsp.a(altera_avalon_jtag_uart_fd.o) (altera_avalon_jtag_uart_read)
../LUTBrain_NIOS_bsp/\libhal_bsp.a(altera_avalon_jtag_uart_write.o)
                              ../LUTBrain_NIOS_bsp/\libhal_bsp.a(altera_avalon_jtag_uart_fd.o) (altera_avalon_jtag_uart_write)
../LUTBrain_NIOS_bsp/\libhal_bsp.a(altera_avalon_timer_sc.o)
                              ../LUTBrain_NIOS_bsp/\libhal_bsp.a(alt_sys_init.o) (alt_avalon_timer_sc_init)
../LUTBrain_NIOS_bsp/\libhal_bsp.a(altera_avalon_timer_vars.o)
                              ../LUTBrain_NIOS_bsp/\libhal_bsp.a(alt_sys_init.o) (altera_avalon_timer_ts_freq)
../LUTBrain_NIOS_bsp/\libhal_bsp.a(alt_alarm_start.o)
                              ../LUTBrain_NIOS_bsp/\libhal_bsp.a(alt_gmon.o) (alt_alarm_start)
../LUTBrain_NIOS_bsp/\libhal_bsp.a(alt_dcache_flush_all.o)
                              ../LUTBrain_NIOS_bsp/\libhal_bsp.a(alt_load.o) (alt_dcache_flush_all)
../LUTBrain_NIOS_bsp/\libhal_bsp.a(alt_dev_llist_insert.o)
                              ../LUTBrain_NIOS_bsp/\libhal_bsp.a(alt_sys_init.o) (alt_dev_llist_insert)
../LUTBrain_NIOS_bsp/\libhal_bsp.a(alt_do_ctors.o)
                              ../LUTBrain_NIOS_bsp/\libhal_bsp.a(alt_main.o) (_do_ctors)
../LUTBrain_NIOS_bsp/\libhal_bsp.a(alt_do_dtors.o)
                              ../LUTBrain_NIOS_bsp/\libhal_bsp.a(alt_main.o) (_do_dtors)
../LUTBrain_NIOS_bsp/\libhal_bsp.a(alt_icache_flush_all.o)
                              ../LUTBrain_NIOS_bsp/\libhal_bsp.a(alt_load.o) (alt_icache_flush_all)
../LUTBrain_NIOS_bsp/\libhal_bsp.a(alt_iic.o)
                              ../LUTBrain_NIOS_bsp/\libhal_bsp.a(altera_avalon_jtag_uart_init.o) (alt_ic_isr_register)
../LUTBrain_NIOS_bsp/\libhal_bsp.a(alt_iic_isr_register.o)
                              ../LUTBrain_NIOS_bsp/\libhal_bsp.a(alt_iic.o) (alt_iic_isr_register)
../LUTBrain_NIOS_bsp/\libhal_bsp.a(alt_io_redirect.o)
                              ../LUTBrain_NIOS_bsp/\libhal_bsp.a(alt_main.o) (alt_io_redirect)
../LUTBrain_NIOS_bsp/\libhal_bsp.a(alt_irq_entry.o)
                              ../LUTBrain_NIOS_bsp/\libhal_bsp.a(alt_iic_isr_register.o) (alt_irq_entry)
../LUTBrain_NIOS_bsp/\libhal_bsp.a(alt_irq_handler.o)
                              ../LUTBrain_NIOS_bsp/\libhal_bsp.a(alt_iic_isr_register.o) (alt_irq_handler)
../LUTBrain_NIOS_bsp/\libhal_bsp.a(alt_irq_vars.o)
                              ../LUTBrain_NIOS_bsp/\libhal_bsp.a(alt_iic.o) (alt_irq_active)
../LUTBrain_NIOS_bsp/\libhal_bsp.a(alt_open.o)
                              ../LUTBrain_NIOS_bsp/\libhal_bsp.a(alt_io_redirect.o) (open)
../LUTBrain_NIOS_bsp/\libhal_bsp.a(altera_nios2_gen2_irq.o)
                              ../LUTBrain_NIOS_bsp/\libhal_bsp.a(alt_sys_init.o) (altera_nios2_gen2_irq_init)
../LUTBrain_NIOS_bsp/\libhal_bsp.a(alt_exception_entry.o)
                              ../LUTBrain_NIOS_bsp/\libhal_bsp.a(alt_irq_entry.o) (alt_exception)
../LUTBrain_NIOS_bsp/\libhal_bsp.a(alt_find_dev.o)
                              ../LUTBrain_NIOS_bsp/\libhal_bsp.a(alt_open.o) (alt_find_dev)
../LUTBrain_NIOS_bsp/\libhal_bsp.a(alt_find_file.o)
                              ../LUTBrain_NIOS_bsp/\libhal_bsp.a(alt_open.o) (alt_find_file)
../LUTBrain_NIOS_bsp/\libhal_bsp.a(alt_get_fd.o)
                              ../LUTBrain_NIOS_bsp/\libhal_bsp.a(alt_open.o) (alt_get_fd)
../LUTBrain_NIOS_bsp/\libhal_bsp.a(alt_icache_flush.o)
                              ../LUTBrain_NIOS_bsp/\libhal_bsp.a(alt_icache_flush_all.o) (alt_icache_flush)
../LUTBrain_NIOS_bsp/\libhal_bsp.a(alt_instruction_exception_entry.o)
                              ../LUTBrain_NIOS_bsp/\libhal_bsp.a(alt_exception_entry.o) (alt_instruction_exception_entry)
c:/intelfpga_lite/18.1/nios2eds/bin/gnu/h-x86_64-mingw32/bin/../lib/gcc/nios2-elf/5.3.0/../../../../../H-x86_64-mingw32/nios2-elf/lib/pg\libc.a(lib_a-atexit.o)
                              ../LUTBrain_NIOS_bsp/\libhal_bsp.a(alt_main.o) (atexit)
c:/intelfpga_lite/18.1/nios2eds/bin/gnu/h-x86_64-mingw32/bin/../lib/gcc/nios2-elf/5.3.0/../../../../../H-x86_64-mingw32/nios2-elf/lib/pg\libc.a(lib_a-exit.o)
                              ../LUTBrain_NIOS_bsp/\libhal_bsp.a(alt_main.o) (exit)
c:/intelfpga_lite/18.1/nios2eds/bin/gnu/h-x86_64-mingw32/bin/../lib/gcc/nios2-elf/5.3.0/../../../../../H-x86_64-mingw32/nios2-elf/lib/pg\libc.a(lib_a-memcmp.o)
                              ../LUTBrain_NIOS_bsp/\libhal_bsp.a(alt_find_dev.o) (memcmp)
c:/intelfpga_lite/18.1/nios2eds/bin/gnu/h-x86_64-mingw32/bin/../lib/gcc/nios2-elf/5.3.0/../../../../../H-x86_64-mingw32/nios2-elf/lib/pg\libc.a(lib_a-__atexit.o)
                              c:/intelfpga_lite/18.1/nios2eds/bin/gnu/h-x86_64-mingw32/bin/../lib/gcc/nios2-elf/5.3.0/../../../../../H-x86_64-mingw32/nios2-elf/lib/pg\libc.a(lib_a-atexit.o) (__register_exitproc)
c:/intelfpga_lite/18.1/nios2eds/bin/gnu/h-x86_64-mingw32/bin/../lib/gcc/nios2-elf/5.3.0/../../../../../H-x86_64-mingw32/nios2-elf/lib/pg\libc.a(lib_a-__call_atexit.o)
                              c:/intelfpga_lite/18.1/nios2eds/bin/gnu/h-x86_64-mingw32/bin/../lib/gcc/nios2-elf/5.3.0/../../../../../H-x86_64-mingw32/nios2-elf/lib/pg\libc.a(lib_a-exit.o) (__call_exitprocs)

Allocating common symbols
Common symbol       size              file

alt_irq             0x100             ../LUTBrain_NIOS_bsp/\libhal_bsp.a(alt_irq_handler.o)
errno               0x4               c:/intelfpga_lite/18.1/nios2eds/bin/gnu/h-x86_64-mingw32/bin/../lib/gcc/nios2-elf/5.3.0/../../../../../H-x86_64-mingw32/nios2-elf/lib/pg\libc.a(lib_a-int_errno.o)
__mcount_fn_head    0x100             ../LUTBrain_NIOS_bsp/\libhal_bsp.a(alt_gmon.o)

Discarded input sections

 .group         0x0000000000000000        0x8 obj/default/Image.o
 .group         0x0000000000000000        0x8 obj/default/NN.o
 .group         0x0000000000000000        0x8 obj/default/NN.o
 .group         0x0000000000000000        0x8 obj/default/NN.o
 .group         0x0000000000000000        0x8 obj/default/NNLayer.o
 .group         0x0000000000000000        0x8 obj/default/NNLayer.o
 .group         0x0000000000000000        0x8 obj/default/NNLayer.o
 .group         0x0000000000000000        0x8 obj/default/main.o
 .group         0x0000000000000000        0x8 obj/default/main.o
 .group         0x0000000000000000        0x8 c:/intelfpga_lite/18.1/nios2eds/bin/gnu/h-x86_64-mingw32/bin/../lib/gcc/nios2-elf/5.3.0/../../../../../H-x86_64-mingw32/nios2-elf/lib/pg\libstdc++.a(bad_alloc.o)
 .group         0x0000000000000000        0x8 c:/intelfpga_lite/18.1/nios2eds/bin/gnu/h-x86_64-mingw32/bin/../lib/gcc/nios2-elf/5.3.0/../../../../../H-x86_64-mingw32/nios2-elf/lib/pg\libstdc++.a(bad_alloc.o)
 .group         0x0000000000000000        0x8 c:/intelfpga_lite/18.1/nios2eds/bin/gnu/h-x86_64-mingw32/bin/../lib/gcc/nios2-elf/5.3.0/../../../../../H-x86_64-mingw32/nios2-elf/lib/pg\libstdc++.a(bad_alloc.o)
 .group         0x0000000000000000        0x8 c:/intelfpga_lite/18.1/nios2eds/bin/gnu/h-x86_64-mingw32/bin/../lib/gcc/nios2-elf/5.3.0/../../../../../H-x86_64-mingw32/nios2-elf/lib/pg\libstdc++.a(class_type_info.o)
 .group         0x0000000000000000        0x8 c:/intelfpga_lite/18.1/nios2eds/bin/gnu/h-x86_64-mingw32/bin/../lib/gcc/nios2-elf/5.3.0/../../../../../H-x86_64-mingw32/nios2-elf/lib/pg\libstdc++.a(class_type_info.o)
 .group         0x0000000000000000        0x8 c:/intelfpga_lite/18.1/nios2eds/bin/gnu/h-x86_64-mingw32/bin/../lib/gcc/nios2-elf/5.3.0/../../../../../H-x86_64-mingw32/nios2-elf/lib/pg\libstdc++.a(class_type_info.o)
 .group         0x0000000000000000        0x8 c:/intelfpga_lite/18.1/nios2eds/bin/gnu/h-x86_64-mingw32/bin/../lib/gcc/nios2-elf/5.3.0/../../../../../H-x86_64-mingw32/nios2-elf/lib/pg\libstdc++.a(si_class_type_info.o)
 .group         0x0000000000000000        0x8 c:/intelfpga_lite/18.1/nios2eds/bin/gnu/h-x86_64-mingw32/bin/../lib/gcc/nios2-elf/5.3.0/../../../../../H-x86_64-mingw32/nios2-elf/lib/pg\libstdc++.a(si_class_type_info.o)
 .group         0x0000000000000000        0x8 c:/intelfpga_lite/18.1/nios2eds/bin/gnu/h-x86_64-mingw32/bin/../lib/gcc/nios2-elf/5.3.0/../../../../../H-x86_64-mingw32/nios2-elf/lib/pg\libstdc++.a(si_class_type_info.o)
 .group         0x0000000000000000        0x8 c:/intelfpga_lite/18.1/nios2eds/bin/gnu/h-x86_64-mingw32/bin/../lib/gcc/nios2-elf/5.3.0/../../../../../H-x86_64-mingw32/nios2-elf/lib/pg\libstdc++.a(eh_exception.o)
 .group         0x0000000000000000        0x8 c:/intelfpga_lite/18.1/nios2eds/bin/gnu/h-x86_64-mingw32/bin/../lib/gcc/nios2-elf/5.3.0/../../../../../H-x86_64-mingw32/nios2-elf/lib/pg\libstdc++.a(eh_exception.o)
 .group         0x0000000000000000        0x8 c:/intelfpga_lite/18.1/nios2eds/bin/gnu/h-x86_64-mingw32/bin/../lib/gcc/nios2-elf/5.3.0/../../../../../H-x86_64-mingw32/nios2-elf/lib/pg\libstdc++.a(eh_exception.o)
 .group         0x0000000000000000        0x8 c:/intelfpga_lite/18.1/nios2eds/bin/gnu/h-x86_64-mingw32/bin/../lib/gcc/nios2-elf/5.3.0/../../../../../H-x86_64-mingw32/nios2-elf/lib/pg\libstdc++.a(eh_exception.o)
 .group         0x0000000000000000        0x8 c:/intelfpga_lite/18.1/nios2eds/bin/gnu/h-x86_64-mingw32/bin/../lib/gcc/nios2-elf/5.3.0/../../../../../H-x86_64-mingw32/nios2-elf/lib/pg\libstdc++.a(eh_exception.o)
 .group         0x0000000000000000        0x8 c:/intelfpga_lite/18.1/nios2eds/bin/gnu/h-x86_64-mingw32/bin/../lib/gcc/nios2-elf/5.3.0/../../../../../H-x86_64-mingw32/nios2-elf/lib/pg\libstdc++.a(eh_exception.o)
 .group         0x0000000000000000        0x8 c:/intelfpga_lite/18.1/nios2eds/bin/gnu/h-x86_64-mingw32/bin/../lib/gcc/nios2-elf/5.3.0/../../../../../H-x86_64-mingw32/nios2-elf/lib/pg\libstdc++.a(eh_exception.o)
 .group         0x0000000000000000        0x8 c:/intelfpga_lite/18.1/nios2eds/bin/gnu/h-x86_64-mingw32/bin/../lib/gcc/nios2-elf/5.3.0/../../../../../H-x86_64-mingw32/nios2-elf/lib/pg\libstdc++.a(eh_exception.o)
 .group         0x0000000000000000        0x8 c:/intelfpga_lite/18.1/nios2eds/bin/gnu/h-x86_64-mingw32/bin/../lib/gcc/nios2-elf/5.3.0/../../../../../H-x86_64-mingw32/nios2-elf/lib/pg\libstdc++.a(eh_exception.o)
 .group         0x0000000000000000        0x8 c:/intelfpga_lite/18.1/nios2eds/bin/gnu/h-x86_64-mingw32/bin/../lib/gcc/nios2-elf/5.3.0/../../../../../H-x86_64-mingw32/nios2-elf/lib/pg\libstdc++.a(eh_exception.o)
 .group         0x0000000000000000        0x8 c:/intelfpga_lite/18.1/nios2eds/bin/gnu/h-x86_64-mingw32/bin/../lib/gcc/nios2-elf/5.3.0/../../../../../H-x86_64-mingw32/nios2-elf/lib/pg\libstdc++.a(eh_exception.o)
 .group         0x0000000000000000        0x8 c:/intelfpga_lite/18.1/nios2eds/bin/gnu/h-x86_64-mingw32/bin/../lib/gcc/nios2-elf/5.3.0/../../../../../H-x86_64-mingw32/nios2-elf/lib/pg\libstdc++.a(eh_exception.o)
 .group         0x0000000000000000        0x8 c:/intelfpga_lite/18.1/nios2eds/bin/gnu/h-x86_64-mingw32/bin/../lib/gcc/nios2-elf/5.3.0/../../../../../H-x86_64-mingw32/nios2-elf/lib/pg\libstdc++.a(tinfo.o)
 .group         0x0000000000000000        0x8 c:/intelfpga_lite/18.1/nios2eds/bin/gnu/h-x86_64-mingw32/bin/../lib/gcc/nios2-elf/5.3.0/../../../../../H-x86_64-mingw32/nios2-elf/lib/pg\libstdc++.a(tinfo.o)
 .group         0x0000000000000000        0x8 c:/intelfpga_lite/18.1/nios2eds/bin/gnu/h-x86_64-mingw32/bin/../lib/gcc/nios2-elf/5.3.0/../../../../../H-x86_64-mingw32/nios2-elf/lib/pg\libstdc++.a(tinfo.o)

Memory Configuration

Name             Origin             Length             Attributes
sdram            0x0000000000000000 0x0000000004000000
reset            0x0000000004020000 0x0000000000000020
onchip_memory2   0x0000000004020020 0x000000000001f3e0
*default*        0x0000000000000000 0xffffffffffffffff

Linker script and memory map

LOAD ../LUTBrain_NIOS_bsp//obj/HAL/src/crt0.o
LOAD obj/default/Image.o
LOAD obj/default/NN.o
LOAD obj/default/NNLayer.o
LOAD obj/default/VGA.o
LOAD obj/default/main.o
LOAD c:/intelfpga_lite/18.1/nios2eds/bin/gnu/h-x86_64-mingw32/bin/../lib/gcc/nios2-elf/5.3.0/../../../../../H-x86_64-mingw32/nios2-elf/lib/pg\libstdc++.a
LOAD c:/intelfpga_lite/18.1/nios2eds/bin/gnu/h-x86_64-mingw32/bin/../lib/gcc/nios2-elf/5.3.0/../../../../../H-x86_64-mingw32/nios2-elf/lib/pg\libm.a
LOAD c:/intelfpga_lite/18.1/nios2eds/bin/gnu/h-x86_64-mingw32/bin/../lib/gcc/nios2-elf/5.3.0/pg\libgcc.a
START GROUP
LOAD c:/intelfpga_lite/18.1/nios2eds/bin/gnu/h-x86_64-mingw32/bin/../lib/gcc/nios2-elf/5.3.0/../../../../../H-x86_64-mingw32/nios2-elf/lib/pg\libc.a
LOAD c:/intelfpga_lite/18.1/nios2eds/bin/gnu/h-x86_64-mingw32/bin/../lib/gcc/nios2-elf/5.3.0/pg\libgcc.a
LOAD ../LUTBrain_NIOS_bsp/\libhal_bsp.a
LOAD c:/intelfpga_lite/18.1/nios2eds/bin/gnu/h-x86_64-mingw32/bin/../lib/gcc/nios2-elf/5.3.0/../../../../../H-x86_64-mingw32/nios2-elf/lib/pg\libm.a
END GROUP
LOAD c:/intelfpga_lite/18.1/nios2eds/bin/gnu/h-x86_64-mingw32/bin/../lib/gcc/nios2-elf/5.3.0/pg\libgcc.a
                0x0000000000000000                __alt_mem_sdram = 0x0
                0x0000000004020000                __alt_mem_onchip_memory2 = 0x4020000

.entry          0x0000000004020000       0x20
 *(.entry)
 .entry         0x0000000004020000       0x20 ../LUTBrain_NIOS_bsp//obj/HAL/src/crt0.o
                0x0000000004020000                __reset

.exceptions     0x0000000004020020      0x184
                0x0000000004020020                PROVIDE (__ram_exceptions_start, ABSOLUTE (.))
                0x0000000004020020                . = ALIGN (0x20)
 *(.irq)
 *(.exceptions.entry.label)
 .exceptions.entry.label
                0x0000000004020020        0x0 ../LUTBrain_NIOS_bsp/\libhal_bsp.a(alt_irq_entry.o)
                0x0000000004020020                alt_irq_entry
 .exceptions.entry.label
                0x0000000004020020        0x0 ../LUTBrain_NIOS_bsp/\libhal_bsp.a(alt_exception_entry.o)
                0x0000000004020020                alt_exception
 *(.exceptions.entry.user)
 *(.exceptions.entry.ecc_fatal)
 *(.exceptions.entry)
 .exceptions.entry
                0x0000000004020020       0x54 ../LUTBrain_NIOS_bsp/\libhal_bsp.a(alt_exception_entry.o)
 *(.exceptions.irqtest.user)
 *(.exceptions.irqtest)
 .exceptions.irqtest
                0x0000000004020074       0x10 ../LUTBrain_NIOS_bsp/\libhal_bsp.a(alt_irq_entry.o)
 *(.exceptions.irqhandler.user)
 *(.exceptions.irqhandler)
 .exceptions.irqhandler
                0x0000000004020084        0x4 ../LUTBrain_NIOS_bsp/\libhal_bsp.a(alt_irq_entry.o)
 *(.exceptions.irqreturn.user)
 *(.exceptions.irqreturn)
 .exceptions.irqreturn
                0x0000000004020088        0x4 ../LUTBrain_NIOS_bsp/\libhal_bsp.a(alt_irq_entry.o)
 *(.exceptions.notirq.label)
 .exceptions.notirq.label
                0x000000000402008c        0x0 ../LUTBrain_NIOS_bsp/\libhal_bsp.a(alt_irq_entry.o)
 *(.exceptions.notirq.user)
 *(.exceptions.notirq)
 .exceptions.notirq
                0x000000000402008c        0x8 ../LUTBrain_NIOS_bsp/\libhal_bsp.a(alt_exception_entry.o)
 *(.exceptions.soft.user)
 *(.exceptions.soft)
 *(.exceptions.unknown.user)
 *(.exceptions.unknown)
 .exceptions.unknown
                0x0000000004020094       0x14 ../LUTBrain_NIOS_bsp/\libhal_bsp.a(alt_exception_entry.o)
 *(.exceptions.exit.label)
 .exceptions.exit.label
                0x00000000040200a8        0x0 ../LUTBrain_NIOS_bsp/\libhal_bsp.a(alt_irq_entry.o)
 .exceptions.exit.label
                0x00000000040200a8        0x0 ../LUTBrain_NIOS_bsp/\libhal_bsp.a(alt_exception_entry.o)
 *(.exceptions.exit.user)
 *(.exceptions.exit)
 .exceptions.exit
                0x00000000040200a8       0x54 ../LUTBrain_NIOS_bsp/\libhal_bsp.a(alt_exception_entry.o)
 *(.exceptions)
 .exceptions    0x00000000040200fc       0x70 ../LUTBrain_NIOS_bsp/\libhal_bsp.a(alt_irq_handler.o)
                0x00000000040200fc                alt_irq_handler
 .exceptions    0x000000000402016c       0x38 ../LUTBrain_NIOS_bsp/\libhal_bsp.a(alt_instruction_exception_entry.o)
                0x000000000402016c                alt_instruction_exception_entry
                0x00000000040201a4                PROVIDE (__ram_exceptions_end, ABSOLUTE (.))
                0x0000000004020020                PROVIDE (__flash_exceptions_start, LOADADDR (.exceptions))

.text           0x00000000040201a4    0x15bf4
                0x00000000040201a4                PROVIDE (stext, ABSOLUTE (.))
 *(.interp)
 *(.hash)
 *(.dynsym)
 *(.dynstr)
 *(.gnu.version)
 *(.gnu.version_d)
 *(.gnu.version_r)
 *(.rel.init)
 *(.rela.init)
 *(.rel.text .rel.text.* .rel.gnu.linkonce.t.*)
 *(.rela.text .rela.text.* .rela.gnu.linkonce.t.*)
 *(.rel.fini)
 *(.rela.fini)
 *(.rel.rodata .rel.rodata.* .rel.gnu.linkonce.r.*)
 *(.rela.rodata .rela.rodata.* .rela.gnu.linkonce.r.*)
 *(.rel.data .rel.data.* .rel.gnu.linkonce.d.*)
 *(.rela.data .rela.data.* .rela.gnu.linkonce.d.*)
 *(.rel.tdata .rel.tdata.* .rel.gnu.linkonce.td.*)
 *(.rela.tdata .rela.tdata.* .rela.gnu.linkonce.td.*)
 *(.rel.tbss .rel.tbss.* .rel.gnu.linkonce.tb.*)
 *(.rela.tbss .rela.tbss.* .rela.gnu.linkonce.tb.*)
 *(.rel.ctors)
 *(.rela.ctors)
 *(.rel.dtors)
 *(.rela.dtors)
 *(.rel.got)
 *(.rela.got)
 *(.rel.sdata .rel.sdata.* .rel.gnu.linkonce.s.*)
 *(.rela.sdata .rela.sdata.* .rela.gnu.linkonce.s.*)
 *(.rel.sbss .rel.sbss.* .rel.gnu.linkonce.sb.*)
 *(.rela.sbss .rela.sbss.* .rela.gnu.linkonce.sb.*)
 *(.rel.sdata2 .rel.sdata2.* .rel.gnu.linkonce.s2.*)
 *(.rela.sdata2 .rela.sdata2.* .rela.gnu.linkonce.s2.*)
 *(.rel.sbss2 .rel.sbss2.* .rel.gnu.linkonce.sb2.*)
 *(.rela.sbss2 .rela.sbss2.* .rela.gnu.linkonce.sb2.*)
 *(.rel.bss .rel.bss.* .rel.gnu.linkonce.b.*)
 *(.rela.bss .rela.bss.* .rela.gnu.linkonce.b.*)
 *(.rel.plt)
 *(.rela.plt)
 *(.rel.dyn)
 *(.init)
 *(.plt)
 *(.text .stub .text.* .gnu.linkonce.t.*)
 .text          0x00000000040201a4       0x4c ../LUTBrain_NIOS_bsp//obj/HAL/src/crt0.o
                0x00000000040201a4                _start
 .text          0x00000000040201f0      0xe60 obj/default/Image.o
                0x00000000040201f0                Image::Image()
                0x00000000040201f0                Image::Image()
                0x0000000004020238                Image::Image(int, int)
                0x0000000004020238                Image::Image(int, int)
                0x0000000004020290                Image::init(int, int)
                0x0000000004020340                Image::randomize()
                0x00000000040203e4                Image::Get_Fractal_Level(float, float)
                0x0000000004020524                Image::Get_Fractal_Color(int)
                0x000000000402057c                Image::make_fractal()
                0x00000000040208d8                Image::source_pixel(int, int)
                0x0000000004020930                Image::make_bw()
                0x0000000004020a08                Image::apply_NN(NN*, int, int)
                0x0000000004020e4c                Image::printToScreen(int, int, VGA*)
                0x0000000004020f34                Image::print()
                0x0000000004020ff0                Image::~Image()
                0x0000000004020ff0                Image::~Image()
 .text._ZN3VGA15Set_Pixel_ColorEjjj
                0x0000000004021050       0x8c obj/default/Image.o
                0x0000000004021050                VGA::Set_Pixel_Color(unsigned int, unsigned int, unsigned int)
 .text          0x00000000040210dc      0x76c obj/default/NN.o
                0x00000000040210dc                NN::NN(int)
                0x00000000040210dc                NN::NN(int)
                0x0000000004021308                NN::~NN()
                0x0000000004021308                NN::~NN()
                0x000000000402135c                NN::~NN()
                0x00000000040213a0                NN::propagate(float*)
                0x0000000004021424                NN::getMaxOutputIndex()
                0x000000000402157c                NN::getMaxOutputValue()
                0x00000000040216cc                NN::print()
                0x0000000004021754                NN::printOutputs()
 .text          0x0000000004021848      0xa40 obj/default/NNLayer.o
                0x0000000004021848                NNLayer::NNLayer()
                0x0000000004021848                NNLayer::NNLayer()
                0x00000000040218c0                NNLayer::NNLayer(int, int, int)
                0x00000000040218c0                NNLayer::NNLayer(int, int, int)
                0x0000000004021928                NNLayer::init(int, int, int)
                0x0000000004021a58                simpleRand()
                0x0000000004021ab4                NNLayer::rand_FloatRange(float, float)
                0x0000000004021b64                NNLayer::MYrand(int)
                0x0000000004021bbc                NNLayer::random_init(int, int, int)
                0x0000000004021d10                NNLayer::demo_init(int, int, int, int)
                0x0000000004021d68                NNLayer::~NNLayer()
                0x0000000004021d68                NNLayer::~NNLayer()
                0x0000000004021dbc                NNLayer::~NNLayer()
                0x0000000004021e00                NNLayer::propagate(float*)
                0x0000000004022038                NNLayer::print_activation()
                0x00000000040220d8                NNLayer::print()
 .text          0x0000000004022288       0x78 obj/default/VGA.o
                0x0000000004022288                VGA::clr()
 .text          0x0000000004022300      0x408 obj/default/main.o
                0x0000000004022300                main
 .text._ZN3VGAC2Eii
                0x0000000004022708       0x50 obj/default/main.o
                0x0000000004022708                VGA::VGA(int, int)
                0x0000000004022708                VGA::VGA(int, int)
 .text._ZN3VGA15send_to_displayEv
                0x0000000004022758       0x48 obj/default/main.o
                0x0000000004022758                VGA::send_to_display()
 .text          0x00000000040227a0        0x0 c:/intelfpga_lite/18.1/nios2eds/bin/gnu/h-x86_64-mingw32/bin/../lib/gcc/nios2-elf/5.3.0/../../../../../H-x86_64-mingw32/nios2-elf/lib/pg\libstdc++.a(new_opv.o)
 .text._Znaj    0x00000000040227a0       0xa0 c:/intelfpga_lite/18.1/nios2eds/bin/gnu/h-x86_64-mingw32/bin/../lib/gcc/nios2-elf/5.3.0/../../../../../H-x86_64-mingw32/nios2-elf/lib/pg\libstdc++.a(new_opv.o)
                0x00000000040227a0                operator new[](unsigned int)
 .text          0x0000000004022840        0x0 c:/intelfpga_lite/18.1/nios2eds/bin/gnu/h-x86_64-mingw32/bin/../lib/gcc/nios2-elf/5.3.0/../../../../../H-x86_64-mingw32/nios2-elf/lib/pg\libstdc++.a(new_op.o)
 .text._Znwj    0x0000000004022840       0x7c c:/intelfpga_lite/18.1/nios2eds/bin/gnu/h-x86_64-mingw32/bin/../lib/gcc/nios2-elf/5.3.0/../../../../../H-x86_64-mingw32/nios2-elf/lib/pg\libstdc++.a(new_op.o)
                0x0000000004022840                operator new(unsigned int)
 .text          0x00000000040228bc        0x0 c:/intelfpga_lite/18.1/nios2eds/bin/gnu/h-x86_64-mingw32/bin/../lib/gcc/nios2-elf/5.3.0/../../../../../H-x86_64-mingw32/nios2-elf/lib/pg\libstdc++.a(del_opv.o)
 .text._ZdaPv   0x00000000040228bc       0x10 c:/intelfpga_lite/18.1/nios2eds/bin/gnu/h-x86_64-mingw32/bin/../lib/gcc/nios2-elf/5.3.0/../../../../../H-x86_64-mingw32/nios2-elf/lib/pg\libstdc++.a(del_opv.o)
                0x00000000040228bc                operator delete[](void*)
 .text          0x00000000040228cc        0x0 c:/intelfpga_lite/18.1/nios2eds/bin/gnu/h-x86_64-mingw32/bin/../lib/gcc/nios2-elf/5.3.0/../../../../../H-x86_64-mingw32/nios2-elf/lib/pg\libstdc++.a(new_handler.o)
 .text._ZSt15set_new_handlerPFvvE
                0x00000000040228cc       0x20 c:/intelfpga_lite/18.1/nios2eds/bin/gnu/h-x86_64-mingw32/bin/../lib/gcc/nios2-elf/5.3.0/../../../../../H-x86_64-mingw32/nios2-elf/lib/pg\libstdc++.a(new_handler.o)
                0x00000000040228cc                std::set_new_handler(void (*)())
 .text._ZSt15get_new_handlerv
                0x00000000040228ec       0x1c c:/intelfpga_lite/18.1/nios2eds/bin/gnu/h-x86_64-mingw32/bin/../lib/gcc/nios2-elf/5.3.0/../../../../../H-x86_64-mingw32/nios2-elf/lib/pg\libstdc++.a(new_handler.o)
                0x00000000040228ec                std::get_new_handler()
 .text          0x0000000004022908        0x0 c:/intelfpga_lite/18.1/nios2eds/bin/gnu/h-x86_64-mingw32/bin/../lib/gcc/nios2-elf/5.3.0/../../../../../H-x86_64-mingw32/nios2-elf/lib/pg\libstdc++.a(eh_personality.o)
 .text._ZL21size_of_encoded_valueh
                0x0000000004022908       0xb0 c:/intelfpga_lite/18.1/nios2eds/bin/gnu/h-x86_64-mingw32/bin/../lib/gcc/nios2-elf/5.3.0/../../../../../H-x86_64-mingw32/nios2-elf/lib/pg\libstdc++.a(eh_personality.o)
 .text._ZL28read_encoded_value_with_basehjPKhPj
                0x00000000040229b8      0x218 c:/intelfpga_lite/18.1/nios2eds/bin/gnu/h-x86_64-mingw32/bin/../lib/gcc/nios2-elf/5.3.0/../../../../../H-x86_64-mingw32/nios2-elf/lib/pg\libstdc++.a(eh_personality.o)
 .text._ZL15get_ttype_entryP16lsda_header_infom
                0x0000000004022bd0       0x60 c:/intelfpga_lite/18.1/nios2eds/bin/gnu/h-x86_64-mingw32/bin/../lib/gcc/nios2-elf/5.3.0/../../../../../H-x86_64-mingw32/nios2-elf/lib/pg\libstdc++.a(eh_personality.o)
 .text._ZL21base_of_encoded_valuehP15_Unwind_Context
                0x0000000004022c30       0x98 c:/intelfpga_lite/18.1/nios2eds/bin/gnu/h-x86_64-mingw32/bin/../lib/gcc/nios2-elf/5.3.0/../../../../../H-x86_64-mingw32/nios2-elf/lib/pg\libstdc++.a(eh_personality.o)
 .text._ZL17parse_lsda_headerP15_Unwind_ContextPKhP16lsda_header_info
                0x0000000004022cc8      0x140 c:/intelfpga_lite/18.1/nios2eds/bin/gnu/h-x86_64-mingw32/bin/../lib/gcc/nios2-elf/5.3.0/../../../../../H-x86_64-mingw32/nios2-elf/lib/pg\libstdc++.a(eh_personality.o)
 .text._ZL16get_adjusted_ptrPKSt9type_infoS1_PPv.constprop.3
                0x0000000004022e08       0x94 c:/intelfpga_lite/18.1/nios2eds/bin/gnu/h-x86_64-mingw32/bin/../lib/gcc/nios2-elf/5.3.0/../../../../../H-x86_64-mingw32/nios2-elf/lib/pg\libstdc++.a(eh_personality.o)
 .text.unlikely._ZL28check_compact_exception_specPKSt9type_infoPvPKhij
                0x0000000004022e9c      0x1cc c:/intelfpga_lite/18.1/nios2eds/bin/gnu/h-x86_64-mingw32/bin/../lib/gcc/nios2-elf/5.3.0/../../../../../H-x86_64-mingw32/nios2-elf/lib/pg\libstdc++.a(eh_personality.o)
 .text._ZL20check_exception_specP16lsda_header_infoPKSt9type_infoPvl
                0x0000000004023068       0xb4 c:/intelfpga_lite/18.1/nios2eds/bin/gnu/h-x86_64-mingw32/bin/../lib/gcc/nios2-elf/5.3.0/../../../../../H-x86_64-mingw32/nios2-elf/lib/pg\libstdc++.a(eh_personality.o)
 .text.__gxx_personality_sj0
                0x000000000402311c      0x60c c:/intelfpga_lite/18.1/nios2eds/bin/gnu/h-x86_64-mingw32/bin/../lib/gcc/nios2-elf/5.3.0/../../../../../H-x86_64-mingw32/nios2-elf/lib/pg\libstdc++.a(eh_personality.o)
                0x000000000402311c                __gxx_personality_sj0
 .text.__cxa_call_unexpected
                0x0000000004023728      0x23c c:/intelfpga_lite/18.1/nios2eds/bin/gnu/h-x86_64-mingw32/bin/../lib/gcc/nios2-elf/5.3.0/../../../../../H-x86_64-mingw32/nios2-elf/lib/pg\libstdc++.a(eh_personality.o)
                0x0000000004023728                __cxa_call_unexpected
 .text          0x0000000004023964        0x0 c:/intelfpga_lite/18.1/nios2eds/bin/gnu/h-x86_64-mingw32/bin/../lib/gcc/nios2-elf/5.3.0/../../../../../H-x86_64-mingw32/nios2-elf/lib/pg\libstdc++.a(bad_alloc.o)
 .text._ZNKSt9bad_alloc4whatEv
                0x0000000004023964       0x18 c:/intelfpga_lite/18.1/nios2eds/bin/gnu/h-x86_64-mingw32/bin/../lib/gcc/nios2-elf/5.3.0/../../../../../H-x86_64-mingw32/nios2-elf/lib/pg\libstdc++.a(bad_alloc.o)
                0x0000000004023964                std::bad_alloc::what() const
 .text._ZNSt9bad_allocD2Ev
                0x000000000402397c       0x1c c:/intelfpga_lite/18.1/nios2eds/bin/gnu/h-x86_64-mingw32/bin/../lib/gcc/nios2-elf/5.3.0/../../../../../H-x86_64-mingw32/nios2-elf/lib/pg\libstdc++.a(bad_alloc.o)
                0x000000000402397c                std::bad_alloc::~bad_alloc()
                0x000000000402397c                std::bad_alloc::~bad_alloc()
 .text._ZNSt9bad_allocD0Ev
                0x0000000004023998       0x40 c:/intelfpga_lite/18.1/nios2eds/bin/gnu/h-x86_64-mingw32/bin/../lib/gcc/nios2-elf/5.3.0/../../../../../H-x86_64-mingw32/nios2-elf/lib/pg\libstdc++.a(bad_alloc.o)
                0x0000000004023998                std::bad_alloc::~bad_alloc()
 .text          0x00000000040239d8        0x0 c:/intelfpga_lite/18.1/nios2eds/bin/gnu/h-x86_64-mingw32/bin/../lib/gcc/nios2-elf/5.3.0/../../../../../H-x86_64-mingw32/nios2-elf/lib/pg\libstdc++.a(del_op.o)
 .text._ZdlPv   0x00000000040239d8       0x10 c:/intelfpga_lite/18.1/nios2eds/bin/gnu/h-x86_64-mingw32/bin/../lib/gcc/nios2-elf/5.3.0/../../../../../H-x86_64-mingw32/nios2-elf/lib/pg\libstdc++.a(del_op.o)
                0x00000000040239d8                operator delete(void*)
 .text          0x00000000040239e8        0x0 c:/intelfpga_lite/18.1/nios2eds/bin/gnu/h-x86_64-mingw32/bin/../lib/gcc/nios2-elf/5.3.0/../../../../../H-x86_64-mingw32/nios2-elf/lib/pg\libstdc++.a(eh_throw.o)
 .text._ZL23__gxx_exception_cleanup19_Unwind_Reason_CodeP17_Unwind_Exception
                0x00000000040239e8       0x50 c:/intelfpga_lite/18.1/nios2eds/bin/gnu/h-x86_64-mingw32/bin/../lib/gcc/nios2-elf/5.3.0/../../../../../H-x86_64-mingw32/nios2-elf/lib/pg\libstdc++.a(eh_throw.o)
 .text.__cxa_throw
                0x0000000004023a38       0x9c c:/intelfpga_lite/18.1/nios2eds/bin/gnu/h-x86_64-mingw32/bin/../lib/gcc/nios2-elf/5.3.0/../../../../../H-x86_64-mingw32/nios2-elf/lib/pg\libstdc++.a(eh_throw.o)
                0x0000000004023a38                __cxa_throw
 .text.__cxa_rethrow
                0x0000000004023ad4       0x90 c:/intelfpga_lite/18.1/nios2eds/bin/gnu/h-x86_64-mingw32/bin/../lib/gcc/nios2-elf/5.3.0/../../../../../H-x86_64-mingw32/nios2-elf/lib/pg\libstdc++.a(eh_throw.o)
                0x0000000004023ad4                __cxa_rethrow
 .text          0x0000000004023b64        0x0 c:/intelfpga_lite/18.1/nios2eds/bin/gnu/h-x86_64-mingw32/bin/../lib/gcc/nios2-elf/5.3.0/../../../../../H-x86_64-mingw32/nios2-elf/lib/pg\libstdc++.a(eh_catch.o)
 .text.__cxa_get_exception_ptr
                0x0000000004023b64       0x14 c:/intelfpga_lite/18.1/nios2eds/bin/gnu/h-x86_64-mingw32/bin/../lib/gcc/nios2-elf/5.3.0/../../../../../H-x86_64-mingw32/nios2-elf/lib/pg\libstdc++.a(eh_catch.o)
                0x0000000004023b64                __cxa_get_exception_ptr
 .text.__cxa_begin_catch
                0x0000000004023b78       0xc0 c:/intelfpga_lite/18.1/nios2eds/bin/gnu/h-x86_64-mingw32/bin/../lib/gcc/nios2-elf/5.3.0/../../../../../H-x86_64-mingw32/nios2-elf/lib/pg\libstdc++.a(eh_catch.o)
                0x0000000004023b78                __cxa_begin_catch
 .text.__cxa_end_catch
                0x0000000004023c38       0xc0 c:/intelfpga_lite/18.1/nios2eds/bin/gnu/h-x86_64-mingw32/bin/../lib/gcc/nios2-elf/5.3.0/../../../../../H-x86_64-mingw32/nios2-elf/lib/pg\libstdc++.a(eh_catch.o)
                0x0000000004023c38                __cxa_end_catch
 .text._ZSt18uncaught_exceptionv
                0x0000000004023cf8       0x2c c:/intelfpga_lite/18.1/nios2eds/bin/gnu/h-x86_64-mingw32/bin/../lib/gcc/nios2-elf/5.3.0/../../../../../H-x86_64-mingw32/nios2-elf/lib/pg\libstdc++.a(eh_catch.o)
                0x0000000004023cf8                std::uncaught_exception()
 .text          0x0000000004023d24        0x0 c:/intelfpga_lite/18.1/nios2eds/bin/gnu/h-x86_64-mingw32/bin/../lib/gcc/nios2-elf/5.3.0/../../../../../H-x86_64-mingw32/nios2-elf/lib/pg\libstdc++.a(class_type_info.o)
 .text._ZNK10__cxxabiv117__class_type_info11__do_upcastEPKS0_PPv
                0x0000000004023d24       0x84 c:/intelfpga_lite/18.1/nios2eds/bin/gnu/h-x86_64-mingw32/bin/../lib/gcc/nios2-elf/5.3.0/../../../../../H-x86_64-mingw32/nios2-elf/lib/pg\libstdc++.a(class_type_info.o)
                0x0000000004023d24                __cxxabiv1::__class_type_info::__do_upcast(__cxxabiv1::__class_type_info const*, void**) const
 .text._ZNK10__cxxabiv117__class_type_info20__do_find_public_srcEiPKvPKS0_S2_
                0x0000000004023da8       0x24 c:/intelfpga_lite/18.1/nios2eds/bin/gnu/h-x86_64-mingw32/bin/../lib/gcc/nios2-elf/5.3.0/../../../../../H-x86_64-mingw32/nios2-elf/lib/pg\libstdc++.a(class_type_info.o)
                0x0000000004023da8                __cxxabiv1::__class_type_info::__do_find_public_src(int, void const*, __cxxabiv1::__class_type_info const*, void const*) const
 .text._ZN10__cxxabiv117__class_type_infoD2Ev
                0x0000000004023dcc       0x1c c:/intelfpga_lite/18.1/nios2eds/bin/gnu/h-x86_64-mingw32/bin/../lib/gcc/nios2-elf/5.3.0/../../../../../H-x86_64-mingw32/nios2-elf/lib/pg\libstdc++.a(class_type_info.o)
                0x0000000004023dcc                __cxxabiv1::__class_type_info::~__class_type_info()
                0x0000000004023dcc                __cxxabiv1::__class_type_info::~__class_type_info()
 .text._ZN10__cxxabiv117__class_type_infoD0Ev
                0x0000000004023de8       0x40 c:/intelfpga_lite/18.1/nios2eds/bin/gnu/h-x86_64-mingw32/bin/../lib/gcc/nios2-elf/5.3.0/../../../../../H-x86_64-mingw32/nios2-elf/lib/pg\libstdc++.a(class_type_info.o)
                0x0000000004023de8                __cxxabiv1::__class_type_info::~__class_type_info()
 .text._ZNK10__cxxabiv117__class_type_info11__do_upcastEPKS0_PKvRNS0_15__upcast_resultE
                0x0000000004023e28       0x78 c:/intelfpga_lite/18.1/nios2eds/bin/gnu/h-x86_64-mingw32/bin/../lib/gcc/nios2-elf/5.3.0/../../../../../H-x86_64-mingw32/nios2-elf/lib/pg\libstdc++.a(class_type_info.o)
                0x0000000004023e28                __cxxabiv1::__class_type_info::__do_upcast(__cxxabiv1::__class_type_info const*, void const*, __cxxabiv1::__class_type_info::__upcast_result&) const
 .text._ZNK10__cxxabiv117__class_type_info12__do_dyncastEiNS0_10__sub_kindEPKS0_PKvS3_S5_RNS0_16__dyncast_resultE
                0x0000000004023ea0       0xdc c:/intelfpga_lite/18.1/nios2eds/bin/gnu/h-x86_64-mingw32/bin/../lib/gcc/nios2-elf/5.3.0/../../../../../H-x86_64-mingw32/nios2-elf/lib/pg\libstdc++.a(class_type_info.o)
                0x0000000004023ea0                __cxxabiv1::__class_type_info::__do_dyncast(int, __cxxabiv1::__class_type_info::__sub_kind, __cxxabiv1::__class_type_info const*, void const*, __cxxabiv1::__class_type_info const*, void const*, __cxxabiv1::__class_type_info::__dyncast_result&) const
 .text._ZNK10__cxxabiv117__class_type_info10__do_catchEPKSt9type_infoPPvj
                0x0000000004023f7c       0xc4 c:/intelfpga_lite/18.1/nios2eds/bin/gnu/h-x86_64-mingw32/bin/../lib/gcc/nios2-elf/5.3.0/../../../../../H-x86_64-mingw32/nios2-elf/lib/pg\libstdc++.a(class_type_info.o)
                0x0000000004023f7c                __cxxabiv1::__class_type_info::__do_catch(std::type_info const*, void**, unsigned int) const
 .text          0x0000000004024040        0x0 c:/intelfpga_lite/18.1/nios2eds/bin/gnu/h-x86_64-mingw32/bin/../lib/gcc/nios2-elf/5.3.0/../../../../../H-x86_64-mingw32/nios2-elf/lib/pg\libstdc++.a(eh_terminate.o)
 .text._ZN10__cxxabiv111__terminateEPFvvE
                0x0000000004024040       0xcc c:/intelfpga_lite/18.1/nios2eds/bin/gnu/h-x86_64-mingw32/bin/../lib/gcc/nios2-elf/5.3.0/../../../../../H-x86_64-mingw32/nios2-elf/lib/pg\libstdc++.a(eh_terminate.o)
                0x0000000004024040                __cxxabiv1::__terminate(void (*)())
 .text._ZSt9terminatev
                0x000000000402410c       0x24 c:/intelfpga_lite/18.1/nios2eds/bin/gnu/h-x86_64-mingw32/bin/../lib/gcc/nios2-elf/5.3.0/../../../../../H-x86_64-mingw32/nios2-elf/lib/pg\libstdc++.a(eh_terminate.o)
                0x000000000402410c                std::terminate()
 .text._ZN10__cxxabiv112__unexpectedEPFvvE
                0x0000000004024130       0x1c c:/intelfpga_lite/18.1/nios2eds/bin/gnu/h-x86_64-mingw32/bin/../lib/gcc/nios2-elf/5.3.0/../../../../../H-x86_64-mingw32/nios2-elf/lib/pg\libstdc++.a(eh_terminate.o)
                0x0000000004024130                __cxxabiv1::__unexpected(void (*)())
 .text._ZSt10unexpectedv
                0x000000000402414c       0x24 c:/intelfpga_lite/18.1/nios2eds/bin/gnu/h-x86_64-mingw32/bin/../lib/gcc/nios2-elf/5.3.0/../../../../../H-x86_64-mingw32/nios2-elf/lib/pg\libstdc++.a(eh_terminate.o)
                0x000000000402414c                std::unexpected()
 .text._ZSt13set_terminatePFvvE
                0x0000000004024170       0x20 c:/intelfpga_lite/18.1/nios2eds/bin/gnu/h-x86_64-mingw32/bin/../lib/gcc/nios2-elf/5.3.0/../../../../../H-x86_64-mingw32/nios2-elf/lib/pg\libstdc++.a(eh_terminate.o)
                0x0000000004024170                std::set_terminate(void (*)())
 .text._ZSt13get_terminatev
                0x0000000004024190       0x1c c:/intelfpga_lite/18.1/nios2eds/bin/gnu/h-x86_64-mingw32/bin/../lib/gcc/nios2-elf/5.3.0/../../../../../H-x86_64-mingw32/nios2-elf/lib/pg\libstdc++.a(eh_terminate.o)
                0x0000000004024190                std::get_terminate()
 .text._ZSt14set_unexpectedPFvvE
                0x00000000040241ac       0x20 c:/intelfpga_lite/18.1/nios2eds/bin/gnu/h-x86_64-mingw32/bin/../lib/gcc/nios2-elf/5.3.0/../../../../../H-x86_64-mingw32/nios2-elf/lib/pg\libstdc++.a(eh_terminate.o)
                0x00000000040241ac                std::set_unexpected(void (*)())
 .text._ZSt14get_unexpectedv
                0x00000000040241cc       0x1c c:/intelfpga_lite/18.1/nios2eds/bin/gnu/h-x86_64-mingw32/bin/../lib/gcc/nios2-elf/5.3.0/../../../../../H-x86_64-mingw32/nios2-elf/lib/pg\libstdc++.a(eh_terminate.o)
                0x00000000040241cc                std::get_unexpected()
 .text          0x00000000040241e8        0x0 c:/intelfpga_lite/18.1/nios2eds/bin/gnu/h-x86_64-mingw32/bin/../lib/gcc/nios2-elf/5.3.0/../../../../../H-x86_64-mingw32/nios2-elf/lib/pg\libstdc++.a(eh_unex_handler.o)
 .text          0x00000000040241e8        0x0 c:/intelfpga_lite/18.1/nios2eds/bin/gnu/h-x86_64-mingw32/bin/../lib/gcc/nios2-elf/5.3.0/../../../../../H-x86_64-mingw32/nios2-elf/lib/pg\libstdc++.a(eh_alloc.o)
 .text._ZN12_GLOBAL__N_14pool4freeEPv.constprop.4
                0x00000000040241e8       0xc4 c:/intelfpga_lite/18.1/nios2eds/bin/gnu/h-x86_64-mingw32/bin/../lib/gcc/nios2-elf/5.3.0/../../../../../H-x86_64-mingw32/nios2-elf/lib/pg\libstdc++.a(eh_alloc.o)
 .text._ZN12_GLOBAL__N_14pool8allocateEj.constprop.5
                0x00000000040242ac       0xb0 c:/intelfpga_lite/18.1/nios2eds/bin/gnu/h-x86_64-mingw32/bin/../lib/gcc/nios2-elf/5.3.0/../../../../../H-x86_64-mingw32/nios2-elf/lib/pg\libstdc++.a(eh_alloc.o)
 .text.__cxa_allocate_exception
                0x000000000402435c       0x6c c:/intelfpga_lite/18.1/nios2eds/bin/gnu/h-x86_64-mingw32/bin/../lib/gcc/nios2-elf/5.3.0/../../../../../H-x86_64-mingw32/nios2-elf/lib/pg\libstdc++.a(eh_alloc.o)
                0x000000000402435c                __cxa_allocate_exception
 .text.__cxa_free_exception
                0x00000000040243c8       0x34 c:/intelfpga_lite/18.1/nios2eds/bin/gnu/h-x86_64-mingw32/bin/../lib/gcc/nios2-elf/5.3.0/../../../../../H-x86_64-mingw32/nios2-elf/lib/pg\libstdc++.a(eh_alloc.o)
                0x00000000040243c8                __cxa_free_exception
 .text.__cxa_allocate_dependent_exception
                0x00000000040243fc       0x60 c:/intelfpga_lite/18.1/nios2eds/bin/gnu/h-x86_64-mingw32/bin/../lib/gcc/nios2-elf/5.3.0/../../../../../H-x86_64-mingw32/nios2-elf/lib/pg\libstdc++.a(eh_alloc.o)
                0x00000000040243fc                __cxa_allocate_dependent_exception
 .text.__cxa_free_dependent_exception
                0x000000000402445c       0x38 c:/intelfpga_lite/18.1/nios2eds/bin/gnu/h-x86_64-mingw32/bin/../lib/gcc/nios2-elf/5.3.0/../../../../../H-x86_64-mingw32/nios2-elf/lib/pg\libstdc++.a(eh_alloc.o)
                0x000000000402445c                __cxa_free_dependent_exception
 .text.startup._GLOBAL__sub_I___cxa_allocate_exception
                0x0000000004024494       0x68 c:/intelfpga_lite/18.1/nios2eds/bin/gnu/h-x86_64-mingw32/bin/../lib/gcc/nios2-elf/5.3.0/../../../../../H-x86_64-mingw32/nios2-elf/lib/pg\libstdc++.a(eh_alloc.o)
 .text          0x00000000040244fc        0x0 c:/intelfpga_lite/18.1/nios2eds/bin/gnu/h-x86_64-mingw32/bin/../lib/gcc/nios2-elf/5.3.0/../../../../../H-x86_64-mingw32/nios2-elf/lib/pg\libstdc++.a(eh_call.o)
 .text.__cxa_call_terminate
                0x00000000040244fc       0x64 c:/intelfpga_lite/18.1/nios2eds/bin/gnu/h-x86_64-mingw32/bin/../lib/gcc/nios2-elf/5.3.0/../../../../../H-x86_64-mingw32/nios2-elf/lib/pg\libstdc++.a(eh_call.o)
                0x00000000040244fc                __cxa_call_terminate
 .text          0x0000000004024560        0x0 c:/intelfpga_lite/18.1/nios2eds/bin/gnu/h-x86_64-mingw32/bin/../lib/gcc/nios2-elf/5.3.0/../../../../../H-x86_64-mingw32/nios2-elf/lib/pg\libstdc++.a(eh_globals.o)
 .text.__cxa_get_globals_fast
                0x0000000004024560       0x18 c:/intelfpga_lite/18.1/nios2eds/bin/gnu/h-x86_64-mingw32/bin/../lib/gcc/nios2-elf/5.3.0/../../../../../H-x86_64-mingw32/nios2-elf/lib/pg\libstdc++.a(eh_globals.o)
                0x0000000004024560                __cxa_get_globals_fast
 .text.__cxa_get_globals
                0x0000000004024578       0x18 c:/intelfpga_lite/18.1/nios2eds/bin/gnu/h-x86_64-mingw32/bin/../lib/gcc/nios2-elf/5.3.0/../../../../../H-x86_64-mingw32/nios2-elf/lib/pg\libstdc++.a(eh_globals.o)
                0x0000000004024578                __cxa_get_globals
 .text          0x0000000004024590        0x0 c:/intelfpga_lite/18.1/nios2eds/bin/gnu/h-x86_64-mingw32/bin/../lib/gcc/nios2-elf/5.3.0/../../../../../H-x86_64-mingw32/nios2-elf/lib/pg\libstdc++.a(si_class_type_info.o)
 .text._ZN10__cxxabiv120__si_class_type_infoD2Ev
                0x0000000004024590       0x1c c:/intelfpga_lite/18.1/nios2eds/bin/gnu/h-x86_64-mingw32/bin/../lib/gcc/nios2-elf/5.3.0/../../../../../H-x86_64-mingw32/nios2-elf/lib/pg\libstdc++.a(si_class_type_info.o)
                0x0000000004024590                __cxxabiv1::__si_class_type_info::~__si_class_type_info()
                0x0000000004024590                __cxxabiv1::__si_class_type_info::~__si_class_type_info()
 .text._ZN10__cxxabiv120__si_class_type_infoD0Ev
                0x00000000040245ac       0x40 c:/intelfpga_lite/18.1/nios2eds/bin/gnu/h-x86_64-mingw32/bin/../lib/gcc/nios2-elf/5.3.0/../../../../../H-x86_64-mingw32/nios2-elf/lib/pg\libstdc++.a(si_class_type_info.o)
                0x00000000040245ac                __cxxabiv1::__si_class_type_info::~__si_class_type_info()
 .text._ZNK10__cxxabiv120__si_class_type_info12__do_dyncastEiNS_17__class_type_info10__sub_kindEPKS1_PKvS4_S6_RNS1_16__dyncast_resultE
                0x00000000040245ec      0x16c c:/intelfpga_lite/18.1/nios2eds/bin/gnu/h-x86_64-mingw32/bin/../lib/gcc/nios2-elf/5.3.0/../../../../../H-x86_64-mingw32/nios2-elf/lib/pg\libstdc++.a(si_class_type_info.o)
                0x00000000040245ec                __cxxabiv1::__si_class_type_info::__do_dyncast(int, __cxxabiv1::__class_type_info::__sub_kind, __cxxabiv1::__class_type_info const*, void const*, __cxxabiv1::__class_type_info const*, void const*, __cxxabiv1::__class_type_info::__dyncast_result&) const
 .text._ZNK10__cxxabiv120__si_class_type_info20__do_find_public_srcEiPKvPKNS_17__class_type_infoES2_
                0x0000000004024758       0xa8 c:/intelfpga_lite/18.1/nios2eds/bin/gnu/h-x86_64-mingw32/bin/../lib/gcc/nios2-elf/5.3.0/../../../../../H-x86_64-mingw32/nios2-elf/lib/pg\libstdc++.a(si_class_type_info.o)
                0x0000000004024758                __cxxabiv1::__si_class_type_info::__do_find_public_src(int, void const*, __cxxabiv1::__class_type_info const*, void const*) const
 .text._ZNK10__cxxabiv120__si_class_type_info11__do_upcastEPKNS_17__class_type_infoEPKvRNS1_15__upcast_resultE
                0x0000000004024800       0x90 c:/intelfpga_lite/18.1/nios2eds/bin/gnu/h-x86_64-mingw32/bin/../lib/gcc/nios2-elf/5.3.0/../../../../../H-x86_64-mingw32/nios2-elf/lib/pg\libstdc++.a(si_class_type_info.o)
                0x0000000004024800                __cxxabiv1::__si_class_type_info::__do_upcast(__cxxabiv1::__class_type_info const*, void const*, __cxxabiv1::__class_type_info::__upcast_result&) const
 .text          0x0000000004024890        0x0 c:/intelfpga_lite/18.1/nios2eds/bin/gnu/h-x86_64-mingw32/bin/../lib/gcc/nios2-elf/5.3.0/../../../../../H-x86_64-mingw32/nios2-elf/lib/pg\libstdc++.a(eh_exception.o)
 .text._ZNSt9exceptionD2Ev
                0x0000000004024890       0x10 c:/intelfpga_lite/18.1/nios2eds/bin/gnu/h-x86_64-mingw32/bin/../lib/gcc/nios2-elf/5.3.0/../../../../../H-x86_64-mingw32/nios2-elf/lib/pg\libstdc++.a(eh_exception.o)
                0x0000000004024890                std::exception::~exception()
                0x0000000004024890                std::exception::~exception()
 .text._ZNSt13bad_exceptionD2Ev
                0x00000000040248a0       0x10 c:/intelfpga_lite/18.1/nios2eds/bin/gnu/h-x86_64-mingw32/bin/../lib/gcc/nios2-elf/5.3.0/../../../../../H-x86_64-mingw32/nios2-elf/lib/pg\libstdc++.a(eh_exception.o)
                0x00000000040248a0                std::bad_exception::~bad_exception()
                0x00000000040248a0                std::bad_exception::~bad_exception()
 .text._ZNKSt9exception4whatEv
                0x00000000040248b0       0x18 c:/intelfpga_lite/18.1/nios2eds/bin/gnu/h-x86_64-mingw32/bin/../lib/gcc/nios2-elf/5.3.0/../../../../../H-x86_64-mingw32/nios2-elf/lib/pg\libstdc++.a(eh_exception.o)
                0x00000000040248b0                std::exception::what() const
 .text._ZNKSt13bad_exception4whatEv
                0x00000000040248c8       0x18 c:/intelfpga_lite/18.1/nios2eds/bin/gnu/h-x86_64-mingw32/bin/../lib/gcc/nios2-elf/5.3.0/../../../../../H-x86_64-mingw32/nios2-elf/lib/pg\libstdc++.a(eh_exception.o)
                0x00000000040248c8                std::bad_exception::what() const
 .text._ZNSt9exceptionD0Ev
                0x00000000040248e0       0x10 c:/intelfpga_lite/18.1/nios2eds/bin/gnu/h-x86_64-mingw32/bin/../lib/gcc/nios2-elf/5.3.0/../../../../../H-x86_64-mingw32/nios2-elf/lib/pg\libstdc++.a(eh_exception.o)
                0x00000000040248e0                std::exception::~exception()
 .text._ZNSt13bad_exceptionD0Ev
                0x00000000040248f0       0x10 c:/intelfpga_lite/18.1/nios2eds/bin/gnu/h-x86_64-mingw32/bin/../lib/gcc/nios2-elf/5.3.0/../../../../../H-x86_64-mingw32/nios2-elf/lib/pg\libstdc++.a(eh_exception.o)
                0x00000000040248f0                std::bad_exception::~bad_exception()
 .text._ZN10__cxxabiv115__forced_unwindD2Ev
                0x0000000004024900       0x10 c:/intelfpga_lite/18.1/nios2eds/bin/gnu/h-x86_64-mingw32/bin/../lib/gcc/nios2-elf/5.3.0/../../../../../H-x86_64-mingw32/nios2-elf/lib/pg\libstdc++.a(eh_exception.o)
                0x0000000004024900                __cxxabiv1::__forced_unwind::~__forced_unwind()
                0x0000000004024900                __cxxabiv1::__forced_unwind::~__forced_unwind()
 .text._ZN10__cxxabiv115__forced_unwindD0Ev
                0x0000000004024910       0x10 c:/intelfpga_lite/18.1/nios2eds/bin/gnu/h-x86_64-mingw32/bin/../lib/gcc/nios2-elf/5.3.0/../../../../../H-x86_64-mingw32/nios2-elf/lib/pg\libstdc++.a(eh_exception.o)
                0x0000000004024910                __cxxabiv1::__forced_unwind::~__forced_unwind()
 .text._ZN10__cxxabiv119__foreign_exceptionD2Ev
                0x0000000004024920       0x10 c:/intelfpga_lite/18.1/nios2eds/bin/gnu/h-x86_64-mingw32/bin/../lib/gcc/nios2-elf/5.3.0/../../../../../H-x86_64-mingw32/nios2-elf/lib/pg\libstdc++.a(eh_exception.o)
                0x0000000004024920                __cxxabiv1::__foreign_exception::~__foreign_exception()
                0x0000000004024920                __cxxabiv1::__foreign_exception::~__foreign_exception()
 .text._ZN10__cxxabiv119__foreign_exceptionD0Ev
                0x0000000004024930       0x10 c:/intelfpga_lite/18.1/nios2eds/bin/gnu/h-x86_64-mingw32/bin/../lib/gcc/nios2-elf/5.3.0/../../../../../H-x86_64-mingw32/nios2-elf/lib/pg\libstdc++.a(eh_exception.o)
                0x0000000004024930                __cxxabiv1::__foreign_exception::~__foreign_exception()
 .text          0x0000000004024940        0x0 c:/intelfpga_lite/18.1/nios2eds/bin/gnu/h-x86_64-mingw32/bin/../lib/gcc/nios2-elf/5.3.0/../../../../../H-x86_64-mingw32/nios2-elf/lib/pg\libstdc++.a(eh_term_handler.o)
 .text          0x0000000004024940        0x0 c:/intelfpga_lite/18.1/nios2eds/bin/gnu/h-x86_64-mingw32/bin/../lib/gcc/nios2-elf/5.3.0/../../../../../H-x86_64-mingw32/nios2-elf/lib/pg\libstdc++.a(tinfo.o)
 .text._ZNSt9type_infoD2Ev
                0x0000000004024940       0x10 c:/intelfpga_lite/18.1/nios2eds/bin/gnu/h-x86_64-mingw32/bin/../lib/gcc/nios2-elf/5.3.0/../../../../../H-x86_64-mingw32/nios2-elf/lib/pg\libstdc++.a(tinfo.o)
                0x0000000004024940                std::type_info::~type_info()
                0x0000000004024940                std::type_info::~type_info()
 .text._ZNKSt9type_info15__is_function_pEv
                0x0000000004024950       0x14 c:/intelfpga_lite/18.1/nios2eds/bin/gnu/h-x86_64-mingw32/bin/../lib/gcc/nios2-elf/5.3.0/../../../../../H-x86_64-mingw32/nios2-elf/lib/pg\libstdc++.a(tinfo.o)
                0x0000000004024950                std::type_info::__is_pointer_p() const
                0x0000000004024950                std::type_info::__is_function_p() const
 .text._ZNKSt9type_info11__do_upcastEPKN10__cxxabiv117__class_type_infoEPPv
                0x0000000004024964       0x14 c:/intelfpga_lite/18.1/nios2eds/bin/gnu/h-x86_64-mingw32/bin/../lib/gcc/nios2-elf/5.3.0/../../../../../H-x86_64-mingw32/nios2-elf/lib/pg\libstdc++.a(tinfo.o)
                0x0000000004024964                std::type_info::__do_upcast(__cxxabiv1::__class_type_info const*, void**) const
 .text._ZNSt9type_infoD0Ev
                0x0000000004024978       0x10 c:/intelfpga_lite/18.1/nios2eds/bin/gnu/h-x86_64-mingw32/bin/../lib/gcc/nios2-elf/5.3.0/../../../../../H-x86_64-mingw32/nios2-elf/lib/pg\libstdc++.a(tinfo.o)
                0x0000000004024978                std::type_info::~type_info()
 .text._ZNKSt9type_info10__do_catchEPKS_PPvj
                0x0000000004024988       0x50 c:/intelfpga_lite/18.1/nios2eds/bin/gnu/h-x86_64-mingw32/bin/../lib/gcc/nios2-elf/5.3.0/../../../../../H-x86_64-mingw32/nios2-elf/lib/pg\libstdc++.a(tinfo.o)
                0x0000000004024988                std::type_info::__do_catch(std::type_info const*, void**, unsigned int) const
 .text          0x00000000040249d8        0x0 c:/intelfpga_lite/18.1/nios2eds/bin/gnu/h-x86_64-mingw32/bin/../lib/gcc/nios2-elf/5.3.0/../../../../../H-x86_64-mingw32/nios2-elf/lib/pg\libstdc++.a(pure.o)
 .text.__cxa_pure_virtual
                0x00000000040249d8       0x2c c:/intelfpga_lite/18.1/nios2eds/bin/gnu/h-x86_64-mingw32/bin/../lib/gcc/nios2-elf/5.3.0/../../../../../H-x86_64-mingw32/nios2-elf/lib/pg\libstdc++.a(pure.o)
                0x00000000040249d8                __cxa_pure_virtual
 .text.__cxa_deleted_virtual
                0x0000000004024a04       0x2c c:/intelfpga_lite/18.1/nios2eds/bin/gnu/h-x86_64-mingw32/bin/../lib/gcc/nios2-elf/5.3.0/../../../../../H-x86_64-mingw32/nios2-elf/lib/pg\libstdc++.a(pure.o)
                0x0000000004024a04                __cxa_deleted_virtual
 .text          0x0000000004024a30       0x6c c:/intelfpga_lite/18.1/nios2eds/bin/gnu/h-x86_64-mingw32/bin/../lib/gcc/nios2-elf/5.3.0/pg\libgcc.a(_fixunssfsi.o)
                0x0000000004024a30                __fixunssfsi
 .text          0x0000000004024a9c      0x1e0 c:/intelfpga_lite/18.1/nios2eds/bin/gnu/h-x86_64-mingw32/bin/../lib/gcc/nios2-elf/5.3.0/pg\libgcc.a(lib2-divmod.o)
                0x0000000004024a9c                __divsi3
                0x0000000004024b2c                __modsi3
                0x0000000004024bac                __udivsi3
                0x0000000004024c1c                __umodsi3
 .text          0x0000000004024c7c      0x4d4 c:/intelfpga_lite/18.1/nios2eds/bin/gnu/h-x86_64-mingw32/bin/../lib/gcc/nios2-elf/5.3.0/pg\libgcc.a(addsf3.o)
                0x0000000004024c7c                __addsf3
 .text          0x0000000004025150      0x44c c:/intelfpga_lite/18.1/nios2eds/bin/gnu/h-x86_64-mingw32/bin/../lib/gcc/nios2-elf/5.3.0/pg\libgcc.a(divsf3.o)
                0x0000000004025150                __divsf3
 .text          0x000000000402559c       0x80 c:/intelfpga_lite/18.1/nios2eds/bin/gnu/h-x86_64-mingw32/bin/../lib/gcc/nios2-elf/5.3.0/pg\libgcc.a(eqsf2.o)
                0x000000000402559c                __eqsf2
                0x000000000402559c                __nesf2
 .text          0x000000000402561c       0xc4 c:/intelfpga_lite/18.1/nios2eds/bin/gnu/h-x86_64-mingw32/bin/../lib/gcc/nios2-elf/5.3.0/pg\libgcc.a(gesf2.o)
                0x000000000402561c                __gesf2
                0x000000000402561c                __gtsf2
 .text          0x00000000040256e0      0x408 c:/intelfpga_lite/18.1/nios2eds/bin/gnu/h-x86_64-mingw32/bin/../lib/gcc/nios2-elf/5.3.0/pg\libgcc.a(mulsf3.o)
                0x00000000040256e0                __mulsf3
 .text          0x0000000004025ae8      0x4f0 c:/intelfpga_lite/18.1/nios2eds/bin/gnu/h-x86_64-mingw32/bin/../lib/gcc/nios2-elf/5.3.0/pg\libgcc.a(subsf3.o)
                0x0000000004025ae8                __subsf3
 .text          0x0000000004025fd8       0x7c c:/intelfpga_lite/18.1/nios2eds/bin/gnu/h-x86_64-mingw32/bin/../lib/gcc/nios2-elf/5.3.0/pg\libgcc.a(fixsfsi.o)
                0x0000000004025fd8                __fixsfsi
 .text          0x0000000004026054      0x130 c:/intelfpga_lite/18.1/nios2eds/bin/gnu/h-x86_64-mingw32/bin/../lib/gcc/nios2-elf/5.3.0/pg\libgcc.a(floatsisf.o)
                0x0000000004026054                __floatsisf
 .text          0x0000000004026184       0xfc c:/intelfpga_lite/18.1/nios2eds/bin/gnu/h-x86_64-mingw32/bin/../lib/gcc/nios2-elf/5.3.0/pg\libgcc.a(floatunsisf.o)
                0x0000000004026184                __floatunsisf
 .text          0x0000000004026280      0x8f4 c:/intelfpga_lite/18.1/nios2eds/bin/gnu/h-x86_64-mingw32/bin/../lib/gcc/nios2-elf/5.3.0/pg\libgcc.a(divdf3.o)
                0x0000000004026280                __divdf3
 .text          0x0000000004026b74       0xe8 c:/intelfpga_lite/18.1/nios2eds/bin/gnu/h-x86_64-mingw32/bin/../lib/gcc/nios2-elf/5.3.0/pg\libgcc.a(floatsidf.o)
                0x0000000004026b74                __floatsidf
 .text          0x0000000004026c5c      0x11c c:/intelfpga_lite/18.1/nios2eds/bin/gnu/h-x86_64-mingw32/bin/../lib/gcc/nios2-elf/5.3.0/pg\libgcc.a(extendsfdf2.o)
                0x0000000004026c5c                __extendsfdf2
 .text          0x0000000004026d78      0x1b4 c:/intelfpga_lite/18.1/nios2eds/bin/gnu/h-x86_64-mingw32/bin/../lib/gcc/nios2-elf/5.3.0/pg\libgcc.a(truncdfsf2.o)
                0x0000000004026d78                __truncdfsf2
 .text          0x0000000004026f2c      0x628 c:/intelfpga_lite/18.1/nios2eds/bin/gnu/h-x86_64-mingw32/bin/../lib/gcc/nios2-elf/5.3.0/pg\libgcc.a(unwind-sjlj.o)
                0x0000000004027158                _Unwind_SjLj_Register
                0x000000000402717c                _Unwind_SjLj_Unregister
                0x000000000402719c                _Unwind_GetGR
                0x00000000040271c4                _Unwind_GetCFA
                0x00000000040271e8                _Unwind_SetGR
                0x0000000004027210                _Unwind_GetIP
                0x000000000402722c                _Unwind_GetIPInfo
                0x0000000004027258                _Unwind_SetIP
                0x0000000004027274                _Unwind_GetLanguageSpecificData
                0x000000000402728c                _Unwind_GetRegionStart
                0x00000000040272a0                _Unwind_FindEnclosingFunction
                0x00000000040272b4                _Unwind_GetDataRelBase
                0x00000000040272c8                _Unwind_GetTextRelBase
                0x00000000040272dc                _Unwind_SjLj_RaiseException
                0x00000000040273b8                _Unwind_SjLj_ForcedUnwind
                0x0000000004027408                _Unwind_SjLj_Resume
                0x0000000004027458                _Unwind_SjLj_Resume_or_Rethrow
                0x00000000040274b0                _Unwind_DeleteException
                0x00000000040274d4                _Unwind_Backtrace
 .text          0x0000000004027554       0x70 c:/intelfpga_lite/18.1/nios2eds/bin/gnu/h-x86_64-mingw32/bin/../lib/gcc/nios2-elf/5.3.0/pg\libgcc.a(_clzsi2.o)
                0x0000000004027554                __clzsi2
 .text          0x00000000040275c4        0x0 c:/intelfpga_lite/18.1/nios2eds/bin/gnu/h-x86_64-mingw32/bin/../lib/gcc/nios2-elf/5.3.0/pg\libgcc.a(_clz.o)
 .text          0x00000000040275c4        0x0 c:/intelfpga_lite/18.1/nios2eds/bin/gnu/h-x86_64-mingw32/bin/../lib/gcc/nios2-elf/5.3.0/../../../../../H-x86_64-mingw32/nios2-elf/lib/pg\libc.a(lib_a-abort.o)
 .text.abort    0x00000000040275c4       0x24 c:/intelfpga_lite/18.1/nios2eds/bin/gnu/h-x86_64-mingw32/bin/../lib/gcc/nios2-elf/5.3.0/../../../../../H-x86_64-mingw32/nios2-elf/lib/pg\libc.a(lib_a-abort.o)
                0x00000000040275c4                abort
 .text          0x00000000040275e8        0x0 c:/intelfpga_lite/18.1/nios2eds/bin/gnu/h-x86_64-mingw32/bin/../lib/gcc/nios2-elf/5.3.0/../../../../../H-x86_64-mingw32/nios2-elf/lib/pg\libc.a(lib_a-malloc.o)
 .text.malloc   0x00000000040275e8       0x20 c:/intelfpga_lite/18.1/nios2eds/bin/gnu/h-x86_64-mingw32/bin/../lib/gcc/nios2-elf/5.3.0/../../../../../H-x86_64-mingw32/nios2-elf/lib/pg\libc.a(lib_a-malloc.o)
                0x00000000040275e8                malloc
 .text.free     0x0000000004027608       0x20 c:/intelfpga_lite/18.1/nios2eds/bin/gnu/h-x86_64-mingw32/bin/../lib/gcc/nios2-elf/5.3.0/../../../../../H-x86_64-mingw32/nios2-elf/lib/pg\libc.a(lib_a-malloc.o)
                0x0000000004027608                free
 .text          0x0000000004027628        0x0 c:/intelfpga_lite/18.1/nios2eds/bin/gnu/h-x86_64-mingw32/bin/../lib/gcc/nios2-elf/5.3.0/../../../../../H-x86_64-mingw32/nios2-elf/lib/pg\libc.a(lib_a-mallocr.o)
 .text._malloc_r
                0x0000000004027628      0x818 c:/intelfpga_lite/18.1/nios2eds/bin/gnu/h-x86_64-mingw32/bin/../lib/gcc/nios2-elf/5.3.0/../../../../../H-x86_64-mingw32/nios2-elf/lib/pg\libc.a(lib_a-mallocr.o)
                0x0000000004027628                _malloc_r
 .text          0x0000000004027e40        0x0 c:/intelfpga_lite/18.1/nios2eds/bin/gnu/h-x86_64-mingw32/bin/../lib/gcc/nios2-elf/5.3.0/../../../../../H-x86_64-mingw32/nios2-elf/lib/pg\libc.a(lib_a-memset.o)
 .text.memset   0x0000000004027e40      0x130 c:/intelfpga_lite/18.1/nios2eds/bin/gnu/h-x86_64-mingw32/bin/../lib/gcc/nios2-elf/5.3.0/../../../../../H-x86_64-mingw32/nios2-elf/lib/pg\libc.a(lib_a-memset.o)
                0x0000000004027e40                memset
 .text          0x0000000004027f70        0x0 c:/intelfpga_lite/18.1/nios2eds/bin/gnu/h-x86_64-mingw32/bin/../lib/gcc/nios2-elf/5.3.0/../../../../../H-x86_64-mingw32/nios2-elf/lib/pg\libc.a(lib_a-printf.o)
 .text._printf_r
                0x0000000004027f70       0x3c c:/intelfpga_lite/18.1/nios2eds/bin/gnu/h-x86_64-mingw32/bin/../lib/gcc/nios2-elf/5.3.0/../../../../../H-x86_64-mingw32/nios2-elf/lib/pg\libc.a(lib_a-printf.o)
                0x0000000004027f70                _printf_r
 .text.printf   0x0000000004027fac       0x48 c:/intelfpga_lite/18.1/nios2eds/bin/gnu/h-x86_64-mingw32/bin/../lib/gcc/nios2-elf/5.3.0/../../../../../H-x86_64-mingw32/nios2-elf/lib/pg\libc.a(lib_a-printf.o)
                0x0000000004027fac                printf
 .text          0x0000000004027ff4        0x0 c:/intelfpga_lite/18.1/nios2eds/bin/gnu/h-x86_64-mingw32/bin/../lib/gcc/nios2-elf/5.3.0/../../../../../H-x86_64-mingw32/nios2-elf/lib/pg\libc.a(lib_a-putchar.o)
 .text._putchar_r
                0x0000000004027ff4       0x14 c:/intelfpga_lite/18.1/nios2eds/bin/gnu/h-x86_64-mingw32/bin/../lib/gcc/nios2-elf/5.3.0/../../../../../H-x86_64-mingw32/nios2-elf/lib/pg\libc.a(lib_a-putchar.o)
                0x0000000004027ff4                _putchar_r
 .text.putchar  0x0000000004028008       0x24 c:/intelfpga_lite/18.1/nios2eds/bin/gnu/h-x86_64-mingw32/bin/../lib/gcc/nios2-elf/5.3.0/../../../../../H-x86_64-mingw32/nios2-elf/lib/pg\libc.a(lib_a-putchar.o)
                0x0000000004028008                putchar
 .text          0x000000000402802c        0x0 c:/intelfpga_lite/18.1/nios2eds/bin/gnu/h-x86_64-mingw32/bin/../lib/gcc/nios2-elf/5.3.0/../../../../../H-x86_64-mingw32/nios2-elf/lib/pg\libc.a(lib_a-puts.o)
 .text._puts_r  0x000000000402802c       0xcc c:/intelfpga_lite/18.1/nios2eds/bin/gnu/h-x86_64-mingw32/bin/../lib/gcc/nios2-elf/5.3.0/../../../../../H-x86_64-mingw32/nios2-elf/lib/pg\libc.a(lib_a-puts.o)
                0x000000000402802c                _puts_r
 .text.puts     0x00000000040280f8       0x20 c:/intelfpga_lite/18.1/nios2eds/bin/gnu/h-x86_64-mingw32/bin/../lib/gcc/nios2-elf/5.3.0/../../../../../H-x86_64-mingw32/nios2-elf/lib/pg\libc.a(lib_a-puts.o)
                0x00000000040280f8                puts
 .text          0x0000000004028118        0x0 c:/intelfpga_lite/18.1/nios2eds/bin/gnu/h-x86_64-mingw32/bin/../lib/gcc/nios2-elf/5.3.0/../../../../../H-x86_64-mingw32/nios2-elf/lib/pg\libc.a(lib_a-rand.o)
 .text.srand    0x0000000004028118       0x24 c:/intelfpga_lite/18.1/nios2eds/bin/gnu/h-x86_64-mingw32/bin/../lib/gcc/nios2-elf/5.3.0/../../../../../H-x86_64-mingw32/nios2-elf/lib/pg\libc.a(lib_a-rand.o)
                0x0000000004028118                srand
 .text.rand     0x000000000402813c       0x70 c:/intelfpga_lite/18.1/nios2eds/bin/gnu/h-x86_64-mingw32/bin/../lib/gcc/nios2-elf/5.3.0/../../../../../H-x86_64-mingw32/nios2-elf/lib/pg\libc.a(lib_a-rand.o)
                0x000000000402813c                rand
 .text          0x00000000040281ac        0x0 c:/intelfpga_lite/18.1/nios2eds/bin/gnu/h-x86_64-mingw32/bin/../lib/gcc/nios2-elf/5.3.0/../../../../../H-x86_64-mingw32/nios2-elf/lib/pg\libc.a(lib_a-sbrkr.o)
 .text._sbrk_r  0x00000000040281ac       0x60 c:/intelfpga_lite/18.1/nios2eds/bin/gnu/h-x86_64-mingw32/bin/../lib/gcc/nios2-elf/5.3.0/../../../../../H-x86_64-mingw32/nios2-elf/lib/pg\libc.a(lib_a-sbrkr.o)
                0x00000000040281ac                _sbrk_r
 .text          0x000000000402820c        0x0 c:/intelfpga_lite/18.1/nios2eds/bin/gnu/h-x86_64-mingw32/bin/../lib/gcc/nios2-elf/5.3.0/../../../../../H-x86_64-mingw32/nios2-elf/lib/pg\libc.a(lib_a-signal.o)
 .text._init_signal_r
                0x000000000402820c       0x78 c:/intelfpga_lite/18.1/nios2eds/bin/gnu/h-x86_64-mingw32/bin/../lib/gcc/nios2-elf/5.3.0/../../../../../H-x86_64-mingw32/nios2-elf/lib/pg\libc.a(lib_a-signal.o)
                0x000000000402820c                _init_signal_r
 .text._signal_r
                0x0000000004028284       0x90 c:/intelfpga_lite/18.1/nios2eds/bin/gnu/h-x86_64-mingw32/bin/../lib/gcc/nios2-elf/5.3.0/../../../../../H-x86_64-mingw32/nios2-elf/lib/pg\libc.a(lib_a-signal.o)
                0x0000000004028284                _signal_r
 .text._raise_r
                0x0000000004028314       0xc8 c:/intelfpga_lite/18.1/nios2eds/bin/gnu/h-x86_64-mingw32/bin/../lib/gcc/nios2-elf/5.3.0/../../../../../H-x86_64-mingw32/nios2-elf/lib/pg\libc.a(lib_a-signal.o)
                0x0000000004028314                _raise_r
 .text.__sigtramp_r
                0x00000000040283dc       0xb4 c:/intelfpga_lite/18.1/nios2eds/bin/gnu/h-x86_64-mingw32/bin/../lib/gcc/nios2-elf/5.3.0/../../../../../H-x86_64-mingw32/nios2-elf/lib/pg\libc.a(lib_a-signal.o)
                0x00000000040283dc                __sigtramp_r
 .text.raise    0x0000000004028490       0x20 c:/intelfpga_lite/18.1/nios2eds/bin/gnu/h-x86_64-mingw32/bin/../lib/gcc/nios2-elf/5.3.0/../../../../../H-x86_64-mingw32/nios2-elf/lib/pg\libc.a(lib_a-signal.o)
                0x0000000004028490                raise
 .text.signal   0x00000000040284b0       0x24 c:/intelfpga_lite/18.1/nios2eds/bin/gnu/h-x86_64-mingw32/bin/../lib/gcc/nios2-elf/5.3.0/../../../../../H-x86_64-mingw32/nios2-elf/lib/pg\libc.a(lib_a-signal.o)
                0x00000000040284b0                signal
 .text._init_signal
                0x00000000040284d4       0x1c c:/intelfpga_lite/18.1/nios2eds/bin/gnu/h-x86_64-mingw32/bin/../lib/gcc/nios2-elf/5.3.0/../../../../../H-x86_64-mingw32/nios2-elf/lib/pg\libc.a(lib_a-signal.o)
                0x00000000040284d4                _init_signal
 .text.__sigtramp
                0x00000000040284f0       0x20 c:/intelfpga_lite/18.1/nios2eds/bin/gnu/h-x86_64-mingw32/bin/../lib/gcc/nios2-elf/5.3.0/../../../../../H-x86_64-mingw32/nios2-elf/lib/pg\libc.a(lib_a-signal.o)
                0x00000000040284f0                __sigtramp
 .text          0x0000000004028510        0x0 c:/intelfpga_lite/18.1/nios2eds/bin/gnu/h-x86_64-mingw32/bin/../lib/gcc/nios2-elf/5.3.0/../../../../../H-x86_64-mingw32/nios2-elf/lib/pg\libc.a(lib_a-signalr.o)
 .text._kill_r  0x0000000004028510       0x68 c:/intelfpga_lite/18.1/nios2eds/bin/gnu/h-x86_64-mingw32/bin/../lib/gcc/nios2-elf/5.3.0/../../../../../H-x86_64-mingw32/nios2-elf/lib/pg\libc.a(lib_a-signalr.o)
                0x0000000004028510                _kill_r
 .text._getpid_r
                0x0000000004028578       0x10 c:/intelfpga_lite/18.1/nios2eds/bin/gnu/h-x86_64-mingw32/bin/../lib/gcc/nios2-elf/5.3.0/../../../../../H-x86_64-mingw32/nios2-elf/lib/pg\libc.a(lib_a-signalr.o)
                0x0000000004028578                _getpid_r
 .text          0x0000000004028588        0x0 c:/intelfpga_lite/18.1/nios2eds/bin/gnu/h-x86_64-mingw32/bin/../lib/gcc/nios2-elf/5.3.0/../../../../../H-x86_64-mingw32/nios2-elf/lib/pg\libc.a(lib_a-strcmp.o)
 .text.strcmp   0x0000000004028588       0xe0 c:/intelfpga_lite/18.1/nios2eds/bin/gnu/h-x86_64-mingw32/bin/../lib/gcc/nios2-elf/5.3.0/../../../../../H-x86_64-mingw32/nios2-elf/lib/pg\libc.a(lib_a-strcmp.o)
                0x0000000004028588                strcmp
 .text          0x0000000004028668        0x0 c:/intelfpga_lite/18.1/nios2eds/bin/gnu/h-x86_64-mingw32/bin/../lib/gcc/nios2-elf/5.3.0/../../../../../H-x86_64-mingw32/nios2-elf/lib/pg\libc.a(lib_a-strlen.o)
 .text.strlen   0x0000000004028668       0xa4 c:/intelfpga_lite/18.1/nios2eds/bin/gnu/h-x86_64-mingw32/bin/../lib/gcc/nios2-elf/5.3.0/../../../../../H-x86_64-mingw32/nios2-elf/lib/pg\libc.a(lib_a-strlen.o)
                0x0000000004028668                strlen
 .text          0x000000000402870c        0x0 c:/intelfpga_lite/18.1/nios2eds/bin/gnu/h-x86_64-mingw32/bin/../lib/gcc/nios2-elf/5.3.0/../../../../../H-x86_64-mingw32/nios2-elf/lib/pg\libc.a(lib_a-vfprintf.o)
 .text.___vfprintf_internal_r
                0x000000000402870c     0x2204 c:/intelfpga_lite/18.1/nios2eds/bin/gnu/h-x86_64-mingw32/bin/../lib/gcc/nios2-elf/5.3.0/../../../../../H-x86_64-mingw32/nios2-elf/lib/pg\libc.a(lib_a-vfprintf.o)
                0x000000000402870c                ___vfprintf_internal_r
 .text.__vfprintf_internal
                0x000000000402a910       0x28 c:/intelfpga_lite/18.1/nios2eds/bin/gnu/h-x86_64-mingw32/bin/../lib/gcc/nios2-elf/5.3.0/../../../../../H-x86_64-mingw32/nios2-elf/lib/pg\libc.a(lib_a-vfprintf.o)
                0x000000000402a910                __vfprintf_internal
 .text.__sbprintf
                0x000000000402a938       0xc8 c:/intelfpga_lite/18.1/nios2eds/bin/gnu/h-x86_64-mingw32/bin/../lib/gcc/nios2-elf/5.3.0/../../../../../H-x86_64-mingw32/nios2-elf/lib/pg\libc.a(lib_a-vfprintf.o)
 .text          0x000000000402aa00        0x0 c:/intelfpga_lite/18.1/nios2eds/bin/gnu/h-x86_64-mingw32/bin/../lib/gcc/nios2-elf/5.3.0/../../../../../H-x86_64-mingw32/nios2-elf/lib/pg\libc.a(lib_a-wsetup.o)
 .text.__swsetup_r
                0x000000000402aa00      0x160 c:/intelfpga_lite/18.1/nios2eds/bin/gnu/h-x86_64-mingw32/bin/../lib/gcc/nios2-elf/5.3.0/../../../../../H-x86_64-mingw32/nios2-elf/lib/pg\libc.a(lib_a-wsetup.o)
                0x000000000402aa00                __swsetup_r
 .text          0x000000000402ab60        0x0 c:/intelfpga_lite/18.1/nios2eds/bin/gnu/h-x86_64-mingw32/bin/../lib/gcc/nios2-elf/5.3.0/../../../../../H-x86_64-mingw32/nios2-elf/lib/pg\libc.a(lib_a-dtoa.o)
 .text.quorem   0x000000000402ab60      0x20c c:/intelfpga_lite/18.1/nios2eds/bin/gnu/h-x86_64-mingw32/bin/../lib/gcc/nios2-elf/5.3.0/../../../../../H-x86_64-mingw32/nios2-elf/lib/pg\libc.a(lib_a-dtoa.o)
 .text._dtoa_r  0x000000000402ad6c     0x1694 c:/intelfpga_lite/18.1/nios2eds/bin/gnu/h-x86_64-mingw32/bin/../lib/gcc/nios2-elf/5.3.0/../../../../../H-x86_64-mingw32/nios2-elf/lib/pg\libc.a(lib_a-dtoa.o)
                0x000000000402ad6c                _dtoa_r
 .text          0x000000000402c400        0x0 c:/intelfpga_lite/18.1/nios2eds/bin/gnu/h-x86_64-mingw32/bin/../lib/gcc/nios2-elf/5.3.0/../../../../../H-x86_64-mingw32/nios2-elf/lib/pg\libc.a(lib_a-fflush.o)
 .text.__sflush_r
                0x000000000402c400      0x228 c:/intelfpga_lite/18.1/nios2eds/bin/gnu/h-x86_64-mingw32/bin/../lib/gcc/nios2-elf/5.3.0/../../../../../H-x86_64-mingw32/nios2-elf/lib/pg\libc.a(lib_a-fflush.o)
                0x000000000402c400                __sflush_r
 .text._fflush_r
                0x000000000402c628       0x68 c:/intelfpga_lite/18.1/nios2eds/bin/gnu/h-x86_64-mingw32/bin/../lib/gcc/nios2-elf/5.3.0/../../../../../H-x86_64-mingw32/nios2-elf/lib/pg\libc.a(lib_a-fflush.o)
                0x000000000402c628                _fflush_r
 .text.fflush   0x000000000402c690       0x3c c:/intelfpga_lite/18.1/nios2eds/bin/gnu/h-x86_64-mingw32/bin/../lib/gcc/nios2-elf/5.3.0/../../../../../H-x86_64-mingw32/nios2-elf/lib/pg\libc.a(lib_a-fflush.o)
                0x000000000402c690                fflush
 .text          0x000000000402c6cc        0x0 c:/intelfpga_lite/18.1/nios2eds/bin/gnu/h-x86_64-mingw32/bin/../lib/gcc/nios2-elf/5.3.0/../../../../../H-x86_64-mingw32/nios2-elf/lib/pg\libc.a(lib_a-findfp.o)
 .text.__fp_unlock
                0x000000000402c6cc       0x14 c:/intelfpga_lite/18.1/nios2eds/bin/gnu/h-x86_64-mingw32/bin/../lib/gcc/nios2-elf/5.3.0/../../../../../H-x86_64-mingw32/nios2-elf/lib/pg\libc.a(lib_a-findfp.o)
 .text._cleanup_r
                0x000000000402c6e0       0x18 c:/intelfpga_lite/18.1/nios2eds/bin/gnu/h-x86_64-mingw32/bin/../lib/gcc/nios2-elf/5.3.0/../../../../../H-x86_64-mingw32/nios2-elf/lib/pg\libc.a(lib_a-findfp.o)
                0x000000000402c6e0                _cleanup_r
 .text.__sinit.part.1
                0x000000000402c6f8      0x1a8 c:/intelfpga_lite/18.1/nios2eds/bin/gnu/h-x86_64-mingw32/bin/../lib/gcc/nios2-elf/5.3.0/../../../../../H-x86_64-mingw32/nios2-elf/lib/pg\libc.a(lib_a-findfp.o)
 .text.__fp_lock
                0x000000000402c8a0       0x14 c:/intelfpga_lite/18.1/nios2eds/bin/gnu/h-x86_64-mingw32/bin/../lib/gcc/nios2-elf/5.3.0/../../../../../H-x86_64-mingw32/nios2-elf/lib/pg\libc.a(lib_a-findfp.o)
 .text.__sfmoreglue
                0x000000000402c8b4       0x74 c:/intelfpga_lite/18.1/nios2eds/bin/gnu/h-x86_64-mingw32/bin/../lib/gcc/nios2-elf/5.3.0/../../../../../H-x86_64-mingw32/nios2-elf/lib/pg\libc.a(lib_a-findfp.o)
                0x000000000402c8b4                __sfmoreglue
 .text.__sfp    0x000000000402c928      0x124 c:/intelfpga_lite/18.1/nios2eds/bin/gnu/h-x86_64-mingw32/bin/../lib/gcc/nios2-elf/5.3.0/../../../../../H-x86_64-mingw32/nios2-elf/lib/pg\libc.a(lib_a-findfp.o)
                0x000000000402c928                __sfp
 .text._cleanup
                0x000000000402ca4c       0x24 c:/intelfpga_lite/18.1/nios2eds/bin/gnu/h-x86_64-mingw32/bin/../lib/gcc/nios2-elf/5.3.0/../../../../../H-x86_64-mingw32/nios2-elf/lib/pg\libc.a(lib_a-findfp.o)
                0x000000000402ca4c                _cleanup
 .text.__sinit  0x000000000402ca70       0x1c c:/intelfpga_lite/18.1/nios2eds/bin/gnu/h-x86_64-mingw32/bin/../lib/gcc/nios2-elf/5.3.0/../../../../../H-x86_64-mingw32/nios2-elf/lib/pg\libc.a(lib_a-findfp.o)
                0x000000000402ca70                __sinit
 .text.__sfp_lock_acquire
                0x000000000402ca8c       0x10 c:/intelfpga_lite/18.1/nios2eds/bin/gnu/h-x86_64-mingw32/bin/../lib/gcc/nios2-elf/5.3.0/../../../../../H-x86_64-mingw32/nios2-elf/lib/pg\libc.a(lib_a-findfp.o)
                0x000000000402ca8c                __sfp_lock_acquire
 .text.__sfp_lock_release
                0x000000000402ca9c       0x10 c:/intelfpga_lite/18.1/nios2eds/bin/gnu/h-x86_64-mingw32/bin/../lib/gcc/nios2-elf/5.3.0/../../../../../H-x86_64-mingw32/nios2-elf/lib/pg\libc.a(lib_a-findfp.o)
                0x000000000402ca9c                __sfp_lock_release
 .text.__sinit_lock_acquire
                0x000000000402caac       0x10 c:/intelfpga_lite/18.1/nios2eds/bin/gnu/h-x86_64-mingw32/bin/../lib/gcc/nios2-elf/5.3.0/../../../../../H-x86_64-mingw32/nios2-elf/lib/pg\libc.a(lib_a-findfp.o)
                0x000000000402caac                __sinit_lock_acquire
 .text.__sinit_lock_release
                0x000000000402cabc       0x10 c:/intelfpga_lite/18.1/nios2eds/bin/gnu/h-x86_64-mingw32/bin/../lib/gcc/nios2-elf/5.3.0/../../../../../H-x86_64-mingw32/nios2-elf/lib/pg\libc.a(lib_a-findfp.o)
                0x000000000402cabc                __sinit_lock_release
 .text.__fp_lock_all
                0x000000000402cacc       0x24 c:/intelfpga_lite/18.1/nios2eds/bin/gnu/h-x86_64-mingw32/bin/../lib/gcc/nios2-elf/5.3.0/../../../../../H-x86_64-mingw32/nios2-elf/lib/pg\libc.a(lib_a-findfp.o)
                0x000000000402cacc                __fp_lock_all
 .text.__fp_unlock_all
                0x000000000402caf0       0x24 c:/intelfpga_lite/18.1/nios2eds/bin/gnu/h-x86_64-mingw32/bin/../lib/gcc/nios2-elf/5.3.0/../../../../../H-x86_64-mingw32/nios2-elf/lib/pg\libc.a(lib_a-findfp.o)
                0x000000000402caf0                __fp_unlock_all
 .text          0x000000000402cb14        0x0 c:/intelfpga_lite/18.1/nios2eds/bin/gnu/h-x86_64-mingw32/bin/../lib/gcc/nios2-elf/5.3.0/../../../../../H-x86_64-mingw32/nios2-elf/lib/pg\libc.a(lib_a-freer.o)
 .text._malloc_trim_r
                0x000000000402cb14      0x130 c:/intelfpga_lite/18.1/nios2eds/bin/gnu/h-x86_64-mingw32/bin/../lib/gcc/nios2-elf/5.3.0/../../../../../H-x86_64-mingw32/nios2-elf/lib/pg\libc.a(lib_a-freer.o)
                0x000000000402cb14                _malloc_trim_r
 .text._free_r  0x000000000402cc44      0x31c c:/intelfpga_lite/18.1/nios2eds/bin/gnu/h-x86_64-mingw32/bin/../lib/gcc/nios2-elf/5.3.0/../../../../../H-x86_64-mingw32/nios2-elf/lib/pg\libc.a(lib_a-freer.o)
                0x000000000402cc44                _free_r
 .text          0x000000000402cf60        0x0 c:/intelfpga_lite/18.1/nios2eds/bin/gnu/h-x86_64-mingw32/bin/../lib/gcc/nios2-elf/5.3.0/../../../../../H-x86_64-mingw32/nios2-elf/lib/pg\libc.a(lib_a-fvwrite.o)
 .text.__sfvwrite_r
                0x000000000402cf60      0x4c8 c:/intelfpga_lite/18.1/nios2eds/bin/gnu/h-x86_64-mingw32/bin/../lib/gcc/nios2-elf/5.3.0/../../../../../H-x86_64-mingw32/nios2-elf/lib/pg\libc.a(lib_a-fvwrite.o)
                0x000000000402cf60                __sfvwrite_r
 .text          0x000000000402d428        0x0 c:/intelfpga_lite/18.1/nios2eds/bin/gnu/h-x86_64-mingw32/bin/../lib/gcc/nios2-elf/5.3.0/../../../../../H-x86_64-mingw32/nios2-elf/lib/pg\libc.a(lib_a-fwalk.o)
 .text._fwalk   0x000000000402d428       0xd0 c:/intelfpga_lite/18.1/nios2eds/bin/gnu/h-x86_64-mingw32/bin/../lib/gcc/nios2-elf/5.3.0/../../../../../H-x86_64-mingw32/nios2-elf/lib/pg\libc.a(lib_a-fwalk.o)
                0x000000000402d428                _fwalk
 .text._fwalk_reent
                0x000000000402d4f8       0xd0 c:/intelfpga_lite/18.1/nios2eds/bin/gnu/h-x86_64-mingw32/bin/../lib/gcc/nios2-elf/5.3.0/../../../../../H-x86_64-mingw32/nios2-elf/lib/pg\libc.a(lib_a-fwalk.o)
                0x000000000402d4f8                _fwalk_reent
 .text          0x000000000402d5c8        0x0 c:/intelfpga_lite/18.1/nios2eds/bin/gnu/h-x86_64-mingw32/bin/../lib/gcc/nios2-elf/5.3.0/../../../../../H-x86_64-mingw32/nios2-elf/lib/pg\libc.a(lib_a-impure.o)
 .text          0x000000000402d5c8        0x0 c:/intelfpga_lite/18.1/nios2eds/bin/gnu/h-x86_64-mingw32/bin/../lib/gcc/nios2-elf/5.3.0/../../../../../H-x86_64-mingw32/nios2-elf/lib/pg\libc.a(lib_a-int_errno.o)
 .text          0x000000000402d5c8        0x0 c:/intelfpga_lite/18.1/nios2eds/bin/gnu/h-x86_64-mingw32/bin/../lib/gcc/nios2-elf/5.3.0/../../../../../H-x86_64-mingw32/nios2-elf/lib/pg\libc.a(lib_a-locale.o)
 .text._setlocale_r
                0x000000000402d5c8       0x88 c:/intelfpga_lite/18.1/nios2eds/bin/gnu/h-x86_64-mingw32/bin/../lib/gcc/nios2-elf/5.3.0/../../../../../H-x86_64-mingw32/nios2-elf/lib/pg\libc.a(lib_a-locale.o)
                0x000000000402d5c8                _setlocale_r
 .text.__locale_charset
                0x000000000402d650       0x18 c:/intelfpga_lite/18.1/nios2eds/bin/gnu/h-x86_64-mingw32/bin/../lib/gcc/nios2-elf/5.3.0/../../../../../H-x86_64-mingw32/nios2-elf/lib/pg\libc.a(lib_a-locale.o)
                0x000000000402d650                __locale_charset
 .text.__locale_mb_cur_max
                0x000000000402d668       0x1c c:/intelfpga_lite/18.1/nios2eds/bin/gnu/h-x86_64-mingw32/bin/../lib/gcc/nios2-elf/5.3.0/../../../../../H-x86_64-mingw32/nios2-elf/lib/pg\libc.a(lib_a-locale.o)
                0x000000000402d668                __locale_mb_cur_max
 .text.__locale_msgcharset
                0x000000000402d684       0x18 c:/intelfpga_lite/18.1/nios2eds/bin/gnu/h-x86_64-mingw32/bin/../lib/gcc/nios2-elf/5.3.0/../../../../../H-x86_64-mingw32/nios2-elf/lib/pg\libc.a(lib_a-locale.o)
                0x000000000402d684                __locale_msgcharset
 .text.__locale_cjk_lang
                0x000000000402d69c       0x14 c:/intelfpga_lite/18.1/nios2eds/bin/gnu/h-x86_64-mingw32/bin/../lib/gcc/nios2-elf/5.3.0/../../../../../H-x86_64-mingw32/nios2-elf/lib/pg\libc.a(lib_a-locale.o)
                0x000000000402d69c                __locale_cjk_lang
 .text._localeconv_r
                0x000000000402d6b0       0x18 c:/intelfpga_lite/18.1/nios2eds/bin/gnu/h-x86_64-mingw32/bin/../lib/gcc/nios2-elf/5.3.0/../../../../../H-x86_64-mingw32/nios2-elf/lib/pg\libc.a(lib_a-locale.o)
                0x000000000402d6b0                _localeconv_r
 .text.setlocale
                0x000000000402d6c8       0x24 c:/intelfpga_lite/18.1/nios2eds/bin/gnu/h-x86_64-mingw32/bin/../lib/gcc/nios2-elf/5.3.0/../../../../../H-x86_64-mingw32/nios2-elf/lib/pg\libc.a(lib_a-locale.o)
                0x000000000402d6c8                setlocale
 .text.localeconv
                0x000000000402d6ec       0x18 c:/intelfpga_lite/18.1/nios2eds/bin/gnu/h-x86_64-mingw32/bin/../lib/gcc/nios2-elf/5.3.0/../../../../../H-x86_64-mingw32/nios2-elf/lib/pg\libc.a(lib_a-locale.o)
                0x000000000402d6ec                localeconv
 .text          0x000000000402d704        0x0 c:/intelfpga_lite/18.1/nios2eds/bin/gnu/h-x86_64-mingw32/bin/../lib/gcc/nios2-elf/5.3.0/../../../../../H-x86_64-mingw32/nios2-elf/lib/pg\libc.a(lib_a-makebuf.o)
 .text.__smakebuf_r
                0x000000000402d704      0x1c8 c:/intelfpga_lite/18.1/nios2eds/bin/gnu/h-x86_64-mingw32/bin/../lib/gcc/nios2-elf/5.3.0/../../../../../H-x86_64-mingw32/nios2-elf/lib/pg\libc.a(lib_a-makebuf.o)
                0x000000000402d704                __smakebuf_r
 .text          0x000000000402d8cc        0x0 c:/intelfpga_lite/18.1/nios2eds/bin/gnu/h-x86_64-mingw32/bin/../lib/gcc/nios2-elf/5.3.0/../../../../../H-x86_64-mingw32/nios2-elf/lib/pg\libc.a(lib_a-memchr.o)
 .text.memchr   0x000000000402d8cc       0xf0 c:/intelfpga_lite/18.1/nios2eds/bin/gnu/h-x86_64-mingw32/bin/../lib/gcc/nios2-elf/5.3.0/../../../../../H-x86_64-mingw32/nios2-elf/lib/pg\libc.a(lib_a-memchr.o)
                0x000000000402d8cc                memchr
 .text          0x000000000402d9bc        0x0 c:/intelfpga_lite/18.1/nios2eds/bin/gnu/h-x86_64-mingw32/bin/../lib/gcc/nios2-elf/5.3.0/../../../../../H-x86_64-mingw32/nios2-elf/lib/pg\libc.a(lib_a-memcpy.o)
 .text.memcpy   0x000000000402d9bc      0x154 c:/intelfpga_lite/18.1/nios2eds/bin/gnu/h-x86_64-mingw32/bin/../lib/gcc/nios2-elf/5.3.0/../../../../../H-x86_64-mingw32/nios2-elf/lib/pg\libc.a(lib_a-memcpy.o)
                0x000000000402d9bc                memcpy
 .text          0x000000000402db10        0x0 c:/intelfpga_lite/18.1/nios2eds/bin/gnu/h-x86_64-mingw32/bin/../lib/gcc/nios2-elf/5.3.0/../../../../../H-x86_64-mingw32/nios2-elf/lib/pg\libc.a(lib_a-memmove.o)
 .text.memmove  0x000000000402db10      0x164 c:/intelfpga_lite/18.1/nios2eds/bin/gnu/h-x86_64-mingw32/bin/../lib/gcc/nios2-elf/5.3.0/../../../../../H-x86_64-mingw32/nios2-elf/lib/pg\libc.a(lib_a-memmove.o)
                0x000000000402db10                memmove
 .text          0x000000000402dc74        0x0 c:/intelfpga_lite/18.1/nios2eds/bin/gnu/h-x86_64-mingw32/bin/../lib/gcc/nios2-elf/5.3.0/../../../../../H-x86_64-mingw32/nios2-elf/lib/pg\libc.a(lib_a-mprec.o)
 .text._Balloc  0x000000000402dc74       0xb4 c:/intelfpga_lite/18.1/nios2eds/bin/gnu/h-x86_64-mingw32/bin/../lib/gcc/nios2-elf/5.3.0/../../../../../H-x86_64-mingw32/nios2-elf/lib/pg\libc.a(lib_a-mprec.o)
                0x000000000402dc74                _Balloc
 .text._Bfree   0x000000000402dd28       0x34 c:/intelfpga_lite/18.1/nios2eds/bin/gnu/h-x86_64-mingw32/bin/../lib/gcc/nios2-elf/5.3.0/../../../../../H-x86_64-mingw32/nios2-elf/lib/pg\libc.a(lib_a-mprec.o)
                0x000000000402dd28                _Bfree
 .text.__multadd
                0x000000000402dd5c      0x12c c:/intelfpga_lite/18.1/nios2eds/bin/gnu/h-x86_64-mingw32/bin/../lib/gcc/nios2-elf/5.3.0/../../../../../H-x86_64-mingw32/nios2-elf/lib/pg\libc.a(lib_a-mprec.o)
                0x000000000402dd5c                __multadd
 .text.__s2b    0x000000000402de88      0x110 c:/intelfpga_lite/18.1/nios2eds/bin/gnu/h-x86_64-mingw32/bin/../lib/gcc/nios2-elf/5.3.0/../../../../../H-x86_64-mingw32/nios2-elf/lib/pg\libc.a(lib_a-mprec.o)
                0x000000000402de88                __s2b
 .text.__hi0bits
                0x000000000402df98       0x74 c:/intelfpga_lite/18.1/nios2eds/bin/gnu/h-x86_64-mingw32/bin/../lib/gcc/nios2-elf/5.3.0/../../../../../H-x86_64-mingw32/nios2-elf/lib/pg\libc.a(lib_a-mprec.o)
                0x000000000402df98                __hi0bits
 .text.__lo0bits
                0x000000000402e00c       0xbc c:/intelfpga_lite/18.1/nios2eds/bin/gnu/h-x86_64-mingw32/bin/../lib/gcc/nios2-elf/5.3.0/../../../../../H-x86_64-mingw32/nios2-elf/lib/pg\libc.a(lib_a-mprec.o)
                0x000000000402e00c                __lo0bits
 .text.__i2b    0x000000000402e0c8       0x48 c:/intelfpga_lite/18.1/nios2eds/bin/gnu/h-x86_64-mingw32/bin/../lib/gcc/nios2-elf/5.3.0/../../../../../H-x86_64-mingw32/nios2-elf/lib/pg\libc.a(lib_a-mprec.o)
                0x000000000402e0c8                __i2b
 .text.__multiply
                0x000000000402e110      0x204 c:/intelfpga_lite/18.1/nios2eds/bin/gnu/h-x86_64-mingw32/bin/../lib/gcc/nios2-elf/5.3.0/../../../../../H-x86_64-mingw32/nios2-elf/lib/pg\libc.a(lib_a-mprec.o)
                0x000000000402e110                __multiply
 .text.__pow5mult
                0x000000000402e314      0x14c c:/intelfpga_lite/18.1/nios2eds/bin/gnu/h-x86_64-mingw32/bin/../lib/gcc/nios2-elf/5.3.0/../../../../../H-x86_64-mingw32/nios2-elf/lib/pg\libc.a(lib_a-mprec.o)
                0x000000000402e314                __pow5mult
 .text.__lshift
                0x000000000402e460      0x154 c:/intelfpga_lite/18.1/nios2eds/bin/gnu/h-x86_64-mingw32/bin/../lib/gcc/nios2-elf/5.3.0/../../../../../H-x86_64-mingw32/nios2-elf/lib/pg\libc.a(lib_a-mprec.o)
                0x000000000402e460                __lshift
 .text.__mcmp   0x000000000402e5b4       0x6c c:/intelfpga_lite/18.1/nios2eds/bin/gnu/h-x86_64-mingw32/bin/../lib/gcc/nios2-elf/5.3.0/../../../../../H-x86_64-mingw32/nios2-elf/lib/pg\libc.a(lib_a-mprec.o)
                0x000000000402e5b4                __mcmp
 .text.__mdiff  0x000000000402e620      0x208 c:/intelfpga_lite/18.1/nios2eds/bin/gnu/h-x86_64-mingw32/bin/../lib/gcc/nios2-elf/5.3.0/../../../../../H-x86_64-mingw32/nios2-elf/lib/pg\libc.a(lib_a-mprec.o)
                0x000000000402e620                __mdiff
 .text.__ulp    0x000000000402e828       0x6c c:/intelfpga_lite/18.1/nios2eds/bin/gnu/h-x86_64-mingw32/bin/../lib/gcc/nios2-elf/5.3.0/../../../../../H-x86_64-mingw32/nios2-elf/lib/pg\libc.a(lib_a-mprec.o)
                0x000000000402e828                __ulp
 .text.__b2d    0x000000000402e894      0x118 c:/intelfpga_lite/18.1/nios2eds/bin/gnu/h-x86_64-mingw32/bin/../lib/gcc/nios2-elf/5.3.0/../../../../../H-x86_64-mingw32/nios2-elf/lib/pg\libc.a(lib_a-mprec.o)
                0x000000000402e894                __b2d
 .text.__d2b    0x000000000402e9ac      0x158 c:/intelfpga_lite/18.1/nios2eds/bin/gnu/h-x86_64-mingw32/bin/../lib/gcc/nios2-elf/5.3.0/../../../../../H-x86_64-mingw32/nios2-elf/lib/pg\libc.a(lib_a-mprec.o)
                0x000000000402e9ac                __d2b
 .text.__ratio  0x000000000402eb04       0xb0 c:/intelfpga_lite/18.1/nios2eds/bin/gnu/h-x86_64-mingw32/bin/../lib/gcc/nios2-elf/5.3.0/../../../../../H-x86_64-mingw32/nios2-elf/lib/pg\libc.a(lib_a-mprec.o)
                0x000000000402eb04                __ratio
 .text._mprec_log10
                0x000000000402ebb4       0x80 c:/intelfpga_lite/18.1/nios2eds/bin/gnu/h-x86_64-mingw32/bin/../lib/gcc/nios2-elf/5.3.0/../../../../../H-x86_64-mingw32/nios2-elf/lib/pg\libc.a(lib_a-mprec.o)
                0x000000000402ebb4                _mprec_log10
 .text.__copybits
                0x000000000402ec34       0x84 c:/intelfpga_lite/18.1/nios2eds/bin/gnu/h-x86_64-mingw32/bin/../lib/gcc/nios2-elf/5.3.0/../../../../../H-x86_64-mingw32/nios2-elf/lib/pg\libc.a(lib_a-mprec.o)
                0x000000000402ec34                __copybits
 .text.__any_on
                0x000000000402ecb8       0x94 c:/intelfpga_lite/18.1/nios2eds/bin/gnu/h-x86_64-mingw32/bin/../lib/gcc/nios2-elf/5.3.0/../../../../../H-x86_64-mingw32/nios2-elf/lib/pg\libc.a(lib_a-mprec.o)
                0x000000000402ecb8                __any_on
 .text          0x000000000402ed4c        0x0 c:/intelfpga_lite/18.1/nios2eds/bin/gnu/h-x86_64-mingw32/bin/../lib/gcc/nios2-elf/5.3.0/../../../../../H-x86_64-mingw32/nios2-elf/lib/pg\libc.a(lib_a-putc.o)
 .text._putc_r  0x000000000402ed4c       0xac c:/intelfpga_lite/18.1/nios2eds/bin/gnu/h-x86_64-mingw32/bin/../lib/gcc/nios2-elf/5.3.0/../../../../../H-x86_64-mingw32/nios2-elf/lib/pg\libc.a(lib_a-putc.o)
                0x000000000402ed4c                _putc_r
 .text.putc     0x000000000402edf8       0xd4 c:/intelfpga_lite/18.1/nios2eds/bin/gnu/h-x86_64-mingw32/bin/../lib/gcc/nios2-elf/5.3.0/../../../../../H-x86_64-mingw32/nios2-elf/lib/pg\libc.a(lib_a-putc.o)
                0x000000000402edf8                putc
 .text          0x000000000402eecc        0x0 c:/intelfpga_lite/18.1/nios2eds/bin/gnu/h-x86_64-mingw32/bin/../lib/gcc/nios2-elf/5.3.0/../../../../../H-x86_64-mingw32/nios2-elf/lib/pg\libc.a(lib_a-reallocr.o)
 .text._realloc_r
                0x000000000402eecc      0x570 c:/intelfpga_lite/18.1/nios2eds/bin/gnu/h-x86_64-mingw32/bin/../lib/gcc/nios2-elf/5.3.0/../../../../../H-x86_64-mingw32/nios2-elf/lib/pg\libc.a(lib_a-reallocr.o)
                0x000000000402eecc                _realloc_r
 .text          0x000000000402f43c        0x0 c:/intelfpga_lite/18.1/nios2eds/bin/gnu/h-x86_64-mingw32/bin/../lib/gcc/nios2-elf/5.3.0/../../../../../H-x86_64-mingw32/nios2-elf/lib/pg\libc.a(lib_a-s_fpclassify.o)
 .text.__fpclassifyd
                0x000000000402f43c       0x80 c:/intelfpga_lite/18.1/nios2eds/bin/gnu/h-x86_64-mingw32/bin/../lib/gcc/nios2-elf/5.3.0/../../../../../H-x86_64-mingw32/nios2-elf/lib/pg\libc.a(lib_a-s_fpclassify.o)
                0x000000000402f43c                __fpclassifyd
 .text          0x000000000402f4bc        0x0 c:/intelfpga_lite/18.1/nios2eds/bin/gnu/h-x86_64-mingw32/bin/../lib/gcc/nios2-elf/5.3.0/../../../../../H-x86_64-mingw32/nios2-elf/lib/pg\libc.a(lib_a-stdio.o)
 .text.__sread  0x000000000402f4bc       0x60 c:/intelfpga_lite/18.1/nios2eds/bin/gnu/h-x86_64-mingw32/bin/../lib/gcc/nios2-elf/5.3.0/../../../../../H-x86_64-mingw32/nios2-elf/lib/pg\libc.a(lib_a-stdio.o)
                0x000000000402f4bc                __sread
 .text.__seofread
                0x000000000402f51c       0x14 c:/intelfpga_lite/18.1/nios2eds/bin/gnu/h-x86_64-mingw32/bin/../lib/gcc/nios2-elf/5.3.0/../../../../../H-x86_64-mingw32/nios2-elf/lib/pg\libc.a(lib_a-stdio.o)
                0x000000000402f51c                __seofread
 .text.__swrite
                0x000000000402f530       0x88 c:/intelfpga_lite/18.1/nios2eds/bin/gnu/h-x86_64-mingw32/bin/../lib/gcc/nios2-elf/5.3.0/../../../../../H-x86_64-mingw32/nios2-elf/lib/pg\libc.a(lib_a-stdio.o)
                0x000000000402f530                __swrite
 .text.__sseek  0x000000000402f5b8       0x68 c:/intelfpga_lite/18.1/nios2eds/bin/gnu/h-x86_64-mingw32/bin/../lib/gcc/nios2-elf/5.3.0/../../../../../H-x86_64-mingw32/nios2-elf/lib/pg\libc.a(lib_a-stdio.o)
                0x000000000402f5b8                __sseek
 .text.__sclose
                0x000000000402f620       0x14 c:/intelfpga_lite/18.1/nios2eds/bin/gnu/h-x86_64-mingw32/bin/../lib/gcc/nios2-elf/5.3.0/../../../../../H-x86_64-mingw32/nios2-elf/lib/pg\libc.a(lib_a-stdio.o)
                0x000000000402f620                __sclose
 .text          0x000000000402f634        0x0 c:/intelfpga_lite/18.1/nios2eds/bin/gnu/h-x86_64-mingw32/bin/../lib/gcc/nios2-elf/5.3.0/../../../../../H-x86_64-mingw32/nios2-elf/lib/pg\libc.a(lib_a-vfiprintf.o)
 .text.__sprint_r.part.0
                0x000000000402f634      0x108 c:/intelfpga_lite/18.1/nios2eds/bin/gnu/h-x86_64-mingw32/bin/../lib/gcc/nios2-elf/5.3.0/../../../../../H-x86_64-mingw32/nios2-elf/lib/pg\libc.a(lib_a-vfiprintf.o)
 .text.__sprint_r
                0x000000000402f73c       0x24 c:/intelfpga_lite/18.1/nios2eds/bin/gnu/h-x86_64-mingw32/bin/../lib/gcc/nios2-elf/5.3.0/../../../../../H-x86_64-mingw32/nios2-elf/lib/pg\libc.a(lib_a-vfiprintf.o)
                0x000000000402f73c                __sprint_r
 .text.___vfiprintf_internal_r
                0x000000000402f760     0x1468 c:/intelfpga_lite/18.1/nios2eds/bin/gnu/h-x86_64-mingw32/bin/../lib/gcc/nios2-elf/5.3.0/../../../../../H-x86_64-mingw32/nios2-elf/lib/pg\libc.a(lib_a-vfiprintf.o)
                0x000000000402f760                ___vfiprintf_internal_r
 .text.__vfiprintf_internal
                0x0000000004030bc8       0x28 c:/intelfpga_lite/18.1/nios2eds/bin/gnu/h-x86_64-mingw32/bin/../lib/gcc/nios2-elf/5.3.0/../../../../../H-x86_64-mingw32/nios2-elf/lib/pg\libc.a(lib_a-vfiprintf.o)
                0x0000000004030bc8                __vfiprintf_internal
 .text.__sbprintf
                0x0000000004030bf0       0xc8 c:/intelfpga_lite/18.1/nios2eds/bin/gnu/h-x86_64-mingw32/bin/../lib/gcc/nios2-elf/5.3.0/../../../../../H-x86_64-mingw32/nios2-elf/lib/pg\libc.a(lib_a-vfiprintf.o)
 .text          0x0000000004030cb8        0x0 c:/intelfpga_lite/18.1/nios2eds/bin/gnu/h-x86_64-mingw32/bin/../lib/gcc/nios2-elf/5.3.0/../../../../../H-x86_64-mingw32/nios2-elf/lib/pg\libc.a(lib_a-wbuf.o)
 .text.__swbuf_r
                0x0000000004030cb8      0x14c c:/intelfpga_lite/18.1/nios2eds/bin/gnu/h-x86_64-mingw32/bin/../lib/gcc/nios2-elf/5.3.0/../../../../../H-x86_64-mingw32/nios2-elf/lib/pg\libc.a(lib_a-wbuf.o)
                0x0000000004030cb8                __swbuf_r
 .text.__swbuf  0x0000000004030e04       0x24 c:/intelfpga_lite/18.1/nios2eds/bin/gnu/h-x86_64-mingw32/bin/../lib/gcc/nios2-elf/5.3.0/../../../../../H-x86_64-mingw32/nios2-elf/lib/pg\libc.a(lib_a-wbuf.o)
                0x0000000004030e04                __swbuf
 .text          0x0000000004030e28        0x0 c:/intelfpga_lite/18.1/nios2eds/bin/gnu/h-x86_64-mingw32/bin/../lib/gcc/nios2-elf/5.3.0/../../../../../H-x86_64-mingw32/nios2-elf/lib/pg\libc.a(lib_a-writer.o)
 .text._write_r
                0x0000000004030e28       0x6c c:/intelfpga_lite/18.1/nios2eds/bin/gnu/h-x86_64-mingw32/bin/../lib/gcc/nios2-elf/5.3.0/../../../../../H-x86_64-mingw32/nios2-elf/lib/pg\libc.a(lib_a-writer.o)
                0x0000000004030e28                _write_r
 .text          0x0000000004030e94        0x0 c:/intelfpga_lite/18.1/nios2eds/bin/gnu/h-x86_64-mingw32/bin/../lib/gcc/nios2-elf/5.3.0/../../../../../H-x86_64-mingw32/nios2-elf/lib/pg\libc.a(closer.o)
 .text._close_r
                0x0000000004030e94       0x60 c:/intelfpga_lite/18.1/nios2eds/bin/gnu/h-x86_64-mingw32/bin/../lib/gcc/nios2-elf/5.3.0/../../../../../H-x86_64-mingw32/nios2-elf/lib/pg\libc.a(closer.o)
                0x0000000004030e94                _close_r
 .text          0x0000000004030ef4        0x0 c:/intelfpga_lite/18.1/nios2eds/bin/gnu/h-x86_64-mingw32/bin/../lib/gcc/nios2-elf/5.3.0/../../../../../H-x86_64-mingw32/nios2-elf/lib/pg\libc.a(lib_a-callocr.o)
 .text._calloc_r
                0x0000000004030ef4       0xd0 c:/intelfpga_lite/18.1/nios2eds/bin/gnu/h-x86_64-mingw32/bin/../lib/gcc/nios2-elf/5.3.0/../../../../../H-x86_64-mingw32/nios2-elf/lib/pg\libc.a(lib_a-callocr.o)
                0x0000000004030ef4                _calloc_r
 .text          0x0000000004030fc4        0x0 c:/intelfpga_lite/18.1/nios2eds/bin/gnu/h-x86_64-mingw32/bin/../lib/gcc/nios2-elf/5.3.0/../../../../../H-x86_64-mingw32/nios2-elf/lib/pg\libc.a(lib_a-fclose.o)
 .text._fclose_r
                0x0000000004030fc4       0xfc c:/intelfpga_lite/18.1/nios2eds/bin/gnu/h-x86_64-mingw32/bin/../lib/gcc/nios2-elf/5.3.0/../../../../../H-x86_64-mingw32/nios2-elf/lib/pg\libc.a(lib_a-fclose.o)
                0x0000000004030fc4                _fclose_r
 .text.fclose   0x00000000040310c0       0x20 c:/intelfpga_lite/18.1/nios2eds/bin/gnu/h-x86_64-mingw32/bin/../lib/gcc/nios2-elf/5.3.0/../../../../../H-x86_64-mingw32/nios2-elf/lib/pg\libc.a(lib_a-fclose.o)
                0x00000000040310c0                fclose
 .text          0x00000000040310e0        0x0 c:/intelfpga_lite/18.1/nios2eds/bin/gnu/h-x86_64-mingw32/bin/../lib/gcc/nios2-elf/5.3.0/../../../../../H-x86_64-mingw32/nios2-elf/lib/pg\libc.a(lib_a-fputwc.o)
 .text.__fputwc
                0x00000000040310e0      0x170 c:/intelfpga_lite/18.1/nios2eds/bin/gnu/h-x86_64-mingw32/bin/../lib/gcc/nios2-elf/5.3.0/../../../../../H-x86_64-mingw32/nios2-elf/lib/pg\libc.a(lib_a-fputwc.o)
                0x00000000040310e0                __fputwc
 .text._fputwc_r
                0x0000000004031250       0x30 c:/intelfpga_lite/18.1/nios2eds/bin/gnu/h-x86_64-mingw32/bin/../lib/gcc/nios2-elf/5.3.0/../../../../../H-x86_64-mingw32/nios2-elf/lib/pg\libc.a(lib_a-fputwc.o)
                0x0000000004031250                _fputwc_r
 .text.fputwc   0x0000000004031280       0x8c c:/intelfpga_lite/18.1/nios2eds/bin/gnu/h-x86_64-mingw32/bin/../lib/gcc/nios2-elf/5.3.0/../../../../../H-x86_64-mingw32/nios2-elf/lib/pg\libc.a(lib_a-fputwc.o)
                0x0000000004031280                fputwc
 .text          0x000000000403130c        0x0 c:/intelfpga_lite/18.1/nios2eds/bin/gnu/h-x86_64-mingw32/bin/../lib/gcc/nios2-elf/5.3.0/../../../../../H-x86_64-mingw32/nios2-elf/lib/pg\libc.a(lib_a-fstatr.o)
 .text._fstat_r
                0x000000000403130c       0x68 c:/intelfpga_lite/18.1/nios2eds/bin/gnu/h-x86_64-mingw32/bin/../lib/gcc/nios2-elf/5.3.0/../../../../../H-x86_64-mingw32/nios2-elf/lib/pg\libc.a(lib_a-fstatr.o)
                0x000000000403130c                _fstat_r
 .text          0x0000000004031374        0x0 c:/intelfpga_lite/18.1/nios2eds/bin/gnu/h-x86_64-mingw32/bin/../lib/gcc/nios2-elf/5.3.0/../../../../../H-x86_64-mingw32/nios2-elf/lib/pg\libc.a(lib_a-isattyr.o)
 .text._isatty_r
                0x0000000004031374       0x60 c:/intelfpga_lite/18.1/nios2eds/bin/gnu/h-x86_64-mingw32/bin/../lib/gcc/nios2-elf/5.3.0/../../../../../H-x86_64-mingw32/nios2-elf/lib/pg\libc.a(lib_a-isattyr.o)
                0x0000000004031374                _isatty_r
 .text          0x00000000040313d4        0x0 c:/intelfpga_lite/18.1/nios2eds/bin/gnu/h-x86_64-mingw32/bin/../lib/gcc/nios2-elf/5.3.0/../../../../../H-x86_64-mingw32/nios2-elf/lib/pg\libc.a(lib_a-lseekr.o)
 .text._lseek_r
                0x00000000040313d4       0x6c c:/intelfpga_lite/18.1/nios2eds/bin/gnu/h-x86_64-mingw32/bin/../lib/gcc/nios2-elf/5.3.0/../../../../../H-x86_64-mingw32/nios2-elf/lib/pg\libc.a(lib_a-lseekr.o)
                0x00000000040313d4                _lseek_r
 .text          0x0000000004031440        0x0 c:/intelfpga_lite/18.1/nios2eds/bin/gnu/h-x86_64-mingw32/bin/../lib/gcc/nios2-elf/5.3.0/../../../../../H-x86_64-mingw32/nios2-elf/lib/pg\libc.a(lib_a-readr.o)
 .text._read_r  0x0000000004031440       0x6c c:/intelfpga_lite/18.1/nios2eds/bin/gnu/h-x86_64-mingw32/bin/../lib/gcc/nios2-elf/5.3.0/../../../../../H-x86_64-mingw32/nios2-elf/lib/pg\libc.a(lib_a-readr.o)
                0x0000000004031440                _read_r
 .text          0x00000000040314ac        0x0 c:/intelfpga_lite/18.1/nios2eds/bin/gnu/h-x86_64-mingw32/bin/../lib/gcc/nios2-elf/5.3.0/../../../../../H-x86_64-mingw32/nios2-elf/lib/pg\libc.a(lib_a-wcrtomb.o)
 .text._wcrtomb_r
                0x00000000040314ac       0xa8 c:/intelfpga_lite/18.1/nios2eds/bin/gnu/h-x86_64-mingw32/bin/../lib/gcc/nios2-elf/5.3.0/../../../../../H-x86_64-mingw32/nios2-elf/lib/pg\libc.a(lib_a-wcrtomb.o)
                0x00000000040314ac                _wcrtomb_r
 .text.wcrtomb  0x0000000004031554       0xcc c:/intelfpga_lite/18.1/nios2eds/bin/gnu/h-x86_64-mingw32/bin/../lib/gcc/nios2-elf/5.3.0/../../../../../H-x86_64-mingw32/nios2-elf/lib/pg\libc.a(lib_a-wcrtomb.o)
                0x0000000004031554                wcrtomb
 .text          0x0000000004031620        0x0 c:/intelfpga_lite/18.1/nios2eds/bin/gnu/h-x86_64-mingw32/bin/../lib/gcc/nios2-elf/5.3.0/../../../../../H-x86_64-mingw32/nios2-elf/lib/pg\libc.a(lib_a-wctomb_r.o)
 .text.__ascii_wctomb
                0x0000000004031620       0x3c c:/intelfpga_lite/18.1/nios2eds/bin/gnu/h-x86_64-mingw32/bin/../lib/gcc/nios2-elf/5.3.0/../../../../../H-x86_64-mingw32/nios2-elf/lib/pg\libc.a(lib_a-wctomb_r.o)
                0x0000000004031620                __ascii_wctomb
 .text._wctomb_r
                0x000000000403165c       0x68 c:/intelfpga_lite/18.1/nios2eds/bin/gnu/h-x86_64-mingw32/bin/../lib/gcc/nios2-elf/5.3.0/../../../../../H-x86_64-mingw32/nios2-elf/lib/pg\libc.a(lib_a-wctomb_r.o)
                0x000000000403165c                _wctomb_r
 .text          0x00000000040316c4       0x6c c:/intelfpga_lite/18.1/nios2eds/bin/gnu/h-x86_64-mingw32/bin/../lib/gcc/nios2-elf/5.3.0/pg\libgcc.a(_muldi3.o)
                0x00000000040316c4                __muldi3
 .text          0x0000000004031730      0x584 c:/intelfpga_lite/18.1/nios2eds/bin/gnu/h-x86_64-mingw32/bin/../lib/gcc/nios2-elf/5.3.0/pg\libgcc.a(_udivdi3.o)
                0x0000000004031730                __udivdi3
 .text          0x0000000004031cb4      0x544 c:/intelfpga_lite/18.1/nios2eds/bin/gnu/h-x86_64-mingw32/bin/../lib/gcc/nios2-elf/5.3.0/pg\libgcc.a(_umoddi3.o)
                0x0000000004031cb4                __umoddi3
 .text          0x00000000040321f8      0x8b8 c:/intelfpga_lite/18.1/nios2eds/bin/gnu/h-x86_64-mingw32/bin/../lib/gcc/nios2-elf/5.3.0/pg\libgcc.a(adddf3.o)
                0x00000000040321f8                __adddf3
 .text          0x0000000004032ab0       0x90 c:/intelfpga_lite/18.1/nios2eds/bin/gnu/h-x86_64-mingw32/bin/../lib/gcc/nios2-elf/5.3.0/pg\libgcc.a(eqdf2.o)
                0x0000000004032ab0                __nedf2
                0x0000000004032ab0                __eqdf2
 .text          0x0000000004032b40       0xe4 c:/intelfpga_lite/18.1/nios2eds/bin/gnu/h-x86_64-mingw32/bin/../lib/gcc/nios2-elf/5.3.0/pg\libgcc.a(gedf2.o)
                0x0000000004032b40                __gedf2
                0x0000000004032b40                __gtdf2
 .text          0x0000000004032c24       0xf8 c:/intelfpga_lite/18.1/nios2eds/bin/gnu/h-x86_64-mingw32/bin/../lib/gcc/nios2-elf/5.3.0/pg\libgcc.a(ledf2.o)
                0x0000000004032c24                __ledf2
                0x0000000004032c24                __ltdf2
 .text          0x0000000004032d1c      0x724 c:/intelfpga_lite/18.1/nios2eds/bin/gnu/h-x86_64-mingw32/bin/../lib/gcc/nios2-elf/5.3.0/pg\libgcc.a(muldf3.o)
                0x0000000004032d1c                __muldf3
 .text          0x0000000004033440      0x908 c:/intelfpga_lite/18.1/nios2eds/bin/gnu/h-x86_64-mingw32/bin/../lib/gcc/nios2-elf/5.3.0/pg\libgcc.a(subdf3.o)
                0x0000000004033440                __subdf3
 .text          0x0000000004033d48       0x8c c:/intelfpga_lite/18.1/nios2eds/bin/gnu/h-x86_64-mingw32/bin/../lib/gcc/nios2-elf/5.3.0/pg\libgcc.a(fixdfsi.o)
                0x0000000004033d48                __fixdfsi
 .text          0x0000000004033dd4       0xb4 c:/intelfpga_lite/18.1/nios2eds/bin/gnu/h-x86_64-mingw32/bin/../lib/gcc/nios2-elf/5.3.0/pg\libgcc.a(floatunsidf.o)
                0x0000000004033dd4                __floatunsidf
 .text          0x0000000004033e88       0xc8 ../LUTBrain_NIOS_bsp/\libhal_bsp.a(alt_close.o)
                0x0000000004033e88                close
 .text          0x0000000004033f50       0x14 ../LUTBrain_NIOS_bsp/\libhal_bsp.a(alt_dev.o)
 .text          0x0000000004033f64        0x0 ../LUTBrain_NIOS_bsp/\libhal_bsp.a(alt_errno.o)
 .text          0x0000000004033f64       0x44 ../LUTBrain_NIOS_bsp/\libhal_bsp.a(alt_exit.o)
                0x0000000004033f64                _exit
 .text          0x0000000004033fa8       0x84 ../LUTBrain_NIOS_bsp/\libhal_bsp.a(alt_fstat.o)
                0x0000000004033fa8                fstat
 .text          0x000000000403402c       0x14 ../LUTBrain_NIOS_bsp/\libhal_bsp.a(alt_getpid.o)
                0x000000000403402c                getpid
 .text          0x0000000004034040      0x1f0 ../LUTBrain_NIOS_bsp/\libhal_bsp.a(alt_gmon.o)
                0x0000000004034088                __mcount_record
 .text          0x0000000004034230       0x90 ../LUTBrain_NIOS_bsp/\libhal_bsp.a(alt_isatty.o)
                0x0000000004034230                isatty
 .text          0x00000000040342c0      0x104 ../LUTBrain_NIOS_bsp/\libhal_bsp.a(alt_kill.o)
                0x00000000040342c0                kill
 .text          0x00000000040343c4       0xd8 ../LUTBrain_NIOS_bsp/\libhal_bsp.a(alt_load.o)
                0x00000000040343c4                alt_load
 .text          0x000000000403449c       0x88 ../LUTBrain_NIOS_bsp/\libhal_bsp.a(alt_lseek.o)
                0x000000000403449c                lseek
 .text          0x0000000004034524       0x6c ../LUTBrain_NIOS_bsp/\libhal_bsp.a(alt_main.o)
                0x0000000004034524                alt_main
 .text          0x0000000004034590       0x20 ../LUTBrain_NIOS_bsp/\libhal_bsp.a(alt_malloc_lock.o)
                0x0000000004034590                __malloc_lock
                0x00000000040345a0                __malloc_unlock
 .text          0x00000000040345b0       0x9c ../LUTBrain_NIOS_bsp/\libhal_bsp.a(alt_mcount.o)
                0x00000000040345b0                _mcount
                0x00000000040345b0                mcount
 .text          0x000000000403464c       0xd4 ../LUTBrain_NIOS_bsp/\libhal_bsp.a(alt_read.o)
                0x000000000403464c                read
 .text          0x0000000004034720       0x30 ../LUTBrain_NIOS_bsp/\libhal_bsp.a(alt_release_fd.o)
                0x0000000004034720                alt_release_fd
 .text          0x0000000004034750       0x4c ../LUTBrain_NIOS_bsp/\libhal_bsp.a(alt_sbrk.o)
                0x0000000004034750                sbrk
 .text          0x000000000403479c      0x140 ../LUTBrain_NIOS_bsp/\libhal_bsp.a(alt_tick.o)
                0x000000000403479c                alt_alarm_stop
                0x00000000040347dc                alt_tick
 .text          0x00000000040348dc       0xd0 ../LUTBrain_NIOS_bsp/\libhal_bsp.a(alt_write.o)
                0x00000000040348dc                write
 .text          0x00000000040349ac       0xa4 ../LUTBrain_NIOS_bsp/\libhal_bsp.a(alt_sys_init.o)
                0x00000000040349ac                alt_irq_init
                0x00000000040349d8                alt_sys_init
 .text          0x0000000004034a50       0x6c ../LUTBrain_NIOS_bsp/\libhal_bsp.a(altera_avalon_jtag_uart_fd.o)
                0x0000000004034a50                altera_avalon_jtag_uart_read_fd
                0x0000000004034a6c                altera_avalon_jtag_uart_write_fd
                0x0000000004034a88                altera_avalon_jtag_uart_close_fd
                0x0000000004034aa4                altera_avalon_jtag_uart_ioctl_fd
 .text          0x0000000004034abc      0x248 ../LUTBrain_NIOS_bsp/\libhal_bsp.a(altera_avalon_jtag_uart_init.o)
                0x0000000004034c28                altera_avalon_jtag_uart_init
                0x0000000004034cac                altera_avalon_jtag_uart_close
 .text          0x0000000004034d04       0x80 ../LUTBrain_NIOS_bsp/\libhal_bsp.a(altera_avalon_jtag_uart_ioctl.o)
                0x0000000004034d04                altera_avalon_jtag_uart_ioctl
 .text          0x0000000004034d84      0x160 ../LUTBrain_NIOS_bsp/\libhal_bsp.a(altera_avalon_jtag_uart_read.o)
                0x0000000004034d84                altera_avalon_jtag_uart_read
 .text          0x0000000004034ee4      0x1ac ../LUTBrain_NIOS_bsp/\libhal_bsp.a(altera_avalon_jtag_uart_write.o)
                0x0000000004034ee4                altera_avalon_jtag_uart_write
 .text          0x0000000004035090       0x9c ../LUTBrain_NIOS_bsp/\libhal_bsp.a(altera_avalon_timer_sc.o)
                0x00000000040350d8                alt_avalon_timer_sc_init
 .text          0x000000000403512c        0x0 ../LUTBrain_NIOS_bsp/\libhal_bsp.a(altera_avalon_timer_vars.o)
 .text          0x000000000403512c       0x8c ../LUTBrain_NIOS_bsp/\libhal_bsp.a(alt_alarm_start.o)
                0x000000000403512c                alt_alarm_start
 .text          0x00000000040351b8       0x24 ../LUTBrain_NIOS_bsp/\libhal_bsp.a(alt_dcache_flush_all.o)
                0x00000000040351b8                alt_dcache_flush_all
 .text          0x00000000040351dc       0x78 ../LUTBrain_NIOS_bsp/\libhal_bsp.a(alt_dev_llist_insert.o)
                0x00000000040351dc                alt_dev_llist_insert
 .text          0x0000000004035254       0x70 ../LUTBrain_NIOS_bsp/\libhal_bsp.a(alt_do_ctors.o)
                0x0000000004035254                _do_ctors
 .text          0x00000000040352c4       0x70 ../LUTBrain_NIOS_bsp/\libhal_bsp.a(alt_do_dtors.o)
                0x00000000040352c4                _do_dtors
 .text          0x0000000004035334       0x18 ../LUTBrain_NIOS_bsp/\libhal_bsp.a(alt_icache_flush_all.o)
                0x0000000004035334                alt_icache_flush_all
 .text          0x000000000403534c       0xbc ../LUTBrain_NIOS_bsp/\libhal_bsp.a(alt_iic.o)
                0x000000000403534c                alt_ic_isr_register
                0x000000000403535c                alt_ic_irq_enable
                0x00000000040353a0                alt_ic_irq_disable
                0x00000000040353e4                alt_ic_irq_enabled
 .text          0x0000000004035408       0x74 ../LUTBrain_NIOS_bsp/\libhal_bsp.a(alt_iic_isr_register.o)
                0x0000000004035408                alt_iic_isr_register
 .text          0x000000000403547c      0x110 ../LUTBrain_NIOS_bsp/\libhal_bsp.a(alt_io_redirect.o)
                0x000000000403547c                alt_io_redirect
 .text          0x000000000403558c        0x0 ../LUTBrain_NIOS_bsp/\libhal_bsp.a(alt_irq_entry.o)
 .text          0x000000000403558c        0x0 ../LUTBrain_NIOS_bsp/\libhal_bsp.a(alt_irq_handler.o)
 .text          0x000000000403558c        0x0 ../LUTBrain_NIOS_bsp/\libhal_bsp.a(alt_irq_vars.o)
 .text          0x000000000403558c      0x184 ../LUTBrain_NIOS_bsp/\libhal_bsp.a(alt_open.o)
                0x000000000403558c                open
 .text          0x0000000004035710       0x14 ../LUTBrain_NIOS_bsp/\libhal_bsp.a(altera_nios2_gen2_irq.o)
                0x0000000004035710                altera_nios2_gen2_irq_init
 .text          0x0000000004035724        0x0 ../LUTBrain_NIOS_bsp/\libhal_bsp.a(alt_exception_entry.o)
 .text          0x0000000004035724       0x84 ../LUTBrain_NIOS_bsp/\libhal_bsp.a(alt_find_dev.o)
                0x0000000004035724                alt_find_dev
 .text          0x00000000040357a8       0xb8 ../LUTBrain_NIOS_bsp/\libhal_bsp.a(alt_find_file.o)
                0x00000000040357a8                alt_find_file
 .text          0x0000000004035860       0x5c ../LUTBrain_NIOS_bsp/\libhal_bsp.a(alt_get_fd.o)
                0x0000000004035860                alt_get_fd
 .text          0x00000000040358bc       0x5c ../LUTBrain_NIOS_bsp/\libhal_bsp.a(alt_icache_flush.o)
                0x00000000040358bc                alt_icache_flush
 .text          0x0000000004035918       0x80 ../LUTBrain_NIOS_bsp/\libhal_bsp.a(alt_instruction_exception_entry.o)
                0x0000000004035918                alt_exception_cause_generated_bad_addr
 .text          0x0000000004035998        0x0 c:/intelfpga_lite/18.1/nios2eds/bin/gnu/h-x86_64-mingw32/bin/../lib/gcc/nios2-elf/5.3.0/../../../../../H-x86_64-mingw32/nios2-elf/lib/pg\libc.a(lib_a-atexit.o)
 .text.atexit   0x0000000004035998       0x20 c:/intelfpga_lite/18.1/nios2eds/bin/gnu/h-x86_64-mingw32/bin/../lib/gcc/nios2-elf/5.3.0/../../../../../H-x86_64-mingw32/nios2-elf/lib/pg\libc.a(lib_a-atexit.o)
                0x0000000004035998                atexit
 .text          0x00000000040359b8        0x0 c:/intelfpga_lite/18.1/nios2eds/bin/gnu/h-x86_64-mingw32/bin/../lib/gcc/nios2-elf/5.3.0/../../../../../H-x86_64-mingw32/nios2-elf/lib/pg\libc.a(lib_a-exit.o)
 .text.exit     0x00000000040359b8       0x44 c:/intelfpga_lite/18.1/nios2eds/bin/gnu/h-x86_64-mingw32/bin/../lib/gcc/nios2-elf/5.3.0/../../../../../H-x86_64-mingw32/nios2-elf/lib/pg\libc.a(lib_a-exit.o)
                0x00000000040359b8                exit
 .text          0x00000000040359fc        0x0 c:/intelfpga_lite/18.1/nios2eds/bin/gnu/h-x86_64-mingw32/bin/../lib/gcc/nios2-elf/5.3.0/../../../../../H-x86_64-mingw32/nios2-elf/lib/pg\libc.a(lib_a-memcmp.o)
 .text.memcmp   0x00000000040359fc       0x88 c:/intelfpga_lite/18.1/nios2eds/bin/gnu/h-x86_64-mingw32/bin/../lib/gcc/nios2-elf/5.3.0/../../../../../H-x86_64-mingw32/nios2-elf/lib/pg\libc.a(lib_a-memcmp.o)
                0x00000000040359fc                memcmp
 .text          0x0000000004035a84        0x0 c:/intelfpga_lite/18.1/nios2eds/bin/gnu/h-x86_64-mingw32/bin/../lib/gcc/nios2-elf/5.3.0/../../../../../H-x86_64-mingw32/nios2-elf/lib/pg\libc.a(lib_a-__atexit.o)
 .text.__register_exitproc
                0x0000000004035a84      0x124 c:/intelfpga_lite/18.1/nios2eds/bin/gnu/h-x86_64-mingw32/bin/../lib/gcc/nios2-elf/5.3.0/../../../../../H-x86_64-mingw32/nios2-elf/lib/pg\libc.a(lib_a-__atexit.o)
                0x0000000004035a84                __register_exitproc
 .text          0x0000000004035ba8        0x0 c:/intelfpga_lite/18.1/nios2eds/bin/gnu/h-x86_64-mingw32/bin/../lib/gcc/nios2-elf/5.3.0/../../../../../H-x86_64-mingw32/nios2-elf/lib/pg\libc.a(lib_a-__call_atexit.o)
 .text.__call_exitprocs
                0x0000000004035ba8      0x18c c:/intelfpga_lite/18.1/nios2eds/bin/gnu/h-x86_64-mingw32/bin/../lib/gcc/nios2-elf/5.3.0/../../../../../H-x86_64-mingw32/nios2-elf/lib/pg\libc.a(lib_a-__call_atexit.o)
                0x0000000004035ba8                __call_exitprocs
 *(.gnu.warning.*)
 *(.fini)
                [!provide]                        PROVIDE (__etext, ABSOLUTE (.))
                [!provide]                        PROVIDE (_etext, ABSOLUTE (.))
                0x0000000004035d34                PROVIDE (etext, ABSOLUTE (.))
 *(.eh_frame_hdr)
                0x0000000004035d34                . = ALIGN (0x4)
                [!provide]                        PROVIDE (__preinit_array_start, ABSOLUTE (.))
 *(.preinit_array)
                [!provide]                        PROVIDE (__preinit_array_end, ABSOLUTE (.))
                [!provide]                        PROVIDE (__init_array_start, ABSOLUTE (.))
 *(.init_array)
                [!provide]                        PROVIDE (__init_array_end, ABSOLUTE (.))
                [!provide]                        PROVIDE (__fini_array_start, ABSOLUTE (.))
 *(.fini_array)
                [!provide]                        PROVIDE (__fini_array_end, ABSOLUTE (.))
 *(.eh_frame)
 *(.gcc_except_table .gcc_except_table.*)
 .gcc_except_table
                0x0000000004035d34        0x6 obj/default/Image.o
 .gcc_except_table
                0x0000000004035d3a        0x6 obj/default/NN.o
 .gcc_except_table
                0x0000000004035d40        0x8 obj/default/main.o
 .gcc_except_table._Znaj
                0x0000000004035d48       0x12 c:/intelfpga_lite/18.1/nios2eds/bin/gnu/h-x86_64-mingw32/bin/../lib/gcc/nios2-elf/5.3.0/../../../../../H-x86_64-mingw32/nios2-elf/lib/pg\libstdc++.a(new_opv.o)
 *fill*         0x0000000004035d5a        0x2 3a880100
 .gcc_except_table.__gxx_personality_sj0
                0x0000000004035d5c       0x10 c:/intelfpga_lite/18.1/nios2eds/bin/gnu/h-x86_64-mingw32/bin/../lib/gcc/nios2-elf/5.3.0/../../../../../H-x86_64-mingw32/nios2-elf/lib/pg\libstdc++.a(eh_personality.o)
 .gcc_except_table.__cxa_call_unexpected
                0x0000000004035d6c       0x10 c:/intelfpga_lite/18.1/nios2eds/bin/gnu/h-x86_64-mingw32/bin/../lib/gcc/nios2-elf/5.3.0/../../../../../H-x86_64-mingw32/nios2-elf/lib/pg\libstdc++.a(eh_personality.o)
 .gcc_except_table._ZN10__cxxabiv111__terminateEPFvvE
                0x0000000004035d7c       0x15 c:/intelfpga_lite/18.1/nios2eds/bin/gnu/h-x86_64-mingw32/bin/../lib/gcc/nios2-elf/5.3.0/../../../../../H-x86_64-mingw32/nios2-elf/lib/pg\libstdc++.a(eh_terminate.o)
 *(.dynamic)
                0x0000000004035d91                PROVIDE (__CTOR_LIST__, ABSOLUTE (.))
 *(.ctors)
 *fill*         0x0000000004035d91        0x3 3a880100
 .ctors         0x0000000004035d94        0x4 c:/intelfpga_lite/18.1/nios2eds/bin/gnu/h-x86_64-mingw32/bin/../lib/gcc/nios2-elf/5.3.0/../../../../../H-x86_64-mingw32/nios2-elf/lib/pg\libstdc++.a(eh_alloc.o)
 *(SORT(.ctors.*))
                0x0000000004035d98                PROVIDE (__CTOR_END__, ABSOLUTE (.))
                0x0000000004035d98                PROVIDE (__DTOR_LIST__, ABSOLUTE (.))
 *(.dtors)
 *(SORT(.dtors.*))
                0x0000000004035d98                PROVIDE (__DTOR_END__, ABSOLUTE (.))
 *(.jcr)
                0x0000000004035d98                . = ALIGN (0x4)

.rodata         0x0000000000000000      0x688 load address 0x0000000004035d98
                0x0000000000000000                PROVIDE (__ram_rodata_start, ABSOLUTE (.))
                0x0000000000000000                . = ALIGN (0x4)
 *(.rodata .rodata.* .gnu.linkonce.r.*)
 .rodata        0x0000000000000000       0x1a obj/default/Image.o
 *fill*         0x000000000000001a        0x2 
 .rodata        0x000000000000001c       0x2a obj/default/NN.o
 *fill*         0x0000000000000046        0x2 
 .rodata._ZTV2NN
                0x0000000000000048       0x10 obj/default/NN.o
                0x0000000000000048                vtable for NN
 .rodata        0x0000000000000058       0x6b obj/default/NNLayer.o
 *fill*         0x00000000000000c3        0x1 
 .rodata._ZTV7NNLayer
                0x00000000000000c4       0x10 obj/default/NNLayer.o
                0x00000000000000c4                vtable for NNLayer
 .rodata._ZTS7NNLayer
                0x00000000000000d4        0x9 obj/default/NNLayer.o
                0x00000000000000d4                typeinfo name for NNLayer
 *fill*         0x00000000000000dd        0x3 
 .rodata        0x00000000000000e0       0x70 obj/default/main.o
 .rodata.str1.4
                0x0000000000000150        0xf c:/intelfpga_lite/18.1/nios2eds/bin/gnu/h-x86_64-mingw32/bin/../lib/gcc/nios2-elf/5.3.0/../../../../../H-x86_64-mingw32/nios2-elf/lib/pg\libstdc++.a(bad_alloc.o)
 *fill*         0x000000000000015f        0x1 
 .rodata._ZTSSt9bad_alloc
                0x0000000000000160        0xd c:/intelfpga_lite/18.1/nios2eds/bin/gnu/h-x86_64-mingw32/bin/../lib/gcc/nios2-elf/5.3.0/../../../../../H-x86_64-mingw32/nios2-elf/lib/pg\libstdc++.a(bad_alloc.o)
                0x0000000000000160                typeinfo name for std::bad_alloc
 *fill*         0x000000000000016d        0x3 
 .rodata._ZTISt9bad_alloc
                0x0000000000000170        0xc c:/intelfpga_lite/18.1/nios2eds/bin/gnu/h-x86_64-mingw32/bin/../lib/gcc/nios2-elf/5.3.0/../../../../../H-x86_64-mingw32/nios2-elf/lib/pg\libstdc++.a(bad_alloc.o)
                0x0000000000000170                typeinfo for std::bad_alloc
 .rodata._ZTVSt9bad_alloc
                0x000000000000017c       0x14 c:/intelfpga_lite/18.1/nios2eds/bin/gnu/h-x86_64-mingw32/bin/../lib/gcc/nios2-elf/5.3.0/../../../../../H-x86_64-mingw32/nios2-elf/lib/pg\libstdc++.a(bad_alloc.o)
                0x000000000000017c                vtable for std::bad_alloc
 .rodata._ZTSN10__cxxabiv117__class_type_infoE
                0x0000000000000190       0x22 c:/intelfpga_lite/18.1/nios2eds/bin/gnu/h-x86_64-mingw32/bin/../lib/gcc/nios2-elf/5.3.0/../../../../../H-x86_64-mingw32/nios2-elf/lib/pg\libstdc++.a(class_type_info.o)
                0x0000000000000190                typeinfo name for __cxxabiv1::__class_type_info
 *fill*         0x00000000000001b2        0x2 
 .rodata._ZTIN10__cxxabiv117__class_type_infoE
                0x00000000000001b4        0xc c:/intelfpga_lite/18.1/nios2eds/bin/gnu/h-x86_64-mingw32/bin/../lib/gcc/nios2-elf/5.3.0/../../../../../H-x86_64-mingw32/nios2-elf/lib/pg\libstdc++.a(class_type_info.o)
                0x00000000000001b4                typeinfo for __cxxabiv1::__class_type_info
 .rodata._ZTVN10__cxxabiv117__class_type_infoE
                0x00000000000001c0       0x2c c:/intelfpga_lite/18.1/nios2eds/bin/gnu/h-x86_64-mingw32/bin/../lib/gcc/nios2-elf/5.3.0/../../../../../H-x86_64-mingw32/nios2-elf/lib/pg\libstdc++.a(class_type_info.o)
                0x00000000000001c0                vtable for __cxxabiv1::__class_type_info
 .rodata._ZTSN10__cxxabiv120__si_class_type_infoE
                0x00000000000001ec       0x25 c:/intelfpga_lite/18.1/nios2eds/bin/gnu/h-x86_64-mingw32/bin/../lib/gcc/nios2-elf/5.3.0/../../../../../H-x86_64-mingw32/nios2-elf/lib/pg\libstdc++.a(si_class_type_info.o)
                0x00000000000001ec                typeinfo name for __cxxabiv1::__si_class_type_info
 *fill*         0x0000000000000211        0x3 
 .rodata._ZTIN10__cxxabiv120__si_class_type_infoE
                0x0000000000000214        0xc c:/intelfpga_lite/18.1/nios2eds/bin/gnu/h-x86_64-mingw32/bin/../lib/gcc/nios2-elf/5.3.0/../../../../../H-x86_64-mingw32/nios2-elf/lib/pg\libstdc++.a(si_class_type_info.o)
                0x0000000000000214                typeinfo for __cxxabiv1::__si_class_type_info
 .rodata._ZTVN10__cxxabiv120__si_class_type_infoE
                0x0000000000000220       0x2c c:/intelfpga_lite/18.1/nios2eds/bin/gnu/h-x86_64-mingw32/bin/../lib/gcc/nios2-elf/5.3.0/../../../../../H-x86_64-mingw32/nios2-elf/lib/pg\libstdc++.a(si_class_type_info.o)
                0x0000000000000220                vtable for __cxxabiv1::__si_class_type_info
 .rodata.str1.4
                0x000000000000024c       0x23 c:/intelfpga_lite/18.1/nios2eds/bin/gnu/h-x86_64-mingw32/bin/../lib/gcc/nios2-elf/5.3.0/../../../../../H-x86_64-mingw32/nios2-elf/lib/pg\libstdc++.a(eh_exception.o)
 *fill*         0x000000000000026f        0x1 
 .rodata._ZTSSt9exception
                0x0000000000000270        0xd c:/intelfpga_lite/18.1/nios2eds/bin/gnu/h-x86_64-mingw32/bin/../lib/gcc/nios2-elf/5.3.0/../../../../../H-x86_64-mingw32/nios2-elf/lib/pg\libstdc++.a(eh_exception.o)
                0x0000000000000270                typeinfo name for std::exception
 *fill*         0x000000000000027d        0x3 
 .rodata._ZTSSt13bad_exception
                0x0000000000000280       0x12 c:/intelfpga_lite/18.1/nios2eds/bin/gnu/h-x86_64-mingw32/bin/../lib/gcc/nios2-elf/5.3.0/../../../../../H-x86_64-mingw32/nios2-elf/lib/pg\libstdc++.a(eh_exception.o)
                0x0000000000000280                typeinfo name for std::bad_exception
 *fill*         0x0000000000000292        0x2 
 .rodata._ZTISt13bad_exception
                0x0000000000000294        0xc c:/intelfpga_lite/18.1/nios2eds/bin/gnu/h-x86_64-mingw32/bin/../lib/gcc/nios2-elf/5.3.0/../../../../../H-x86_64-mingw32/nios2-elf/lib/pg\libstdc++.a(eh_exception.o)
                0x0000000000000294                typeinfo for std::bad_exception
 .rodata._ZTSN10__cxxabiv115__forced_unwindE
                0x00000000000002a0       0x20 c:/intelfpga_lite/18.1/nios2eds/bin/gnu/h-x86_64-mingw32/bin/../lib/gcc/nios2-elf/5.3.0/../../../../../H-x86_64-mingw32/nios2-elf/lib/pg\libstdc++.a(eh_exception.o)
                0x00000000000002a0                typeinfo name for __cxxabiv1::__forced_unwind
 .rodata._ZTSN10__cxxabiv119__foreign_exceptionE
                0x00000000000002c0       0x24 c:/intelfpga_lite/18.1/nios2eds/bin/gnu/h-x86_64-mingw32/bin/../lib/gcc/nios2-elf/5.3.0/../../../../../H-x86_64-mingw32/nios2-elf/lib/pg\libstdc++.a(eh_exception.o)
                0x00000000000002c0                typeinfo name for __cxxabiv1::__foreign_exception
 .rodata._ZTVSt9exception
                0x00000000000002e4       0x14 c:/intelfpga_lite/18.1/nios2eds/bin/gnu/h-x86_64-mingw32/bin/../lib/gcc/nios2-elf/5.3.0/../../../../../H-x86_64-mingw32/nios2-elf/lib/pg\libstdc++.a(eh_exception.o)
                0x00000000000002e4                vtable for std::exception
 .rodata._ZTVSt13bad_exception
                0x00000000000002f8       0x14 c:/intelfpga_lite/18.1/nios2eds/bin/gnu/h-x86_64-mingw32/bin/../lib/gcc/nios2-elf/5.3.0/../../../../../H-x86_64-mingw32/nios2-elf/lib/pg\libstdc++.a(eh_exception.o)
                0x00000000000002f8                vtable for std::bad_exception
 .rodata._ZTVN10__cxxabiv115__forced_unwindE
                0x000000000000030c       0x14 c:/intelfpga_lite/18.1/nios2eds/bin/gnu/h-x86_64-mingw32/bin/../lib/gcc/nios2-elf/5.3.0/../../../../../H-x86_64-mingw32/nios2-elf/lib/pg\libstdc++.a(eh_exception.o)
                0x000000000000030c                vtable for __cxxabiv1::__forced_unwind
 .rodata._ZTVN10__cxxabiv119__foreign_exceptionE
                0x0000000000000320       0x14 c:/intelfpga_lite/18.1/nios2eds/bin/gnu/h-x86_64-mingw32/bin/../lib/gcc/nios2-elf/5.3.0/../../../../../H-x86_64-mingw32/nios2-elf/lib/pg\libstdc++.a(eh_exception.o)
                0x0000000000000320                vtable for __cxxabiv1::__foreign_exception
 .rodata._ZTSSt9type_info
                0x0000000000000334        0xd c:/intelfpga_lite/18.1/nios2eds/bin/gnu/h-x86_64-mingw32/bin/../lib/gcc/nios2-elf/5.3.0/../../../../../H-x86_64-mingw32/nios2-elf/lib/pg\libstdc++.a(tinfo.o)
                0x0000000000000334                typeinfo name for std::type_info
 *fill*         0x0000000000000341        0x3 
 .rodata._ZTVSt9type_info
                0x0000000000000344       0x20 c:/intelfpga_lite/18.1/nios2eds/bin/gnu/h-x86_64-mingw32/bin/../lib/gcc/nios2-elf/5.3.0/../../../../../H-x86_64-mingw32/nios2-elf/lib/pg\libstdc++.a(tinfo.o)
                0x0000000000000344                vtable for std::type_info
 .rodata.str1.4
                0x0000000000000364       0x3b c:/intelfpga_lite/18.1/nios2eds/bin/gnu/h-x86_64-mingw32/bin/../lib/gcc/nios2-elf/5.3.0/../../../../../H-x86_64-mingw32/nios2-elf/lib/pg\libstdc++.a(pure.o)
 .rodata        0x000000000000039f      0x100 c:/intelfpga_lite/18.1/nios2eds/bin/gnu/h-x86_64-mingw32/bin/../lib/gcc/nios2-elf/5.3.0/pg\libgcc.a(_clz.o)
                0x000000000000039f                __clz_tab
 *fill*         0x000000000000049f        0x1 
 .rodata.str1.4
                0x00000000000004a0        0x2 c:/intelfpga_lite/18.1/nios2eds/bin/gnu/h-x86_64-mingw32/bin/../lib/gcc/nios2-elf/5.3.0/../../../../../H-x86_64-mingw32/nios2-elf/lib/pg\libc.a(lib_a-puts.o)
 *fill*         0x00000000000004a2        0x2 
 .rodata.str1.4
                0x00000000000004a4       0x42 c:/intelfpga_lite/18.1/nios2eds/bin/gnu/h-x86_64-mingw32/bin/../lib/gcc/nios2-elf/5.3.0/../../../../../H-x86_64-mingw32/nios2-elf/lib/pg\libc.a(lib_a-vfprintf.o)
 .rodata.zeroes.4404
                0x00000000000004e6       0x10 c:/intelfpga_lite/18.1/nios2eds/bin/gnu/h-x86_64-mingw32/bin/../lib/gcc/nios2-elf/5.3.0/../../../../../H-x86_64-mingw32/nios2-elf/lib/pg\libc.a(lib_a-vfprintf.o)
 .rodata.blanks.4403
                0x00000000000004f6       0x10 c:/intelfpga_lite/18.1/nios2eds/bin/gnu/h-x86_64-mingw32/bin/../lib/gcc/nios2-elf/5.3.0/../../../../../H-x86_64-mingw32/nios2-elf/lib/pg\libc.a(lib_a-vfprintf.o)
 *fill*         0x0000000000000506        0x2 
 .rodata.str1.4
                0x0000000000000508       0x10 c:/intelfpga_lite/18.1/nios2eds/bin/gnu/h-x86_64-mingw32/bin/../lib/gcc/nios2-elf/5.3.0/../../../../../H-x86_64-mingw32/nios2-elf/lib/pg\libc.a(lib_a-dtoa.o)
                                         0x12 (size before relaxing)
 .rodata.str1.4
                0x0000000000000518        0x2 c:/intelfpga_lite/18.1/nios2eds/bin/gnu/h-x86_64-mingw32/bin/../lib/gcc/nios2-elf/5.3.0/../../../../../H-x86_64-mingw32/nios2-elf/lib/pg\libc.a(lib_a-impure.o)
 *fill*         0x000000000000051a        0x2 
 .rodata.str1.4
                0x000000000000051c        0xa c:/intelfpga_lite/18.1/nios2eds/bin/gnu/h-x86_64-mingw32/bin/../lib/gcc/nios2-elf/5.3.0/../../../../../H-x86_64-mingw32/nios2-elf/lib/pg\libc.a(lib_a-locale.o)
                                         0x12 (size before relaxing)
 *fill*         0x0000000000000526        0x2 
 .rodata.p05.2768
                0x0000000000000528        0xc c:/intelfpga_lite/18.1/nios2eds/bin/gnu/h-x86_64-mingw32/bin/../lib/gcc/nios2-elf/5.3.0/../../../../../H-x86_64-mingw32/nios2-elf/lib/pg\libc.a(lib_a-mprec.o)
 .rodata.__mprec_tinytens
                0x0000000000000534       0x28 c:/intelfpga_lite/18.1/nios2eds/bin/gnu/h-x86_64-mingw32/bin/../lib/gcc/nios2-elf/5.3.0/../../../../../H-x86_64-mingw32/nios2-elf/lib/pg\libc.a(lib_a-mprec.o)
                0x0000000000000534                __mprec_tinytens
 .rodata.__mprec_bigtens
                0x000000000000055c       0x28 c:/intelfpga_lite/18.1/nios2eds/bin/gnu/h-x86_64-mingw32/bin/../lib/gcc/nios2-elf/5.3.0/../../../../../H-x86_64-mingw32/nios2-elf/lib/pg\libc.a(lib_a-mprec.o)
                0x000000000000055c                __mprec_bigtens
 .rodata.__mprec_tens
                0x0000000000000584       0xc8 c:/intelfpga_lite/18.1/nios2eds/bin/gnu/h-x86_64-mingw32/bin/../lib/gcc/nios2-elf/5.3.0/../../../../../H-x86_64-mingw32/nios2-elf/lib/pg\libc.a(lib_a-mprec.o)
                0x0000000000000584                __mprec_tens
 .rodata.str1.4
                0x000000000000064c       0x2f c:/intelfpga_lite/18.1/nios2eds/bin/gnu/h-x86_64-mingw32/bin/../lib/gcc/nios2-elf/5.3.0/../../../../../H-x86_64-mingw32/nios2-elf/lib/pg\libc.a(lib_a-vfiprintf.o)
 .rodata.zeroes.4349
                0x000000000000064c       0x10 c:/intelfpga_lite/18.1/nios2eds/bin/gnu/h-x86_64-mingw32/bin/../lib/gcc/nios2-elf/5.3.0/../../../../../H-x86_64-mingw32/nios2-elf/lib/pg\libc.a(lib_a-vfiprintf.o)
 .rodata.blanks.4348
                0x000000000000065c       0x10 c:/intelfpga_lite/18.1/nios2eds/bin/gnu/h-x86_64-mingw32/bin/../lib/gcc/nios2-elf/5.3.0/../../../../../H-x86_64-mingw32/nios2-elf/lib/pg\libc.a(lib_a-vfiprintf.o)
 .rodata.str1.4
                0x000000000000066c        0xa ../LUTBrain_NIOS_bsp/\libhal_bsp.a(alt_dev.o)
 *fill*         0x0000000000000676        0x2 
 .rodata.str1.4
                0x0000000000000678       0x10 ../LUTBrain_NIOS_bsp/\libhal_bsp.a(alt_main.o)
                                          0xf (size before relaxing)
 .rodata.str1.4
                0x0000000000000688        0xf ../LUTBrain_NIOS_bsp/\libhal_bsp.a(alt_sys_init.o)
 *(.rodata1)
                0x0000000000000698                . = ALIGN (0x4)
                0x0000000000000698                PROVIDE (__ram_rodata_end, ABSOLUTE (.))
                0x0000000004035d98                PROVIDE (__flash_rodata_start, LOADADDR (.rodata))

.rwdata         0x0000000000000688     0x1b54 load address 0x0000000004036420
                0x0000000000000688                PROVIDE (__ram_rwdata_start, ABSOLUTE (.))
                0x0000000000000688                . = ALIGN (0x4)
 *(.got.plt)
 *(.got)
 *(.data1)
 *(.data .data.* .gnu.linkonce.d.*)
 .data          0x0000000000000688        0x0 ../LUTBrain_NIOS_bsp//obj/HAL/src/crt0.o
 .data          0x0000000000000688        0x0 obj/default/Image.o
 .data          0x0000000000000688        0x0 obj/default/NN.o
 .data          0x0000000000000688        0x0 obj/default/NNLayer.o
 .data          0x0000000000000688        0x0 obj/default/VGA.o
 .data          0x0000000000000688        0x0 obj/default/main.o
 .data          0x0000000000000688        0x0 c:/intelfpga_lite/18.1/nios2eds/bin/gnu/h-x86_64-mingw32/bin/../lib/gcc/nios2-elf/5.3.0/../../../../../H-x86_64-mingw32/nios2-elf/lib/pg\libstdc++.a(new_opv.o)
 .data          0x0000000000000688        0x0 c:/intelfpga_lite/18.1/nios2eds/bin/gnu/h-x86_64-mingw32/bin/../lib/gcc/nios2-elf/5.3.0/../../../../../H-x86_64-mingw32/nios2-elf/lib/pg\libstdc++.a(new_op.o)
 .data          0x0000000000000688        0x0 c:/intelfpga_lite/18.1/nios2eds/bin/gnu/h-x86_64-mingw32/bin/../lib/gcc/nios2-elf/5.3.0/../../../../../H-x86_64-mingw32/nios2-elf/lib/pg\libstdc++.a(del_opv.o)
 .data          0x0000000000000688        0x0 c:/intelfpga_lite/18.1/nios2eds/bin/gnu/h-x86_64-mingw32/bin/../lib/gcc/nios2-elf/5.3.0/../../../../../H-x86_64-mingw32/nios2-elf/lib/pg\libstdc++.a(new_handler.o)
 .data          0x0000000000000688        0x0 c:/intelfpga_lite/18.1/nios2eds/bin/gnu/h-x86_64-mingw32/bin/../lib/gcc/nios2-elf/5.3.0/../../../../../H-x86_64-mingw32/nios2-elf/lib/pg\libstdc++.a(eh_personality.o)
 .data          0x0000000000000688        0x0 c:/intelfpga_lite/18.1/nios2eds/bin/gnu/h-x86_64-mingw32/bin/../lib/gcc/nios2-elf/5.3.0/../../../../../H-x86_64-mingw32/nios2-elf/lib/pg\libstdc++.a(bad_alloc.o)
 .data          0x0000000000000688        0x0 c:/intelfpga_lite/18.1/nios2eds/bin/gnu/h-x86_64-mingw32/bin/../lib/gcc/nios2-elf/5.3.0/../../../../../H-x86_64-mingw32/nios2-elf/lib/pg\libstdc++.a(del_op.o)
 .data          0x0000000000000688        0x0 c:/intelfpga_lite/18.1/nios2eds/bin/gnu/h-x86_64-mingw32/bin/../lib/gcc/nios2-elf/5.3.0/../../../../../H-x86_64-mingw32/nios2-elf/lib/pg\libstdc++.a(eh_throw.o)
 .data          0x0000000000000688        0x0 c:/intelfpga_lite/18.1/nios2eds/bin/gnu/h-x86_64-mingw32/bin/../lib/gcc/nios2-elf/5.3.0/../../../../../H-x86_64-mingw32/nios2-elf/lib/pg\libstdc++.a(eh_catch.o)
 .data          0x0000000000000688        0x0 c:/intelfpga_lite/18.1/nios2eds/bin/gnu/h-x86_64-mingw32/bin/../lib/gcc/nios2-elf/5.3.0/../../../../../H-x86_64-mingw32/nios2-elf/lib/pg\libstdc++.a(class_type_info.o)
 .data          0x0000000000000688        0x0 c:/intelfpga_lite/18.1/nios2eds/bin/gnu/h-x86_64-mingw32/bin/../lib/gcc/nios2-elf/5.3.0/../../../../../H-x86_64-mingw32/nios2-elf/lib/pg\libstdc++.a(eh_terminate.o)
 .data          0x0000000000000688        0x0 c:/intelfpga_lite/18.1/nios2eds/bin/gnu/h-x86_64-mingw32/bin/../lib/gcc/nios2-elf/5.3.0/../../../../../H-x86_64-mingw32/nios2-elf/lib/pg\libstdc++.a(eh_unex_handler.o)
 .data          0x0000000000000688        0x0 c:/intelfpga_lite/18.1/nios2eds/bin/gnu/h-x86_64-mingw32/bin/../lib/gcc/nios2-elf/5.3.0/../../../../../H-x86_64-mingw32/nios2-elf/lib/pg\libstdc++.a(eh_alloc.o)
 .data          0x0000000000000688        0x0 c:/intelfpga_lite/18.1/nios2eds/bin/gnu/h-x86_64-mingw32/bin/../lib/gcc/nios2-elf/5.3.0/../../../../../H-x86_64-mingw32/nios2-elf/lib/pg\libstdc++.a(eh_call.o)
 .data          0x0000000000000688        0x0 c:/intelfpga_lite/18.1/nios2eds/bin/gnu/h-x86_64-mingw32/bin/../lib/gcc/nios2-elf/5.3.0/../../../../../H-x86_64-mingw32/nios2-elf/lib/pg\libstdc++.a(eh_globals.o)
 .data          0x0000000000000688        0x0 c:/intelfpga_lite/18.1/nios2eds/bin/gnu/h-x86_64-mingw32/bin/../lib/gcc/nios2-elf/5.3.0/../../../../../H-x86_64-mingw32/nios2-elf/lib/pg\libstdc++.a(si_class_type_info.o)
 .data          0x0000000000000688        0x0 c:/intelfpga_lite/18.1/nios2eds/bin/gnu/h-x86_64-mingw32/bin/../lib/gcc/nios2-elf/5.3.0/../../../../../H-x86_64-mingw32/nios2-elf/lib/pg\libstdc++.a(eh_exception.o)
 .data          0x0000000000000688        0x0 c:/intelfpga_lite/18.1/nios2eds/bin/gnu/h-x86_64-mingw32/bin/../lib/gcc/nios2-elf/5.3.0/../../../../../H-x86_64-mingw32/nios2-elf/lib/pg\libstdc++.a(eh_term_handler.o)
 .data          0x0000000000000688        0x0 c:/intelfpga_lite/18.1/nios2eds/bin/gnu/h-x86_64-mingw32/bin/../lib/gcc/nios2-elf/5.3.0/../../../../../H-x86_64-mingw32/nios2-elf/lib/pg\libstdc++.a(tinfo.o)
 .data          0x0000000000000688        0x0 c:/intelfpga_lite/18.1/nios2eds/bin/gnu/h-x86_64-mingw32/bin/../lib/gcc/nios2-elf/5.3.0/../../../../../H-x86_64-mingw32/nios2-elf/lib/pg\libstdc++.a(pure.o)
 .data          0x0000000000000688        0x0 c:/intelfpga_lite/18.1/nios2eds/bin/gnu/h-x86_64-mingw32/bin/../lib/gcc/nios2-elf/5.3.0/pg\libgcc.a(_fixunssfsi.o)
 .data          0x0000000000000688        0x0 c:/intelfpga_lite/18.1/nios2eds/bin/gnu/h-x86_64-mingw32/bin/../lib/gcc/nios2-elf/5.3.0/pg\libgcc.a(lib2-divmod.o)
 .data          0x0000000000000688        0x0 c:/intelfpga_lite/18.1/nios2eds/bin/gnu/h-x86_64-mingw32/bin/../lib/gcc/nios2-elf/5.3.0/pg\libgcc.a(addsf3.o)
 .data          0x0000000000000688        0x0 c:/intelfpga_lite/18.1/nios2eds/bin/gnu/h-x86_64-mingw32/bin/../lib/gcc/nios2-elf/5.3.0/pg\libgcc.a(divsf3.o)
 .data          0x0000000000000688        0x0 c:/intelfpga_lite/18.1/nios2eds/bin/gnu/h-x86_64-mingw32/bin/../lib/gcc/nios2-elf/5.3.0/pg\libgcc.a(eqsf2.o)
 .data          0x0000000000000688        0x0 c:/intelfpga_lite/18.1/nios2eds/bin/gnu/h-x86_64-mingw32/bin/../lib/gcc/nios2-elf/5.3.0/pg\libgcc.a(gesf2.o)
 .data          0x0000000000000688        0x0 c:/intelfpga_lite/18.1/nios2eds/bin/gnu/h-x86_64-mingw32/bin/../lib/gcc/nios2-elf/5.3.0/pg\libgcc.a(mulsf3.o)
 .data          0x0000000000000688        0x0 c:/intelfpga_lite/18.1/nios2eds/bin/gnu/h-x86_64-mingw32/bin/../lib/gcc/nios2-elf/5.3.0/pg\libgcc.a(subsf3.o)
 .data          0x0000000000000688        0x0 c:/intelfpga_lite/18.1/nios2eds/bin/gnu/h-x86_64-mingw32/bin/../lib/gcc/nios2-elf/5.3.0/pg\libgcc.a(fixsfsi.o)
 .data          0x0000000000000688        0x0 c:/intelfpga_lite/18.1/nios2eds/bin/gnu/h-x86_64-mingw32/bin/../lib/gcc/nios2-elf/5.3.0/pg\libgcc.a(floatsisf.o)
 .data          0x0000000000000688        0x0 c:/intelfpga_lite/18.1/nios2eds/bin/gnu/h-x86_64-mingw32/bin/../lib/gcc/nios2-elf/5.3.0/pg\libgcc.a(floatunsisf.o)
 .data          0x0000000000000688        0x0 c:/intelfpga_lite/18.1/nios2eds/bin/gnu/h-x86_64-mingw32/bin/../lib/gcc/nios2-elf/5.3.0/pg\libgcc.a(divdf3.o)
 .data          0x0000000000000688        0x0 c:/intelfpga_lite/18.1/nios2eds/bin/gnu/h-x86_64-mingw32/bin/../lib/gcc/nios2-elf/5.3.0/pg\libgcc.a(floatsidf.o)
 .data          0x0000000000000688        0x0 c:/intelfpga_lite/18.1/nios2eds/bin/gnu/h-x86_64-mingw32/bin/../lib/gcc/nios2-elf/5.3.0/pg\libgcc.a(extendsfdf2.o)
 .data          0x0000000000000688        0x0 c:/intelfpga_lite/18.1/nios2eds/bin/gnu/h-x86_64-mingw32/bin/../lib/gcc/nios2-elf/5.3.0/pg\libgcc.a(truncdfsf2.o)
 .data          0x0000000000000688        0x0 c:/intelfpga_lite/18.1/nios2eds/bin/gnu/h-x86_64-mingw32/bin/../lib/gcc/nios2-elf/5.3.0/pg\libgcc.a(unwind-sjlj.o)
 .data          0x0000000000000688        0x0 c:/intelfpga_lite/18.1/nios2eds/bin/gnu/h-x86_64-mingw32/bin/../lib/gcc/nios2-elf/5.3.0/pg\libgcc.a(_clzsi2.o)
 .data          0x0000000000000688        0x0 c:/intelfpga_lite/18.1/nios2eds/bin/gnu/h-x86_64-mingw32/bin/../lib/gcc/nios2-elf/5.3.0/pg\libgcc.a(_clz.o)
 .data          0x0000000000000688        0x0 c:/intelfpga_lite/18.1/nios2eds/bin/gnu/h-x86_64-mingw32/bin/../lib/gcc/nios2-elf/5.3.0/../../../../../H-x86_64-mingw32/nios2-elf/lib/pg\libc.a(lib_a-abort.o)
 .data          0x0000000000000688        0x0 c:/intelfpga_lite/18.1/nios2eds/bin/gnu/h-x86_64-mingw32/bin/../lib/gcc/nios2-elf/5.3.0/../../../../../H-x86_64-mingw32/nios2-elf/lib/pg\libc.a(lib_a-malloc.o)
 .data          0x0000000000000688        0x0 c:/intelfpga_lite/18.1/nios2eds/bin/gnu/h-x86_64-mingw32/bin/../lib/gcc/nios2-elf/5.3.0/../../../../../H-x86_64-mingw32/nios2-elf/lib/pg\libc.a(lib_a-mallocr.o)
 .data.__malloc_av_
                0x0000000000000688      0x408 c:/intelfpga_lite/18.1/nios2eds/bin/gnu/h-x86_64-mingw32/bin/../lib/gcc/nios2-elf/5.3.0/../../../../../H-x86_64-mingw32/nios2-elf/lib/pg\libc.a(lib_a-mallocr.o)
                0x0000000000000688                __malloc_av_
 .data          0x0000000000000a90        0x0 c:/intelfpga_lite/18.1/nios2eds/bin/gnu/h-x86_64-mingw32/bin/../lib/gcc/nios2-elf/5.3.0/../../../../../H-x86_64-mingw32/nios2-elf/lib/pg\libc.a(lib_a-memset.o)
 .data          0x0000000000000a90        0x0 c:/intelfpga_lite/18.1/nios2eds/bin/gnu/h-x86_64-mingw32/bin/../lib/gcc/nios2-elf/5.3.0/../../../../../H-x86_64-mingw32/nios2-elf/lib/pg\libc.a(lib_a-printf.o)
 .data          0x0000000000000a90        0x0 c:/intelfpga_lite/18.1/nios2eds/bin/gnu/h-x86_64-mingw32/bin/../lib/gcc/nios2-elf/5.3.0/../../../../../H-x86_64-mingw32/nios2-elf/lib/pg\libc.a(lib_a-putchar.o)
 .data          0x0000000000000a90        0x0 c:/intelfpga_lite/18.1/nios2eds/bin/gnu/h-x86_64-mingw32/bin/../lib/gcc/nios2-elf/5.3.0/../../../../../H-x86_64-mingw32/nios2-elf/lib/pg\libc.a(lib_a-puts.o)
 .data          0x0000000000000a90        0x0 c:/intelfpga_lite/18.1/nios2eds/bin/gnu/h-x86_64-mingw32/bin/../lib/gcc/nios2-elf/5.3.0/../../../../../H-x86_64-mingw32/nios2-elf/lib/pg\libc.a(lib_a-rand.o)
 .data          0x0000000000000a90        0x0 c:/intelfpga_lite/18.1/nios2eds/bin/gnu/h-x86_64-mingw32/bin/../lib/gcc/nios2-elf/5.3.0/../../../../../H-x86_64-mingw32/nios2-elf/lib/pg\libc.a(lib_a-sbrkr.o)
 .data          0x0000000000000a90        0x0 c:/intelfpga_lite/18.1/nios2eds/bin/gnu/h-x86_64-mingw32/bin/../lib/gcc/nios2-elf/5.3.0/../../../../../H-x86_64-mingw32/nios2-elf/lib/pg\libc.a(lib_a-signal.o)
 .data          0x0000000000000a90        0x0 c:/intelfpga_lite/18.1/nios2eds/bin/gnu/h-x86_64-mingw32/bin/../lib/gcc/nios2-elf/5.3.0/../../../../../H-x86_64-mingw32/nios2-elf/lib/pg\libc.a(lib_a-signalr.o)
 .data          0x0000000000000a90        0x0 c:/intelfpga_lite/18.1/nios2eds/bin/gnu/h-x86_64-mingw32/bin/../lib/gcc/nios2-elf/5.3.0/../../../../../H-x86_64-mingw32/nios2-elf/lib/pg\libc.a(lib_a-strcmp.o)
 .data          0x0000000000000a90        0x0 c:/intelfpga_lite/18.1/nios2eds/bin/gnu/h-x86_64-mingw32/bin/../lib/gcc/nios2-elf/5.3.0/../../../../../H-x86_64-mingw32/nios2-elf/lib/pg\libc.a(lib_a-strlen.o)
 .data          0x0000000000000a90        0x0 c:/intelfpga_lite/18.1/nios2eds/bin/gnu/h-x86_64-mingw32/bin/../lib/gcc/nios2-elf/5.3.0/../../../../../H-x86_64-mingw32/nios2-elf/lib/pg\libc.a(lib_a-vfprintf.o)
 .data          0x0000000000000a90        0x0 c:/intelfpga_lite/18.1/nios2eds/bin/gnu/h-x86_64-mingw32/bin/../lib/gcc/nios2-elf/5.3.0/../../../../../H-x86_64-mingw32/nios2-elf/lib/pg\libc.a(lib_a-wsetup.o)
 .data          0x0000000000000a90        0x0 c:/intelfpga_lite/18.1/nios2eds/bin/gnu/h-x86_64-mingw32/bin/../lib/gcc/nios2-elf/5.3.0/../../../../../H-x86_64-mingw32/nios2-elf/lib/pg\libc.a(lib_a-dtoa.o)
 .data          0x0000000000000a90        0x0 c:/intelfpga_lite/18.1/nios2eds/bin/gnu/h-x86_64-mingw32/bin/../lib/gcc/nios2-elf/5.3.0/../../../../../H-x86_64-mingw32/nios2-elf/lib/pg\libc.a(lib_a-fflush.o)
 .data          0x0000000000000a90        0x0 c:/intelfpga_lite/18.1/nios2eds/bin/gnu/h-x86_64-mingw32/bin/../lib/gcc/nios2-elf/5.3.0/../../../../../H-x86_64-mingw32/nios2-elf/lib/pg\libc.a(lib_a-findfp.o)
 .data          0x0000000000000a90        0x0 c:/intelfpga_lite/18.1/nios2eds/bin/gnu/h-x86_64-mingw32/bin/../lib/gcc/nios2-elf/5.3.0/../../../../../H-x86_64-mingw32/nios2-elf/lib/pg\libc.a(lib_a-freer.o)
 .data          0x0000000000000a90        0x0 c:/intelfpga_lite/18.1/nios2eds/bin/gnu/h-x86_64-mingw32/bin/../lib/gcc/nios2-elf/5.3.0/../../../../../H-x86_64-mingw32/nios2-elf/lib/pg\libc.a(lib_a-fvwrite.o)
 .data          0x0000000000000a90        0x0 c:/intelfpga_lite/18.1/nios2eds/bin/gnu/h-x86_64-mingw32/bin/../lib/gcc/nios2-elf/5.3.0/../../../../../H-x86_64-mingw32/nios2-elf/lib/pg\libc.a(lib_a-fwalk.o)
 .data          0x0000000000000a90        0x0 c:/intelfpga_lite/18.1/nios2eds/bin/gnu/h-x86_64-mingw32/bin/../lib/gcc/nios2-elf/5.3.0/../../../../../H-x86_64-mingw32/nios2-elf/lib/pg\libc.a(lib_a-impure.o)
 .data.impure_data
                0x0000000000000a90      0x424 c:/intelfpga_lite/18.1/nios2eds/bin/gnu/h-x86_64-mingw32/bin/../lib/gcc/nios2-elf/5.3.0/../../../../../H-x86_64-mingw32/nios2-elf/lib/pg\libc.a(lib_a-impure.o)
 .data          0x0000000000000eb4        0x0 c:/intelfpga_lite/18.1/nios2eds/bin/gnu/h-x86_64-mingw32/bin/../lib/gcc/nios2-elf/5.3.0/../../../../../H-x86_64-mingw32/nios2-elf/lib/pg\libc.a(lib_a-int_errno.o)
 .data          0x0000000000000eb4        0x0 c:/intelfpga_lite/18.1/nios2eds/bin/gnu/h-x86_64-mingw32/bin/../lib/gcc/nios2-elf/5.3.0/../../../../../H-x86_64-mingw32/nios2-elf/lib/pg\libc.a(lib_a-locale.o)
 .data.lc_message_charset
                0x0000000000000eb4       0x20 c:/intelfpga_lite/18.1/nios2eds/bin/gnu/h-x86_64-mingw32/bin/../lib/gcc/nios2-elf/5.3.0/../../../../../H-x86_64-mingw32/nios2-elf/lib/pg\libc.a(lib_a-locale.o)
 .data.lc_ctype_charset
                0x0000000000000ed4       0x20 c:/intelfpga_lite/18.1/nios2eds/bin/gnu/h-x86_64-mingw32/bin/../lib/gcc/nios2-elf/5.3.0/../../../../../H-x86_64-mingw32/nios2-elf/lib/pg\libc.a(lib_a-locale.o)
 .data.lconv    0x0000000000000ef4       0x38 c:/intelfpga_lite/18.1/nios2eds/bin/gnu/h-x86_64-mingw32/bin/../lib/gcc/nios2-elf/5.3.0/../../../../../H-x86_64-mingw32/nios2-elf/lib/pg\libc.a(lib_a-locale.o)
 .data          0x0000000000000f2c        0x0 c:/intelfpga_lite/18.1/nios2eds/bin/gnu/h-x86_64-mingw32/bin/../lib/gcc/nios2-elf/5.3.0/../../../../../H-x86_64-mingw32/nios2-elf/lib/pg\libc.a(lib_a-makebuf.o)
 .data          0x0000000000000f2c        0x0 c:/intelfpga_lite/18.1/nios2eds/bin/gnu/h-x86_64-mingw32/bin/../lib/gcc/nios2-elf/5.3.0/../../../../../H-x86_64-mingw32/nios2-elf/lib/pg\libc.a(lib_a-memchr.o)
 .data          0x0000000000000f2c        0x0 c:/intelfpga_lite/18.1/nios2eds/bin/gnu/h-x86_64-mingw32/bin/../lib/gcc/nios2-elf/5.3.0/../../../../../H-x86_64-mingw32/nios2-elf/lib/pg\libc.a(lib_a-memcpy.o)
 .data          0x0000000000000f2c        0x0 c:/intelfpga_lite/18.1/nios2eds/bin/gnu/h-x86_64-mingw32/bin/../lib/gcc/nios2-elf/5.3.0/../../../../../H-x86_64-mingw32/nios2-elf/lib/pg\libc.a(lib_a-memmove.o)
 .data          0x0000000000000f2c        0x0 c:/intelfpga_lite/18.1/nios2eds/bin/gnu/h-x86_64-mingw32/bin/../lib/gcc/nios2-elf/5.3.0/../../../../../H-x86_64-mingw32/nios2-elf/lib/pg\libc.a(lib_a-mprec.o)
 .data          0x0000000000000f2c        0x0 c:/intelfpga_lite/18.1/nios2eds/bin/gnu/h-x86_64-mingw32/bin/../lib/gcc/nios2-elf/5.3.0/../../../../../H-x86_64-mingw32/nios2-elf/lib/pg\libc.a(lib_a-putc.o)
 .data          0x0000000000000f2c        0x0 c:/intelfpga_lite/18.1/nios2eds/bin/gnu/h-x86_64-mingw32/bin/../lib/gcc/nios2-elf/5.3.0/../../../../../H-x86_64-mingw32/nios2-elf/lib/pg\libc.a(lib_a-reallocr.o)
 .data          0x0000000000000f2c        0x0 c:/intelfpga_lite/18.1/nios2eds/bin/gnu/h-x86_64-mingw32/bin/../lib/gcc/nios2-elf/5.3.0/../../../../../H-x86_64-mingw32/nios2-elf/lib/pg\libc.a(lib_a-s_fpclassify.o)
 .data          0x0000000000000f2c        0x0 c:/intelfpga_lite/18.1/nios2eds/bin/gnu/h-x86_64-mingw32/bin/../lib/gcc/nios2-elf/5.3.0/../../../../../H-x86_64-mingw32/nios2-elf/lib/pg\libc.a(lib_a-stdio.o)
 .data          0x0000000000000f2c        0x0 c:/intelfpga_lite/18.1/nios2eds/bin/gnu/h-x86_64-mingw32/bin/../lib/gcc/nios2-elf/5.3.0/../../../../../H-x86_64-mingw32/nios2-elf/lib/pg\libc.a(lib_a-vfiprintf.o)
 .data          0x0000000000000f2c        0x0 c:/intelfpga_lite/18.1/nios2eds/bin/gnu/h-x86_64-mingw32/bin/../lib/gcc/nios2-elf/5.3.0/../../../../../H-x86_64-mingw32/nios2-elf/lib/pg\libc.a(lib_a-wbuf.o)
 .data          0x0000000000000f2c        0x0 c:/intelfpga_lite/18.1/nios2eds/bin/gnu/h-x86_64-mingw32/bin/../lib/gcc/nios2-elf/5.3.0/../../../../../H-x86_64-mingw32/nios2-elf/lib/pg\libc.a(lib_a-writer.o)
 .data          0x0000000000000f2c        0x0 c:/intelfpga_lite/18.1/nios2eds/bin/gnu/h-x86_64-mingw32/bin/../lib/gcc/nios2-elf/5.3.0/../../../../../H-x86_64-mingw32/nios2-elf/lib/pg\libc.a(closer.o)
 .data          0x0000000000000f2c        0x0 c:/intelfpga_lite/18.1/nios2eds/bin/gnu/h-x86_64-mingw32/bin/../lib/gcc/nios2-elf/5.3.0/../../../../../H-x86_64-mingw32/nios2-elf/lib/pg\libc.a(lib_a-callocr.o)
 .data          0x0000000000000f2c        0x0 c:/intelfpga_lite/18.1/nios2eds/bin/gnu/h-x86_64-mingw32/bin/../lib/gcc/nios2-elf/5.3.0/../../../../../H-x86_64-mingw32/nios2-elf/lib/pg\libc.a(lib_a-fclose.o)
 .data          0x0000000000000f2c        0x0 c:/intelfpga_lite/18.1/nios2eds/bin/gnu/h-x86_64-mingw32/bin/../lib/gcc/nios2-elf/5.3.0/../../../../../H-x86_64-mingw32/nios2-elf/lib/pg\libc.a(lib_a-fputwc.o)
 .data          0x0000000000000f2c        0x0 c:/intelfpga_lite/18.1/nios2eds/bin/gnu/h-x86_64-mingw32/bin/../lib/gcc/nios2-elf/5.3.0/../../../../../H-x86_64-mingw32/nios2-elf/lib/pg\libc.a(lib_a-fstatr.o)
 .data          0x0000000000000f2c        0x0 c:/intelfpga_lite/18.1/nios2eds/bin/gnu/h-x86_64-mingw32/bin/../lib/gcc/nios2-elf/5.3.0/../../../../../H-x86_64-mingw32/nios2-elf/lib/pg\libc.a(lib_a-isattyr.o)
 .data          0x0000000000000f2c        0x0 c:/intelfpga_lite/18.1/nios2eds/bin/gnu/h-x86_64-mingw32/bin/../lib/gcc/nios2-elf/5.3.0/../../../../../H-x86_64-mingw32/nios2-elf/lib/pg\libc.a(lib_a-lseekr.o)
 .data          0x0000000000000f2c        0x0 c:/intelfpga_lite/18.1/nios2eds/bin/gnu/h-x86_64-mingw32/bin/../lib/gcc/nios2-elf/5.3.0/../../../../../H-x86_64-mingw32/nios2-elf/lib/pg\libc.a(lib_a-readr.o)
 .data          0x0000000000000f2c        0x0 c:/intelfpga_lite/18.1/nios2eds/bin/gnu/h-x86_64-mingw32/bin/../lib/gcc/nios2-elf/5.3.0/../../../../../H-x86_64-mingw32/nios2-elf/lib/pg\libc.a(lib_a-wcrtomb.o)
 .data          0x0000000000000f2c        0x0 c:/intelfpga_lite/18.1/nios2eds/bin/gnu/h-x86_64-mingw32/bin/../lib/gcc/nios2-elf/5.3.0/../../../../../H-x86_64-mingw32/nios2-elf/lib/pg\libc.a(lib_a-wctomb_r.o)
 .data          0x0000000000000f2c        0x0 c:/intelfpga_lite/18.1/nios2eds/bin/gnu/h-x86_64-mingw32/bin/../lib/gcc/nios2-elf/5.3.0/pg\libgcc.a(_muldi3.o)
 .data          0x0000000000000f2c        0x0 c:/intelfpga_lite/18.1/nios2eds/bin/gnu/h-x86_64-mingw32/bin/../lib/gcc/nios2-elf/5.3.0/pg\libgcc.a(_udivdi3.o)
 .data          0x0000000000000f2c        0x0 c:/intelfpga_lite/18.1/nios2eds/bin/gnu/h-x86_64-mingw32/bin/../lib/gcc/nios2-elf/5.3.0/pg\libgcc.a(_umoddi3.o)
 .data          0x0000000000000f2c        0x0 c:/intelfpga_lite/18.1/nios2eds/bin/gnu/h-x86_64-mingw32/bin/../lib/gcc/nios2-elf/5.3.0/pg\libgcc.a(adddf3.o)
 .data          0x0000000000000f2c        0x0 c:/intelfpga_lite/18.1/nios2eds/bin/gnu/h-x86_64-mingw32/bin/../lib/gcc/nios2-elf/5.3.0/pg\libgcc.a(eqdf2.o)
 .data          0x0000000000000f2c        0x0 c:/intelfpga_lite/18.1/nios2eds/bin/gnu/h-x86_64-mingw32/bin/../lib/gcc/nios2-elf/5.3.0/pg\libgcc.a(gedf2.o)
 .data          0x0000000000000f2c        0x0 c:/intelfpga_lite/18.1/nios2eds/bin/gnu/h-x86_64-mingw32/bin/../lib/gcc/nios2-elf/5.3.0/pg\libgcc.a(ledf2.o)
 .data          0x0000000000000f2c        0x0 c:/intelfpga_lite/18.1/nios2eds/bin/gnu/h-x86_64-mingw32/bin/../lib/gcc/nios2-elf/5.3.0/pg\libgcc.a(muldf3.o)
 .data          0x0000000000000f2c        0x0 c:/intelfpga_lite/18.1/nios2eds/bin/gnu/h-x86_64-mingw32/bin/../lib/gcc/nios2-elf/5.3.0/pg\libgcc.a(subdf3.o)
 .data          0x0000000000000f2c        0x0 c:/intelfpga_lite/18.1/nios2eds/bin/gnu/h-x86_64-mingw32/bin/../lib/gcc/nios2-elf/5.3.0/pg\libgcc.a(fixdfsi.o)
 .data          0x0000000000000f2c        0x0 c:/intelfpga_lite/18.1/nios2eds/bin/gnu/h-x86_64-mingw32/bin/../lib/gcc/nios2-elf/5.3.0/pg\libgcc.a(floatunsidf.o)
 .data          0x0000000000000f2c        0x0 ../LUTBrain_NIOS_bsp/\libhal_bsp.a(alt_close.o)
 .data          0x0000000000000f2c      0x1a8 ../LUTBrain_NIOS_bsp/\libhal_bsp.a(alt_dev.o)
                0x0000000000000f2c                alt_fd_list
                0x00000000000010ac                alt_dev_null
 .data          0x00000000000010d4        0x0 ../LUTBrain_NIOS_bsp/\libhal_bsp.a(alt_errno.o)
 .data          0x00000000000010d4        0x0 ../LUTBrain_NIOS_bsp/\libhal_bsp.a(alt_exit.o)
 .data          0x00000000000010d4        0x0 ../LUTBrain_NIOS_bsp/\libhal_bsp.a(alt_fstat.o)
 .data          0x00000000000010d4        0x0 ../LUTBrain_NIOS_bsp/\libhal_bsp.a(alt_getpid.o)
 .data          0x00000000000010d4       0x24 ../LUTBrain_NIOS_bsp/\libhal_bsp.a(alt_gmon.o)
                0x00000000000010d4                alt_gmon_data
 .data          0x00000000000010f8        0x0 ../LUTBrain_NIOS_bsp/\libhal_bsp.a(alt_isatty.o)
 .data          0x00000000000010f8        0x0 ../LUTBrain_NIOS_bsp/\libhal_bsp.a(alt_kill.o)
 .data          0x00000000000010f8        0x0 ../LUTBrain_NIOS_bsp/\libhal_bsp.a(alt_load.o)
 .data          0x00000000000010f8        0x0 ../LUTBrain_NIOS_bsp/\libhal_bsp.a(alt_lseek.o)
 .data          0x00000000000010f8        0x0 ../LUTBrain_NIOS_bsp/\libhal_bsp.a(alt_main.o)
 .data          0x00000000000010f8        0x0 ../LUTBrain_NIOS_bsp/\libhal_bsp.a(alt_malloc_lock.o)
 .data          0x00000000000010f8        0x0 ../LUTBrain_NIOS_bsp/\libhal_bsp.a(alt_mcount.o)
 .data          0x00000000000010f8        0x0 ../LUTBrain_NIOS_bsp/\libhal_bsp.a(alt_read.o)
 .data          0x00000000000010f8        0x0 ../LUTBrain_NIOS_bsp/\libhal_bsp.a(alt_release_fd.o)
 .data          0x00000000000010f8        0x0 ../LUTBrain_NIOS_bsp/\libhal_bsp.a(alt_sbrk.o)
 .data          0x00000000000010f8        0x0 ../LUTBrain_NIOS_bsp/\libhal_bsp.a(alt_tick.o)
 .data          0x00000000000010f8        0x0 ../LUTBrain_NIOS_bsp/\libhal_bsp.a(alt_write.o)
 .data          0x00000000000010f8     0x1060 ../LUTBrain_NIOS_bsp/\libhal_bsp.a(alt_sys_init.o)
 .data          0x0000000000002158        0x0 ../LUTBrain_NIOS_bsp/\libhal_bsp.a(altera_avalon_jtag_uart_fd.o)
 .data          0x0000000000002158        0x0 ../LUTBrain_NIOS_bsp/\libhal_bsp.a(altera_avalon_jtag_uart_init.o)
 .data          0x0000000000002158        0x0 ../LUTBrain_NIOS_bsp/\libhal_bsp.a(altera_avalon_jtag_uart_ioctl.o)
 .data          0x0000000000002158        0x0 ../LUTBrain_NIOS_bsp/\libhal_bsp.a(altera_avalon_jtag_uart_read.o)
 .data          0x0000000000002158        0x0 ../LUTBrain_NIOS_bsp/\libhal_bsp.a(altera_avalon_jtag_uart_write.o)
 .data          0x0000000000002158        0x0 ../LUTBrain_NIOS_bsp/\libhal_bsp.a(altera_avalon_timer_sc.o)
 .data          0x0000000000002158        0x0 ../LUTBrain_NIOS_bsp/\libhal_bsp.a(altera_avalon_timer_vars.o)
 .data          0x0000000000002158        0x0 ../LUTBrain_NIOS_bsp/\libhal_bsp.a(alt_alarm_start.o)
 .data          0x0000000000002158        0x0 ../LUTBrain_NIOS_bsp/\libhal_bsp.a(alt_dcache_flush_all.o)
 .data          0x0000000000002158        0x0 ../LUTBrain_NIOS_bsp/\libhal_bsp.a(alt_dev_llist_insert.o)
 .data          0x0000000000002158        0x0 ../LUTBrain_NIOS_bsp/\libhal_bsp.a(alt_do_ctors.o)
 .data          0x0000000000002158        0x0 ../LUTBrain_NIOS_bsp/\libhal_bsp.a(alt_do_dtors.o)
 .data          0x0000000000002158        0x0 ../LUTBrain_NIOS_bsp/\libhal_bsp.a(alt_icache_flush_all.o)
 .data          0x0000000000002158        0x0 ../LUTBrain_NIOS_bsp/\libhal_bsp.a(alt_iic.o)
 .data          0x0000000000002158        0x0 ../LUTBrain_NIOS_bsp/\libhal_bsp.a(alt_iic_isr_register.o)
 .data          0x0000000000002158        0x0 ../LUTBrain_NIOS_bsp/\libhal_bsp.a(alt_io_redirect.o)
 .data          0x0000000000002158        0x0 ../LUTBrain_NIOS_bsp/\libhal_bsp.a(alt_irq_entry.o)
 .data          0x0000000000002158        0x0 ../LUTBrain_NIOS_bsp/\libhal_bsp.a(alt_irq_handler.o)
 .data          0x0000000000002158        0x0 ../LUTBrain_NIOS_bsp/\libhal_bsp.a(alt_irq_vars.o)
 .data          0x0000000000002158        0x0 ../LUTBrain_NIOS_bsp/\libhal_bsp.a(alt_open.o)
 .data          0x0000000000002158        0x0 ../LUTBrain_NIOS_bsp/\libhal_bsp.a(altera_nios2_gen2_irq.o)
 .data          0x0000000000002158        0x0 ../LUTBrain_NIOS_bsp/\libhal_bsp.a(alt_exception_entry.o)
 .data          0x0000000000002158        0x0 ../LUTBrain_NIOS_bsp/\libhal_bsp.a(alt_find_dev.o)
 .data          0x0000000000002158        0x0 ../LUTBrain_NIOS_bsp/\libhal_bsp.a(alt_find_file.o)
 .data          0x0000000000002158        0x0 ../LUTBrain_NIOS_bsp/\libhal_bsp.a(alt_get_fd.o)
 .data          0x0000000000002158        0x0 ../LUTBrain_NIOS_bsp/\libhal_bsp.a(alt_icache_flush.o)
 .data          0x0000000000002158        0x0 ../LUTBrain_NIOS_bsp/\libhal_bsp.a(alt_instruction_exception_entry.o)
 .data          0x0000000000002158        0x0 c:/intelfpga_lite/18.1/nios2eds/bin/gnu/h-x86_64-mingw32/bin/../lib/gcc/nios2-elf/5.3.0/../../../../../H-x86_64-mingw32/nios2-elf/lib/pg\libc.a(lib_a-atexit.o)
 .data          0x0000000000002158        0x0 c:/intelfpga_lite/18.1/nios2eds/bin/gnu/h-x86_64-mingw32/bin/../lib/gcc/nios2-elf/5.3.0/../../../../../H-x86_64-mingw32/nios2-elf/lib/pg\libc.a(lib_a-exit.o)
 .data          0x0000000000002158        0x0 c:/intelfpga_lite/18.1/nios2eds/bin/gnu/h-x86_64-mingw32/bin/../lib/gcc/nios2-elf/5.3.0/../../../../../H-x86_64-mingw32/nios2-elf/lib/pg\libc.a(lib_a-memcmp.o)
 .data          0x0000000000002158        0x0 c:/intelfpga_lite/18.1/nios2eds/bin/gnu/h-x86_64-mingw32/bin/../lib/gcc/nios2-elf/5.3.0/../../../../../H-x86_64-mingw32/nios2-elf/lib/pg\libc.a(lib_a-__atexit.o)
 .data          0x0000000000002158        0x0 c:/intelfpga_lite/18.1/nios2eds/bin/gnu/h-x86_64-mingw32/bin/../lib/gcc/nios2-elf/5.3.0/../../../../../H-x86_64-mingw32/nios2-elf/lib/pg\libc.a(lib_a-__call_atexit.o)
                0x000000000000a158                _gp = ABSOLUTE ((. + 0x8000))
                [!provide]                        PROVIDE (gp, _gp)
 *(.rwdata .rwdata.*)
 *(.sdata .sdata.* .gnu.linkonce.s.*)
 .sdata._ZTI2NN
                0x0000000000002158        0x8 obj/default/NN.o
                0x0000000000002158                typeinfo for NN
 .sdata._ZTS2NN
                0x0000000000002160        0x4 obj/default/NN.o
                0x0000000000002160                typeinfo name for NN
 .sdata._ZTI7NNLayer
                0x0000000000002164        0x8 obj/default/NNLayer.o
                0x0000000000002164                typeinfo for NNLayer
 .sdata._ZSt7nothrow
                0x000000000000216c        0x1 c:/intelfpga_lite/18.1/nios2eds/bin/gnu/h-x86_64-mingw32/bin/../lib/gcc/nios2-elf/5.3.0/../../../../../H-x86_64-mingw32/nios2-elf/lib/pg\libstdc++.a(new_handler.o)
                0x000000000000216c                std::nothrow
 *fill*         0x000000000000216d        0x3 
 .sdata._ZN10__cxxabiv120__unexpected_handlerE
                0x0000000000002170        0x4 c:/intelfpga_lite/18.1/nios2eds/bin/gnu/h-x86_64-mingw32/bin/../lib/gcc/nios2-elf/5.3.0/../../../../../H-x86_64-mingw32/nios2-elf/lib/pg\libstdc++.a(eh_unex_handler.o)
                0x0000000000002170                __cxxabiv1::__unexpected_handler
 .sdata._ZTISt9exception
                0x0000000000002174        0x8 c:/intelfpga_lite/18.1/nios2eds/bin/gnu/h-x86_64-mingw32/bin/../lib/gcc/nios2-elf/5.3.0/../../../../../H-x86_64-mingw32/nios2-elf/lib/pg\libstdc++.a(eh_exception.o)
                0x0000000000002174                typeinfo for std::exception
 .sdata._ZTIN10__cxxabiv115__forced_unwindE
                0x000000000000217c        0x8 c:/intelfpga_lite/18.1/nios2eds/bin/gnu/h-x86_64-mingw32/bin/../lib/gcc/nios2-elf/5.3.0/../../../../../H-x86_64-mingw32/nios2-elf/lib/pg\libstdc++.a(eh_exception.o)
                0x000000000000217c                typeinfo for __cxxabiv1::__forced_unwind
 .sdata._ZTIN10__cxxabiv119__foreign_exceptionE
                0x0000000000002184        0x8 c:/intelfpga_lite/18.1/nios2eds/bin/gnu/h-x86_64-mingw32/bin/../lib/gcc/nios2-elf/5.3.0/../../../../../H-x86_64-mingw32/nios2-elf/lib/pg\libstdc++.a(eh_exception.o)
                0x0000000000002184                typeinfo for __cxxabiv1::__foreign_exception
 .sdata._ZN10__cxxabiv119__terminate_handlerE
                0x000000000000218c        0x4 c:/intelfpga_lite/18.1/nios2eds/bin/gnu/h-x86_64-mingw32/bin/../lib/gcc/nios2-elf/5.3.0/../../../../../H-x86_64-mingw32/nios2-elf/lib/pg\libstdc++.a(eh_term_handler.o)
                0x000000000000218c                __cxxabiv1::__terminate_handler
 .sdata._ZTISt9type_info
                0x0000000000002190        0x8 c:/intelfpga_lite/18.1/nios2eds/bin/gnu/h-x86_64-mingw32/bin/../lib/gcc/nios2-elf/5.3.0/../../../../../H-x86_64-mingw32/nios2-elf/lib/pg\libstdc++.a(tinfo.o)
                0x0000000000002190                typeinfo for std::type_info
 .sdata.__malloc_sbrk_base
                0x0000000000002198        0x4 c:/intelfpga_lite/18.1/nios2eds/bin/gnu/h-x86_64-mingw32/bin/../lib/gcc/nios2-elf/5.3.0/../../../../../H-x86_64-mingw32/nios2-elf/lib/pg\libc.a(lib_a-mallocr.o)
                0x0000000000002198                __malloc_sbrk_base
 .sdata.__malloc_trim_threshold
                0x000000000000219c        0x4 c:/intelfpga_lite/18.1/nios2eds/bin/gnu/h-x86_64-mingw32/bin/../lib/gcc/nios2-elf/5.3.0/../../../../../H-x86_64-mingw32/nios2-elf/lib/pg\libc.a(lib_a-mallocr.o)
                0x000000000000219c                __malloc_trim_threshold
 .sdata._global_impure_ptr
                0x00000000000021a0        0x4 c:/intelfpga_lite/18.1/nios2eds/bin/gnu/h-x86_64-mingw32/bin/../lib/gcc/nios2-elf/5.3.0/../../../../../H-x86_64-mingw32/nios2-elf/lib/pg\libc.a(lib_a-impure.o)
                0x00000000000021a0                _global_impure_ptr
 .sdata._impure_ptr
                0x00000000000021a4        0x4 c:/intelfpga_lite/18.1/nios2eds/bin/gnu/h-x86_64-mingw32/bin/../lib/gcc/nios2-elf/5.3.0/../../../../../H-x86_64-mingw32/nios2-elf/lib/pg\libc.a(lib_a-impure.o)
                0x00000000000021a4                _impure_ptr
 .sdata.__mb_cur_max
                0x00000000000021a8        0x4 c:/intelfpga_lite/18.1/nios2eds/bin/gnu/h-x86_64-mingw32/bin/../lib/gcc/nios2-elf/5.3.0/../../../../../H-x86_64-mingw32/nios2-elf/lib/pg\libc.a(lib_a-locale.o)
                0x00000000000021a8                __mb_cur_max
 .sdata.__wctomb
                0x00000000000021ac        0x4 c:/intelfpga_lite/18.1/nios2eds/bin/gnu/h-x86_64-mingw32/bin/../lib/gcc/nios2-elf/5.3.0/../../../../../H-x86_64-mingw32/nios2-elf/lib/pg\libc.a(lib_a-wctomb_r.o)
                0x00000000000021ac                __wctomb
 .sdata         0x00000000000021b0       0x14 ../LUTBrain_NIOS_bsp/\libhal_bsp.a(alt_dev.o)
                0x00000000000021b0                alt_max_fd
                0x00000000000021b4                alt_dev_list
                0x00000000000021bc                alt_fs_list
 .sdata         0x00000000000021c4        0x4 ../LUTBrain_NIOS_bsp/\libhal_bsp.a(alt_errno.o)
                0x00000000000021c4                alt_errno
 .sdata         0x00000000000021c8        0x4 ../LUTBrain_NIOS_bsp/\libhal_bsp.a(alt_gmon.o)
 .sdata         0x00000000000021cc        0x4 ../LUTBrain_NIOS_bsp/\libhal_bsp.a(alt_sbrk.o)
 .sdata         0x00000000000021d0        0x8 ../LUTBrain_NIOS_bsp/\libhal_bsp.a(alt_tick.o)
                0x00000000000021d0                alt_alarm_list
 .sdata         0x00000000000021d8        0x4 ../LUTBrain_NIOS_bsp/\libhal_bsp.a(alt_irq_vars.o)
                0x00000000000021d8                alt_priority_mask
 *(.sdata2 .sdata2.* .gnu.linkonce.s2.*)
                0x00000000000021dc                . = ALIGN (0x4)
                0x00000000000021dc                _edata = ABSOLUTE (.)
                [!provide]                        PROVIDE (edata, ABSOLUTE (.))
                0x00000000000021dc                PROVIDE (__ram_rwdata_end, ABSOLUTE (.))
                0x0000000004036420                PROVIDE (__flash_rwdata_start, LOADADDR (.rwdata))

.bss            0x00000000000021dc    0x4b2b4 load address 0x0000000004037f74
                0x00000000000021dc                __bss_start = ABSOLUTE (.)
                [!provide]                        PROVIDE (__sbss_start, ABSOLUTE (.))
                [!provide]                        PROVIDE (___sbss_start, ABSOLUTE (.))
 *(.dynsbss)
 *(.sbss .sbss.* .gnu.linkonce.sb.*)
 .sbss          0x00000000000021dc        0x4 obj/default/NNLayer.o
                0x00000000000021dc                my_debug
 .sbss          0x00000000000021e0        0x4 obj/default/main.o
                0x00000000000021e0                pVGA
 .sbss._ZN12_GLOBAL__N_113__new_handlerE
                0x00000000000021e4        0x4 c:/intelfpga_lite/18.1/nios2eds/bin/gnu/h-x86_64-mingw32/bin/../lib/gcc/nios2-elf/5.3.0/../../../../../H-x86_64-mingw32/nios2-elf/lib/pg\libstdc++.a(new_handler.o)
 .sbss._ZL10eh_globals
                0x00000000000021e8        0x8 c:/intelfpga_lite/18.1/nios2eds/bin/gnu/h-x86_64-mingw32/bin/../lib/gcc/nios2-elf/5.3.0/../../../../../H-x86_64-mingw32/nios2-elf/lib/pg\libstdc++.a(eh_globals.o)
 .sbss          0x00000000000021f0        0x4 c:/intelfpga_lite/18.1/nios2eds/bin/gnu/h-x86_64-mingw32/bin/../lib/gcc/nios2-elf/5.3.0/pg\libgcc.a(unwind-sjlj.o)
 .sbss.__malloc_max_total_mem
                0x00000000000021f4        0x4 c:/intelfpga_lite/18.1/nios2eds/bin/gnu/h-x86_64-mingw32/bin/../lib/gcc/nios2-elf/5.3.0/../../../../../H-x86_64-mingw32/nios2-elf/lib/pg\libc.a(lib_a-mallocr.o)
                0x00000000000021f4                __malloc_max_total_mem
 .sbss.__malloc_max_sbrked_mem
                0x00000000000021f8        0x4 c:/intelfpga_lite/18.1/nios2eds/bin/gnu/h-x86_64-mingw32/bin/../lib/gcc/nios2-elf/5.3.0/../../../../../H-x86_64-mingw32/nios2-elf/lib/pg\libc.a(lib_a-mallocr.o)
                0x00000000000021f8                __malloc_max_sbrked_mem
 .sbss.__malloc_top_pad
                0x00000000000021fc        0x4 c:/intelfpga_lite/18.1/nios2eds/bin/gnu/h-x86_64-mingw32/bin/../lib/gcc/nios2-elf/5.3.0/../../../../../H-x86_64-mingw32/nios2-elf/lib/pg\libc.a(lib_a-mallocr.o)
                0x00000000000021fc                __malloc_top_pad
 .sbss          0x0000000000002200        0x4 c:/intelfpga_lite/18.1/nios2eds/bin/gnu/h-x86_64-mingw32/bin/../lib/gcc/nios2-elf/5.3.0/../../../../../H-x86_64-mingw32/nios2-elf/lib/pg\libc.a(lib_a-int_errno.o)
                0x0000000000002200                errno
 .sbss._PathLocale
                0x0000000000002204        0x4 c:/intelfpga_lite/18.1/nios2eds/bin/gnu/h-x86_64-mingw32/bin/../lib/gcc/nios2-elf/5.3.0/../../../../../H-x86_64-mingw32/nios2-elf/lib/pg\libc.a(lib_a-locale.o)
                0x0000000000002204                _PathLocale
 .sbss.__mlocale_changed
                0x0000000000002208        0x4 c:/intelfpga_lite/18.1/nios2eds/bin/gnu/h-x86_64-mingw32/bin/../lib/gcc/nios2-elf/5.3.0/../../../../../H-x86_64-mingw32/nios2-elf/lib/pg\libc.a(lib_a-locale.o)
                0x0000000000002208                __mlocale_changed
 .sbss.__nlocale_changed
                0x000000000000220c        0x4 c:/intelfpga_lite/18.1/nios2eds/bin/gnu/h-x86_64-mingw32/bin/../lib/gcc/nios2-elf/5.3.0/../../../../../H-x86_64-mingw32/nios2-elf/lib/pg\libc.a(lib_a-locale.o)
                0x000000000000220c                __nlocale_changed
 .sbss          0x0000000000002210        0xc ../LUTBrain_NIOS_bsp/\libhal_bsp.a(alt_gmon.o)
 .sbss          0x000000000000221c        0xc ../LUTBrain_NIOS_bsp/\libhal_bsp.a(alt_main.o)
                0x000000000000221c                alt_envp
                0x0000000000002220                alt_argv
                0x0000000000002224                alt_argc
 .sbss          0x0000000000002228        0x8 ../LUTBrain_NIOS_bsp/\libhal_bsp.a(alt_tick.o)
                0x0000000000002228                _alt_nticks
                0x000000000000222c                _alt_tick_rate
 .sbss          0x0000000000002230        0x8 ../LUTBrain_NIOS_bsp/\libhal_bsp.a(altera_avalon_timer_vars.o)
                0x0000000000002230                altera_avalon_timer_ts_freq
                0x0000000000002234                altera_avalon_timer_ts_base
 .sbss          0x0000000000002238        0x4 ../LUTBrain_NIOS_bsp/\libhal_bsp.a(alt_irq_vars.o)
                0x0000000000002238                alt_irq_active
 .sbss          0x000000000000223c        0x4 ../LUTBrain_NIOS_bsp/\libhal_bsp.a(alt_instruction_exception_entry.o)
                0x000000000000223c                alt_instruction_exception_handler
 *(.sbss2 .sbss2.* .gnu.linkonce.sb2.*)
 *(.scommon)
                [!provide]                        PROVIDE (__sbss_end, ABSOLUTE (.))
                [!provide]                        PROVIDE (___sbss_end, ABSOLUTE (.))
 *(.dynbss)
 *(.bss .bss.* .gnu.linkonce.b.*)
 .bss           0x0000000000002240        0x0 ../LUTBrain_NIOS_bsp//obj/HAL/src/crt0.o
 .bss           0x0000000000002240        0x0 obj/default/Image.o
 .bss           0x0000000000002240        0x0 obj/default/NN.o
 .bss           0x0000000000002240        0x0 obj/default/NNLayer.o
 .bss           0x0000000000002240        0x0 obj/default/VGA.o
 .bss           0x0000000000002240    0x4b000 obj/default/main.o
                0x0000000000002240                display
 .bss           0x000000000004d240        0x0 c:/intelfpga_lite/18.1/nios2eds/bin/gnu/h-x86_64-mingw32/bin/../lib/gcc/nios2-elf/5.3.0/../../../../../H-x86_64-mingw32/nios2-elf/lib/pg\libstdc++.a(new_opv.o)
 .bss           0x000000000004d240        0x0 c:/intelfpga_lite/18.1/nios2eds/bin/gnu/h-x86_64-mingw32/bin/../lib/gcc/nios2-elf/5.3.0/../../../../../H-x86_64-mingw32/nios2-elf/lib/pg\libstdc++.a(new_op.o)
 .bss           0x000000000004d240        0x0 c:/intelfpga_lite/18.1/nios2eds/bin/gnu/h-x86_64-mingw32/bin/../lib/gcc/nios2-elf/5.3.0/../../../../../H-x86_64-mingw32/nios2-elf/lib/pg\libstdc++.a(del_opv.o)
 .bss           0x000000000004d240        0x0 c:/intelfpga_lite/18.1/nios2eds/bin/gnu/h-x86_64-mingw32/bin/../lib/gcc/nios2-elf/5.3.0/../../../../../H-x86_64-mingw32/nios2-elf/lib/pg\libstdc++.a(new_handler.o)
 .bss           0x000000000004d240        0x0 c:/intelfpga_lite/18.1/nios2eds/bin/gnu/h-x86_64-mingw32/bin/../lib/gcc/nios2-elf/5.3.0/../../../../../H-x86_64-mingw32/nios2-elf/lib/pg\libstdc++.a(eh_personality.o)
 .bss           0x000000000004d240        0x0 c:/intelfpga_lite/18.1/nios2eds/bin/gnu/h-x86_64-mingw32/bin/../lib/gcc/nios2-elf/5.3.0/../../../../../H-x86_64-mingw32/nios2-elf/lib/pg\libstdc++.a(bad_alloc.o)
 .bss           0x000000000004d240        0x0 c:/intelfpga_lite/18.1/nios2eds/bin/gnu/h-x86_64-mingw32/bin/../lib/gcc/nios2-elf/5.3.0/../../../../../H-x86_64-mingw32/nios2-elf/lib/pg\libstdc++.a(del_op.o)
 .bss           0x000000000004d240        0x0 c:/intelfpga_lite/18.1/nios2eds/bin/gnu/h-x86_64-mingw32/bin/../lib/gcc/nios2-elf/5.3.0/../../../../../H-x86_64-mingw32/nios2-elf/lib/pg\libstdc++.a(eh_throw.o)
 .bss           0x000000000004d240        0x0 c:/intelfpga_lite/18.1/nios2eds/bin/gnu/h-x86_64-mingw32/bin/../lib/gcc/nios2-elf/5.3.0/../../../../../H-x86_64-mingw32/nios2-elf/lib/pg\libstdc++.a(eh_catch.o)
 .bss           0x000000000004d240        0x0 c:/intelfpga_lite/18.1/nios2eds/bin/gnu/h-x86_64-mingw32/bin/../lib/gcc/nios2-elf/5.3.0/../../../../../H-x86_64-mingw32/nios2-elf/lib/pg\libstdc++.a(class_type_info.o)
 .bss           0x000000000004d240        0x0 c:/intelfpga_lite/18.1/nios2eds/bin/gnu/h-x86_64-mingw32/bin/../lib/gcc/nios2-elf/5.3.0/../../../../../H-x86_64-mingw32/nios2-elf/lib/pg\libstdc++.a(eh_terminate.o)
 .bss           0x000000000004d240        0x0 c:/intelfpga_lite/18.1/nios2eds/bin/gnu/h-x86_64-mingw32/bin/../lib/gcc/nios2-elf/5.3.0/../../../../../H-x86_64-mingw32/nios2-elf/lib/pg\libstdc++.a(eh_unex_handler.o)
 .bss           0x000000000004d240        0x0 c:/intelfpga_lite/18.1/nios2eds/bin/gnu/h-x86_64-mingw32/bin/../lib/gcc/nios2-elf/5.3.0/../../../../../H-x86_64-mingw32/nios2-elf/lib/pg\libstdc++.a(eh_alloc.o)
 .bss._ZN12_GLOBAL__N_114emergency_poolE
                0x000000000004d240       0x10 c:/intelfpga_lite/18.1/nios2eds/bin/gnu/h-x86_64-mingw32/bin/../lib/gcc/nios2-elf/5.3.0/../../../../../H-x86_64-mingw32/nios2-elf/lib/pg\libstdc++.a(eh_alloc.o)
 .bss           0x000000000004d250        0x0 c:/intelfpga_lite/18.1/nios2eds/bin/gnu/h-x86_64-mingw32/bin/../lib/gcc/nios2-elf/5.3.0/../../../../../H-x86_64-mingw32/nios2-elf/lib/pg\libstdc++.a(eh_call.o)
 .bss           0x000000000004d250        0x0 c:/intelfpga_lite/18.1/nios2eds/bin/gnu/h-x86_64-mingw32/bin/../lib/gcc/nios2-elf/5.3.0/../../../../../H-x86_64-mingw32/nios2-elf/lib/pg\libstdc++.a(eh_globals.o)
 .bss           0x000000000004d250        0x0 c:/intelfpga_lite/18.1/nios2eds/bin/gnu/h-x86_64-mingw32/bin/../lib/gcc/nios2-elf/5.3.0/../../../../../H-x86_64-mingw32/nios2-elf/lib/pg\libstdc++.a(si_class_type_info.o)
 .bss           0x000000000004d250        0x0 c:/intelfpga_lite/18.1/nios2eds/bin/gnu/h-x86_64-mingw32/bin/../lib/gcc/nios2-elf/5.3.0/../../../../../H-x86_64-mingw32/nios2-elf/lib/pg\libstdc++.a(eh_exception.o)
 .bss           0x000000000004d250        0x0 c:/intelfpga_lite/18.1/nios2eds/bin/gnu/h-x86_64-mingw32/bin/../lib/gcc/nios2-elf/5.3.0/../../../../../H-x86_64-mingw32/nios2-elf/lib/pg\libstdc++.a(eh_term_handler.o)
 .bss           0x000000000004d250        0x0 c:/intelfpga_lite/18.1/nios2eds/bin/gnu/h-x86_64-mingw32/bin/../lib/gcc/nios2-elf/5.3.0/../../../../../H-x86_64-mingw32/nios2-elf/lib/pg\libstdc++.a(tinfo.o)
 .bss           0x000000000004d250        0x0 c:/intelfpga_lite/18.1/nios2eds/bin/gnu/h-x86_64-mingw32/bin/../lib/gcc/nios2-elf/5.3.0/../../../../../H-x86_64-mingw32/nios2-elf/lib/pg\libstdc++.a(pure.o)
 .bss           0x000000000004d250        0x0 c:/intelfpga_lite/18.1/nios2eds/bin/gnu/h-x86_64-mingw32/bin/../lib/gcc/nios2-elf/5.3.0/pg\libgcc.a(_fixunssfsi.o)
 .bss           0x000000000004d250        0x0 c:/intelfpga_lite/18.1/nios2eds/bin/gnu/h-x86_64-mingw32/bin/../lib/gcc/nios2-elf/5.3.0/pg\libgcc.a(lib2-divmod.o)
 .bss           0x000000000004d250        0x0 c:/intelfpga_lite/18.1/nios2eds/bin/gnu/h-x86_64-mingw32/bin/../lib/gcc/nios2-elf/5.3.0/pg\libgcc.a(addsf3.o)
 .bss           0x000000000004d250        0x0 c:/intelfpga_lite/18.1/nios2eds/bin/gnu/h-x86_64-mingw32/bin/../lib/gcc/nios2-elf/5.3.0/pg\libgcc.a(divsf3.o)
 .bss           0x000000000004d250        0x0 c:/intelfpga_lite/18.1/nios2eds/bin/gnu/h-x86_64-mingw32/bin/../lib/gcc/nios2-elf/5.3.0/pg\libgcc.a(eqsf2.o)
 .bss           0x000000000004d250        0x0 c:/intelfpga_lite/18.1/nios2eds/bin/gnu/h-x86_64-mingw32/bin/../lib/gcc/nios2-elf/5.3.0/pg\libgcc.a(gesf2.o)
 .bss           0x000000000004d250        0x0 c:/intelfpga_lite/18.1/nios2eds/bin/gnu/h-x86_64-mingw32/bin/../lib/gcc/nios2-elf/5.3.0/pg\libgcc.a(mulsf3.o)
 .bss           0x000000000004d250        0x0 c:/intelfpga_lite/18.1/nios2eds/bin/gnu/h-x86_64-mingw32/bin/../lib/gcc/nios2-elf/5.3.0/pg\libgcc.a(subsf3.o)
 .bss           0x000000000004d250        0x0 c:/intelfpga_lite/18.1/nios2eds/bin/gnu/h-x86_64-mingw32/bin/../lib/gcc/nios2-elf/5.3.0/pg\libgcc.a(fixsfsi.o)
 .bss           0x000000000004d250        0x0 c:/intelfpga_lite/18.1/nios2eds/bin/gnu/h-x86_64-mingw32/bin/../lib/gcc/nios2-elf/5.3.0/pg\libgcc.a(floatsisf.o)
 .bss           0x000000000004d250        0x0 c:/intelfpga_lite/18.1/nios2eds/bin/gnu/h-x86_64-mingw32/bin/../lib/gcc/nios2-elf/5.3.0/pg\libgcc.a(floatunsisf.o)
 .bss           0x000000000004d250        0x0 c:/intelfpga_lite/18.1/nios2eds/bin/gnu/h-x86_64-mingw32/bin/../lib/gcc/nios2-elf/5.3.0/pg\libgcc.a(divdf3.o)
 .bss           0x000000000004d250        0x0 c:/intelfpga_lite/18.1/nios2eds/bin/gnu/h-x86_64-mingw32/bin/../lib/gcc/nios2-elf/5.3.0/pg\libgcc.a(floatsidf.o)
 .bss           0x000000000004d250        0x0 c:/intelfpga_lite/18.1/nios2eds/bin/gnu/h-x86_64-mingw32/bin/../lib/gcc/nios2-elf/5.3.0/pg\libgcc.a(extendsfdf2.o)
 .bss           0x000000000004d250        0x0 c:/intelfpga_lite/18.1/nios2eds/bin/gnu/h-x86_64-mingw32/bin/../lib/gcc/nios2-elf/5.3.0/pg\libgcc.a(truncdfsf2.o)
 .bss           0x000000000004d250        0x0 c:/intelfpga_lite/18.1/nios2eds/bin/gnu/h-x86_64-mingw32/bin/../lib/gcc/nios2-elf/5.3.0/pg\libgcc.a(unwind-sjlj.o)
 .bss           0x000000000004d250        0x0 c:/intelfpga_lite/18.1/nios2eds/bin/gnu/h-x86_64-mingw32/bin/../lib/gcc/nios2-elf/5.3.0/pg\libgcc.a(_clzsi2.o)
 .bss           0x000000000004d250        0x0 c:/intelfpga_lite/18.1/nios2eds/bin/gnu/h-x86_64-mingw32/bin/../lib/gcc/nios2-elf/5.3.0/pg\libgcc.a(_clz.o)
 .bss           0x000000000004d250        0x0 c:/intelfpga_lite/18.1/nios2eds/bin/gnu/h-x86_64-mingw32/bin/../lib/gcc/nios2-elf/5.3.0/../../../../../H-x86_64-mingw32/nios2-elf/lib/pg\libc.a(lib_a-abort.o)
 .bss           0x000000000004d250        0x0 c:/intelfpga_lite/18.1/nios2eds/bin/gnu/h-x86_64-mingw32/bin/../lib/gcc/nios2-elf/5.3.0/../../../../../H-x86_64-mingw32/nios2-elf/lib/pg\libc.a(lib_a-malloc.o)
 .bss           0x000000000004d250        0x0 c:/intelfpga_lite/18.1/nios2eds/bin/gnu/h-x86_64-mingw32/bin/../lib/gcc/nios2-elf/5.3.0/../../../../../H-x86_64-mingw32/nios2-elf/lib/pg\libc.a(lib_a-mallocr.o)
 .bss.__malloc_current_mallinfo
                0x000000000004d250       0x28 c:/intelfpga_lite/18.1/nios2eds/bin/gnu/h-x86_64-mingw32/bin/../lib/gcc/nios2-elf/5.3.0/../../../../../H-x86_64-mingw32/nios2-elf/lib/pg\libc.a(lib_a-mallocr.o)
                0x000000000004d250                __malloc_current_mallinfo
 .bss           0x000000000004d278        0x0 c:/intelfpga_lite/18.1/nios2eds/bin/gnu/h-x86_64-mingw32/bin/../lib/gcc/nios2-elf/5.3.0/../../../../../H-x86_64-mingw32/nios2-elf/lib/pg\libc.a(lib_a-memset.o)
 .bss           0x000000000004d278        0x0 c:/intelfpga_lite/18.1/nios2eds/bin/gnu/h-x86_64-mingw32/bin/../lib/gcc/nios2-elf/5.3.0/../../../../../H-x86_64-mingw32/nios2-elf/lib/pg\libc.a(lib_a-printf.o)
 .bss           0x000000000004d278        0x0 c:/intelfpga_lite/18.1/nios2eds/bin/gnu/h-x86_64-mingw32/bin/../lib/gcc/nios2-elf/5.3.0/../../../../../H-x86_64-mingw32/nios2-elf/lib/pg\libc.a(lib_a-putchar.o)
 .bss           0x000000000004d278        0x0 c:/intelfpga_lite/18.1/nios2eds/bin/gnu/h-x86_64-mingw32/bin/../lib/gcc/nios2-elf/5.3.0/../../../../../H-x86_64-mingw32/nios2-elf/lib/pg\libc.a(lib_a-puts.o)
 .bss           0x000000000004d278        0x0 c:/intelfpga_lite/18.1/nios2eds/bin/gnu/h-x86_64-mingw32/bin/../lib/gcc/nios2-elf/5.3.0/../../../../../H-x86_64-mingw32/nios2-elf/lib/pg\libc.a(lib_a-rand.o)
 .bss           0x000000000004d278        0x0 c:/intelfpga_lite/18.1/nios2eds/bin/gnu/h-x86_64-mingw32/bin/../lib/gcc/nios2-elf/5.3.0/../../../../../H-x86_64-mingw32/nios2-elf/lib/pg\libc.a(lib_a-sbrkr.o)
 .bss           0x000000000004d278        0x0 c:/intelfpga_lite/18.1/nios2eds/bin/gnu/h-x86_64-mingw32/bin/../lib/gcc/nios2-elf/5.3.0/../../../../../H-x86_64-mingw32/nios2-elf/lib/pg\libc.a(lib_a-signal.o)
 .bss           0x000000000004d278        0x0 c:/intelfpga_lite/18.1/nios2eds/bin/gnu/h-x86_64-mingw32/bin/../lib/gcc/nios2-elf/5.3.0/../../../../../H-x86_64-mingw32/nios2-elf/lib/pg\libc.a(lib_a-signalr.o)
 .bss           0x000000000004d278        0x0 c:/intelfpga_lite/18.1/nios2eds/bin/gnu/h-x86_64-mingw32/bin/../lib/gcc/nios2-elf/5.3.0/../../../../../H-x86_64-mingw32/nios2-elf/lib/pg\libc.a(lib_a-strcmp.o)
 .bss           0x000000000004d278        0x0 c:/intelfpga_lite/18.1/nios2eds/bin/gnu/h-x86_64-mingw32/bin/../lib/gcc/nios2-elf/5.3.0/../../../../../H-x86_64-mingw32/nios2-elf/lib/pg\libc.a(lib_a-strlen.o)
 .bss           0x000000000004d278        0x0 c:/intelfpga_lite/18.1/nios2eds/bin/gnu/h-x86_64-mingw32/bin/../lib/gcc/nios2-elf/5.3.0/../../../../../H-x86_64-mingw32/nios2-elf/lib/pg\libc.a(lib_a-vfprintf.o)
 .bss           0x000000000004d278        0x0 c:/intelfpga_lite/18.1/nios2eds/bin/gnu/h-x86_64-mingw32/bin/../lib/gcc/nios2-elf/5.3.0/../../../../../H-x86_64-mingw32/nios2-elf/lib/pg\libc.a(lib_a-wsetup.o)
 .bss           0x000000000004d278        0x0 c:/intelfpga_lite/18.1/nios2eds/bin/gnu/h-x86_64-mingw32/bin/../lib/gcc/nios2-elf/5.3.0/../../../../../H-x86_64-mingw32/nios2-elf/lib/pg\libc.a(lib_a-dtoa.o)
 .bss           0x000000000004d278        0x0 c:/intelfpga_lite/18.1/nios2eds/bin/gnu/h-x86_64-mingw32/bin/../lib/gcc/nios2-elf/5.3.0/../../../../../H-x86_64-mingw32/nios2-elf/lib/pg\libc.a(lib_a-fflush.o)
 .bss           0x000000000004d278        0x0 c:/intelfpga_lite/18.1/nios2eds/bin/gnu/h-x86_64-mingw32/bin/../lib/gcc/nios2-elf/5.3.0/../../../../../H-x86_64-mingw32/nios2-elf/lib/pg\libc.a(lib_a-findfp.o)
 .bss           0x000000000004d278        0x0 c:/intelfpga_lite/18.1/nios2eds/bin/gnu/h-x86_64-mingw32/bin/../lib/gcc/nios2-elf/5.3.0/../../../../../H-x86_64-mingw32/nios2-elf/lib/pg\libc.a(lib_a-freer.o)
 .bss           0x000000000004d278        0x0 c:/intelfpga_lite/18.1/nios2eds/bin/gnu/h-x86_64-mingw32/bin/../lib/gcc/nios2-elf/5.3.0/../../../../../H-x86_64-mingw32/nios2-elf/lib/pg\libc.a(lib_a-fvwrite.o)
 .bss           0x000000000004d278        0x0 c:/intelfpga_lite/18.1/nios2eds/bin/gnu/h-x86_64-mingw32/bin/../lib/gcc/nios2-elf/5.3.0/../../../../../H-x86_64-mingw32/nios2-elf/lib/pg\libc.a(lib_a-fwalk.o)
 .bss           0x000000000004d278        0x0 c:/intelfpga_lite/18.1/nios2eds/bin/gnu/h-x86_64-mingw32/bin/../lib/gcc/nios2-elf/5.3.0/../../../../../H-x86_64-mingw32/nios2-elf/lib/pg\libc.a(lib_a-impure.o)
 .bss           0x000000000004d278        0x0 c:/intelfpga_lite/18.1/nios2eds/bin/gnu/h-x86_64-mingw32/bin/../lib/gcc/nios2-elf/5.3.0/../../../../../H-x86_64-mingw32/nios2-elf/lib/pg\libc.a(lib_a-int_errno.o)
 .bss           0x000000000004d278        0x0 c:/intelfpga_lite/18.1/nios2eds/bin/gnu/h-x86_64-mingw32/bin/../lib/gcc/nios2-elf/5.3.0/../../../../../H-x86_64-mingw32/nios2-elf/lib/pg\libc.a(lib_a-locale.o)
 .bss           0x000000000004d278        0x0 c:/intelfpga_lite/18.1/nios2eds/bin/gnu/h-x86_64-mingw32/bin/../lib/gcc/nios2-elf/5.3.0/../../../../../H-x86_64-mingw32/nios2-elf/lib/pg\libc.a(lib_a-makebuf.o)
 .bss           0x000000000004d278        0x0 c:/intelfpga_lite/18.1/nios2eds/bin/gnu/h-x86_64-mingw32/bin/../lib/gcc/nios2-elf/5.3.0/../../../../../H-x86_64-mingw32/nios2-elf/lib/pg\libc.a(lib_a-memchr.o)
 .bss           0x000000000004d278        0x0 c:/intelfpga_lite/18.1/nios2eds/bin/gnu/h-x86_64-mingw32/bin/../lib/gcc/nios2-elf/5.3.0/../../../../../H-x86_64-mingw32/nios2-elf/lib/pg\libc.a(lib_a-memcpy.o)
 .bss           0x000000000004d278        0x0 c:/intelfpga_lite/18.1/nios2eds/bin/gnu/h-x86_64-mingw32/bin/../lib/gcc/nios2-elf/5.3.0/../../../../../H-x86_64-mingw32/nios2-elf/lib/pg\libc.a(lib_a-memmove.o)
 .bss           0x000000000004d278        0x0 c:/intelfpga_lite/18.1/nios2eds/bin/gnu/h-x86_64-mingw32/bin/../lib/gcc/nios2-elf/5.3.0/../../../../../H-x86_64-mingw32/nios2-elf/lib/pg\libc.a(lib_a-mprec.o)
 .bss           0x000000000004d278        0x0 c:/intelfpga_lite/18.1/nios2eds/bin/gnu/h-x86_64-mingw32/bin/../lib/gcc/nios2-elf/5.3.0/../../../../../H-x86_64-mingw32/nios2-elf/lib/pg\libc.a(lib_a-putc.o)
 .bss           0x000000000004d278        0x0 c:/intelfpga_lite/18.1/nios2eds/bin/gnu/h-x86_64-mingw32/bin/../lib/gcc/nios2-elf/5.3.0/../../../../../H-x86_64-mingw32/nios2-elf/lib/pg\libc.a(lib_a-reallocr.o)
 .bss           0x000000000004d278        0x0 c:/intelfpga_lite/18.1/nios2eds/bin/gnu/h-x86_64-mingw32/bin/../lib/gcc/nios2-elf/5.3.0/../../../../../H-x86_64-mingw32/nios2-elf/lib/pg\libc.a(lib_a-s_fpclassify.o)
 .bss           0x000000000004d278        0x0 c:/intelfpga_lite/18.1/nios2eds/bin/gnu/h-x86_64-mingw32/bin/../lib/gcc/nios2-elf/5.3.0/../../../../../H-x86_64-mingw32/nios2-elf/lib/pg\libc.a(lib_a-stdio.o)
 .bss           0x000000000004d278        0x0 c:/intelfpga_lite/18.1/nios2eds/bin/gnu/h-x86_64-mingw32/bin/../lib/gcc/nios2-elf/5.3.0/../../../../../H-x86_64-mingw32/nios2-elf/lib/pg\libc.a(lib_a-vfiprintf.o)
 .bss           0x000000000004d278        0x0 c:/intelfpga_lite/18.1/nios2eds/bin/gnu/h-x86_64-mingw32/bin/../lib/gcc/nios2-elf/5.3.0/../../../../../H-x86_64-mingw32/nios2-elf/lib/pg\libc.a(lib_a-wbuf.o)
 .bss           0x000000000004d278        0x0 c:/intelfpga_lite/18.1/nios2eds/bin/gnu/h-x86_64-mingw32/bin/../lib/gcc/nios2-elf/5.3.0/../../../../../H-x86_64-mingw32/nios2-elf/lib/pg\libc.a(lib_a-writer.o)
 .bss           0x000000000004d278        0x0 c:/intelfpga_lite/18.1/nios2eds/bin/gnu/h-x86_64-mingw32/bin/../lib/gcc/nios2-elf/5.3.0/../../../../../H-x86_64-mingw32/nios2-elf/lib/pg\libc.a(closer.o)
 .bss           0x000000000004d278        0x0 c:/intelfpga_lite/18.1/nios2eds/bin/gnu/h-x86_64-mingw32/bin/../lib/gcc/nios2-elf/5.3.0/../../../../../H-x86_64-mingw32/nios2-elf/lib/pg\libc.a(lib_a-callocr.o)
 .bss           0x000000000004d278        0x0 c:/intelfpga_lite/18.1/nios2eds/bin/gnu/h-x86_64-mingw32/bin/../lib/gcc/nios2-elf/5.3.0/../../../../../H-x86_64-mingw32/nios2-elf/lib/pg\libc.a(lib_a-fclose.o)
 .bss           0x000000000004d278        0x0 c:/intelfpga_lite/18.1/nios2eds/bin/gnu/h-x86_64-mingw32/bin/../lib/gcc/nios2-elf/5.3.0/../../../../../H-x86_64-mingw32/nios2-elf/lib/pg\libc.a(lib_a-fputwc.o)
 .bss           0x000000000004d278        0x0 c:/intelfpga_lite/18.1/nios2eds/bin/gnu/h-x86_64-mingw32/bin/../lib/gcc/nios2-elf/5.3.0/../../../../../H-x86_64-mingw32/nios2-elf/lib/pg\libc.a(lib_a-fstatr.o)
 .bss           0x000000000004d278        0x0 c:/intelfpga_lite/18.1/nios2eds/bin/gnu/h-x86_64-mingw32/bin/../lib/gcc/nios2-elf/5.3.0/../../../../../H-x86_64-mingw32/nios2-elf/lib/pg\libc.a(lib_a-isattyr.o)
 .bss           0x000000000004d278        0x0 c:/intelfpga_lite/18.1/nios2eds/bin/gnu/h-x86_64-mingw32/bin/../lib/gcc/nios2-elf/5.3.0/../../../../../H-x86_64-mingw32/nios2-elf/lib/pg\libc.a(lib_a-lseekr.o)
 .bss           0x000000000004d278        0x0 c:/intelfpga_lite/18.1/nios2eds/bin/gnu/h-x86_64-mingw32/bin/../lib/gcc/nios2-elf/5.3.0/../../../../../H-x86_64-mingw32/nios2-elf/lib/pg\libc.a(lib_a-readr.o)
 .bss           0x000000000004d278        0x0 c:/intelfpga_lite/18.1/nios2eds/bin/gnu/h-x86_64-mingw32/bin/../lib/gcc/nios2-elf/5.3.0/../../../../../H-x86_64-mingw32/nios2-elf/lib/pg\libc.a(lib_a-wcrtomb.o)
 .bss           0x000000000004d278        0x0 c:/intelfpga_lite/18.1/nios2eds/bin/gnu/h-x86_64-mingw32/bin/../lib/gcc/nios2-elf/5.3.0/../../../../../H-x86_64-mingw32/nios2-elf/lib/pg\libc.a(lib_a-wctomb_r.o)
 .bss           0x000000000004d278        0x0 c:/intelfpga_lite/18.1/nios2eds/bin/gnu/h-x86_64-mingw32/bin/../lib/gcc/nios2-elf/5.3.0/pg\libgcc.a(_muldi3.o)
 .bss           0x000000000004d278        0x0 c:/intelfpga_lite/18.1/nios2eds/bin/gnu/h-x86_64-mingw32/bin/../lib/gcc/nios2-elf/5.3.0/pg\libgcc.a(_udivdi3.o)
 .bss           0x000000000004d278        0x0 c:/intelfpga_lite/18.1/nios2eds/bin/gnu/h-x86_64-mingw32/bin/../lib/gcc/nios2-elf/5.3.0/pg\libgcc.a(_umoddi3.o)
 .bss           0x000000000004d278        0x0 c:/intelfpga_lite/18.1/nios2eds/bin/gnu/h-x86_64-mingw32/bin/../lib/gcc/nios2-elf/5.3.0/pg\libgcc.a(adddf3.o)
 .bss           0x000000000004d278        0x0 c:/intelfpga_lite/18.1/nios2eds/bin/gnu/h-x86_64-mingw32/bin/../lib/gcc/nios2-elf/5.3.0/pg\libgcc.a(eqdf2.o)
 .bss           0x000000000004d278        0x0 c:/intelfpga_lite/18.1/nios2eds/bin/gnu/h-x86_64-mingw32/bin/../lib/gcc/nios2-elf/5.3.0/pg\libgcc.a(gedf2.o)
 .bss           0x000000000004d278        0x0 c:/intelfpga_lite/18.1/nios2eds/bin/gnu/h-x86_64-mingw32/bin/../lib/gcc/nios2-elf/5.3.0/pg\libgcc.a(ledf2.o)
 .bss           0x000000000004d278        0x0 c:/intelfpga_lite/18.1/nios2eds/bin/gnu/h-x86_64-mingw32/bin/../lib/gcc/nios2-elf/5.3.0/pg\libgcc.a(muldf3.o)
 .bss           0x000000000004d278        0x0 c:/intelfpga_lite/18.1/nios2eds/bin/gnu/h-x86_64-mingw32/bin/../lib/gcc/nios2-elf/5.3.0/pg\libgcc.a(subdf3.o)
 .bss           0x000000000004d278        0x0 c:/intelfpga_lite/18.1/nios2eds/bin/gnu/h-x86_64-mingw32/bin/../lib/gcc/nios2-elf/5.3.0/pg\libgcc.a(fixdfsi.o)
 .bss           0x000000000004d278        0x0 c:/intelfpga_lite/18.1/nios2eds/bin/gnu/h-x86_64-mingw32/bin/../lib/gcc/nios2-elf/5.3.0/pg\libgcc.a(floatunsidf.o)
 .bss           0x000000000004d278        0x0 ../LUTBrain_NIOS_bsp/\libhal_bsp.a(alt_close.o)
 .bss           0x000000000004d278        0x0 ../LUTBrain_NIOS_bsp/\libhal_bsp.a(alt_dev.o)
 .bss           0x000000000004d278        0x0 ../LUTBrain_NIOS_bsp/\libhal_bsp.a(alt_errno.o)
 .bss           0x000000000004d278        0x0 ../LUTBrain_NIOS_bsp/\libhal_bsp.a(alt_exit.o)
 .bss           0x000000000004d278        0x0 ../LUTBrain_NIOS_bsp/\libhal_bsp.a(alt_fstat.o)
 .bss           0x000000000004d278        0x0 ../LUTBrain_NIOS_bsp/\libhal_bsp.a(alt_getpid.o)
 .bss           0x000000000004d278       0x18 ../LUTBrain_NIOS_bsp/\libhal_bsp.a(alt_gmon.o)
 .bss           0x000000000004d290        0x0 ../LUTBrain_NIOS_bsp/\libhal_bsp.a(alt_isatty.o)
 .bss           0x000000000004d290        0x0 ../LUTBrain_NIOS_bsp/\libhal_bsp.a(alt_kill.o)
 .bss           0x000000000004d290        0x0 ../LUTBrain_NIOS_bsp/\libhal_bsp.a(alt_load.o)
 .bss           0x000000000004d290        0x0 ../LUTBrain_NIOS_bsp/\libhal_bsp.a(alt_lseek.o)
 .bss           0x000000000004d290        0x0 ../LUTBrain_NIOS_bsp/\libhal_bsp.a(alt_main.o)
 .bss           0x000000000004d290        0x0 ../LUTBrain_NIOS_bsp/\libhal_bsp.a(alt_malloc_lock.o)
 .bss           0x000000000004d290        0x0 ../LUTBrain_NIOS_bsp/\libhal_bsp.a(alt_mcount.o)
 .bss           0x000000000004d290        0x0 ../LUTBrain_NIOS_bsp/\libhal_bsp.a(alt_read.o)
 .bss           0x000000000004d290        0x0 ../LUTBrain_NIOS_bsp/\libhal_bsp.a(alt_release_fd.o)
 .bss           0x000000000004d290        0x0 ../LUTBrain_NIOS_bsp/\libhal_bsp.a(alt_sbrk.o)
 .bss           0x000000000004d290        0x0 ../LUTBrain_NIOS_bsp/\libhal_bsp.a(alt_tick.o)
 .bss           0x000000000004d290        0x0 ../LUTBrain_NIOS_bsp/\libhal_bsp.a(alt_write.o)
 .bss           0x000000000004d290        0x0 ../LUTBrain_NIOS_bsp/\libhal_bsp.a(alt_sys_init.o)
 .bss           0x000000000004d290        0x0 ../LUTBrain_NIOS_bsp/\libhal_bsp.a(altera_avalon_jtag_uart_fd.o)
 .bss           0x000000000004d290        0x0 ../LUTBrain_NIOS_bsp/\libhal_bsp.a(altera_avalon_jtag_uart_init.o)
 .bss           0x000000000004d290        0x0 ../LUTBrain_NIOS_bsp/\libhal_bsp.a(altera_avalon_jtag_uart_ioctl.o)
 .bss           0x000000000004d290        0x0 ../LUTBrain_NIOS_bsp/\libhal_bsp.a(altera_avalon_jtag_uart_read.o)
 .bss           0x000000000004d290        0x0 ../LUTBrain_NIOS_bsp/\libhal_bsp.a(altera_avalon_jtag_uart_write.o)
 .bss           0x000000000004d290        0x0 ../LUTBrain_NIOS_bsp/\libhal_bsp.a(altera_avalon_timer_sc.o)
 .bss           0x000000000004d290        0x0 ../LUTBrain_NIOS_bsp/\libhal_bsp.a(altera_avalon_timer_vars.o)
 .bss           0x000000000004d290        0x0 ../LUTBrain_NIOS_bsp/\libhal_bsp.a(alt_alarm_start.o)
 .bss           0x000000000004d290        0x0 ../LUTBrain_NIOS_bsp/\libhal_bsp.a(alt_dcache_flush_all.o)
 .bss           0x000000000004d290        0x0 ../LUTBrain_NIOS_bsp/\libhal_bsp.a(alt_dev_llist_insert.o)
 .bss           0x000000000004d290        0x0 ../LUTBrain_NIOS_bsp/\libhal_bsp.a(alt_do_ctors.o)
 .bss           0x000000000004d290        0x0 ../LUTBrain_NIOS_bsp/\libhal_bsp.a(alt_do_dtors.o)
 .bss           0x000000000004d290        0x0 ../LUTBrain_NIOS_bsp/\libhal_bsp.a(alt_icache_flush_all.o)
 .bss           0x000000000004d290        0x0 ../LUTBrain_NIOS_bsp/\libhal_bsp.a(alt_iic.o)
 .bss           0x000000000004d290        0x0 ../LUTBrain_NIOS_bsp/\libhal_bsp.a(alt_iic_isr_register.o)
 .bss           0x000000000004d290        0x0 ../LUTBrain_NIOS_bsp/\libhal_bsp.a(alt_io_redirect.o)
 .bss           0x000000000004d290        0x0 ../LUTBrain_NIOS_bsp/\libhal_bsp.a(alt_irq_entry.o)
 .bss           0x000000000004d290        0x0 ../LUTBrain_NIOS_bsp/\libhal_bsp.a(alt_irq_handler.o)
 .bss           0x000000000004d290        0x0 ../LUTBrain_NIOS_bsp/\libhal_bsp.a(alt_irq_vars.o)
 .bss           0x000000000004d290        0x0 ../LUTBrain_NIOS_bsp/\libhal_bsp.a(alt_open.o)
 .bss           0x000000000004d290        0x0 ../LUTBrain_NIOS_bsp/\libhal_bsp.a(altera_nios2_gen2_irq.o)
 .bss           0x000000000004d290        0x0 ../LUTBrain_NIOS_bsp/\libhal_bsp.a(alt_exception_entry.o)
 .bss           0x000000000004d290        0x0 ../LUTBrain_NIOS_bsp/\libhal_bsp.a(alt_find_dev.o)
 .bss           0x000000000004d290        0x0 ../LUTBrain_NIOS_bsp/\libhal_bsp.a(alt_find_file.o)
 .bss           0x000000000004d290        0x0 ../LUTBrain_NIOS_bsp/\libhal_bsp.a(alt_get_fd.o)
 .bss           0x000000000004d290        0x0 ../LUTBrain_NIOS_bsp/\libhal_bsp.a(alt_icache_flush.o)
 .bss           0x000000000004d290        0x0 ../LUTBrain_NIOS_bsp/\libhal_bsp.a(alt_instruction_exception_entry.o)
 .bss           0x000000000004d290        0x0 c:/intelfpga_lite/18.1/nios2eds/bin/gnu/h-x86_64-mingw32/bin/../lib/gcc/nios2-elf/5.3.0/../../../../../H-x86_64-mingw32/nios2-elf/lib/pg\libc.a(lib_a-atexit.o)
 .bss           0x000000000004d290        0x0 c:/intelfpga_lite/18.1/nios2eds/bin/gnu/h-x86_64-mingw32/bin/../lib/gcc/nios2-elf/5.3.0/../../../../../H-x86_64-mingw32/nios2-elf/lib/pg\libc.a(lib_a-exit.o)
 .bss           0x000000000004d290        0x0 c:/intelfpga_lite/18.1/nios2eds/bin/gnu/h-x86_64-mingw32/bin/../lib/gcc/nios2-elf/5.3.0/../../../../../H-x86_64-mingw32/nios2-elf/lib/pg\libc.a(lib_a-memcmp.o)
 .bss           0x000000000004d290        0x0 c:/intelfpga_lite/18.1/nios2eds/bin/gnu/h-x86_64-mingw32/bin/../lib/gcc/nios2-elf/5.3.0/../../../../../H-x86_64-mingw32/nios2-elf/lib/pg\libc.a(lib_a-__atexit.o)
 .bss           0x000000000004d290        0x0 c:/intelfpga_lite/18.1/nios2eds/bin/gnu/h-x86_64-mingw32/bin/../lib/gcc/nios2-elf/5.3.0/../../../../../H-x86_64-mingw32/nios2-elf/lib/pg\libc.a(lib_a-__call_atexit.o)
 *(COMMON)
 COMMON         0x000000000004d290      0x100 ../LUTBrain_NIOS_bsp/\libhal_bsp.a(alt_gmon.o)
                0x000000000004d290                __mcount_fn_head
 COMMON         0x000000000004d390      0x100 ../LUTBrain_NIOS_bsp/\libhal_bsp.a(alt_irq_handler.o)
                0x000000000004d390                alt_irq
                0x000000000004d490                . = ALIGN (0x4)
                0x000000000004d490                __bss_end = ABSOLUTE (.)

.sdram          0x000000000004d490        0x0 load address 0x0000000004037f74
                [!provide]                        PROVIDE (_alt_partition_sdram_start, ABSOLUTE (.))
 *(.sdram .sdram. sdram.*)
                0x000000000004d490                . = ALIGN (0x4)
                [!provide]                        PROVIDE (_alt_partition_sdram_end, ABSOLUTE (.))
                0x000000000004d490                _end = ABSOLUTE (.)
                0x000000000004d490                end = ABSOLUTE (.)
                0x000000000004d490                __alt_stack_base = ABSOLUTE (.)
                [!provide]                        PROVIDE (_alt_partition_sdram_load_addr, LOADADDR (.sdram))

.onchip_memory2
                0x0000000004037f74        0x0
                [!provide]                        PROVIDE (_alt_partition_onchip_memory2_start, ABSOLUTE (.))
 *(.onchip_memory2 .onchip_memory2. onchip_memory2.*)
                0x0000000004037f74                . = ALIGN (0x4)
                [!provide]                        PROVIDE (_alt_partition_onchip_memory2_end, ABSOLUTE (.))
                [!provide]                        PROVIDE (_alt_partition_onchip_memory2_load_addr, LOADADDR (.onchip_memory2))

.stab
 *(.stab)

.stabstr
 *(.stabstr)

.stab.excl
 *(.stab.excl)

.stab.exclstr
 *(.stab.exclstr)

.stab.index
 *(.stab.index)

.stab.indexstr
 *(.stab.indexstr)

.comment        0x0000000000000000       0x23
 *(.comment)
 .comment       0x0000000000000000       0x23 obj/default/Image.o
                                         0x24 (size before relaxing)
 .comment       0x0000000000000023       0x24 obj/default/NN.o
 .comment       0x0000000000000023       0x24 obj/default/NNLayer.o
 .comment       0x0000000000000023       0x24 obj/default/VGA.o
 .comment       0x0000000000000023       0x24 obj/default/main.o
 .comment       0x0000000000000023       0x24 c:/intelfpga_lite/18.1/nios2eds/bin/gnu/h-x86_64-mingw32/bin/../lib/gcc/nios2-elf/5.3.0/../../../../../H-x86_64-mingw32/nios2-elf/lib/pg\libstdc++.a(new_opv.o)
 .comment       0x0000000000000023       0x24 c:/intelfpga_lite/18.1/nios2eds/bin/gnu/h-x86_64-mingw32/bin/../lib/gcc/nios2-elf/5.3.0/../../../../../H-x86_64-mingw32/nios2-elf/lib/pg\libstdc++.a(new_op.o)
 .comment       0x0000000000000023       0x24 c:/intelfpga_lite/18.1/nios2eds/bin/gnu/h-x86_64-mingw32/bin/../lib/gcc/nios2-elf/5.3.0/../../../../../H-x86_64-mingw32/nios2-elf/lib/pg\libstdc++.a(del_opv.o)
 .comment       0x0000000000000023       0x24 c:/intelfpga_lite/18.1/nios2eds/bin/gnu/h-x86_64-mingw32/bin/../lib/gcc/nios2-elf/5.3.0/../../../../../H-x86_64-mingw32/nios2-elf/lib/pg\libstdc++.a(new_handler.o)
 .comment       0x0000000000000023       0x24 c:/intelfpga_lite/18.1/nios2eds/bin/gnu/h-x86_64-mingw32/bin/../lib/gcc/nios2-elf/5.3.0/../../../../../H-x86_64-mingw32/nios2-elf/lib/pg\libstdc++.a(eh_personality.o)
 .comment       0x0000000000000023       0x24 c:/intelfpga_lite/18.1/nios2eds/bin/gnu/h-x86_64-mingw32/bin/../lib/gcc/nios2-elf/5.3.0/../../../../../H-x86_64-mingw32/nios2-elf/lib/pg\libstdc++.a(bad_alloc.o)
 .comment       0x0000000000000023       0x24 c:/intelfpga_lite/18.1/nios2eds/bin/gnu/h-x86_64-mingw32/bin/../lib/gcc/nios2-elf/5.3.0/../../../../../H-x86_64-mingw32/nios2-elf/lib/pg\libstdc++.a(del_op.o)
 .comment       0x0000000000000023       0x24 c:/intelfpga_lite/18.1/nios2eds/bin/gnu/h-x86_64-mingw32/bin/../lib/gcc/nios2-elf/5.3.0/../../../../../H-x86_64-mingw32/nios2-elf/lib/pg\libstdc++.a(eh_throw.o)
 .comment       0x0000000000000023       0x24 c:/intelfpga_lite/18.1/nios2eds/bin/gnu/h-x86_64-mingw32/bin/../lib/gcc/nios2-elf/5.3.0/../../../../../H-x86_64-mingw32/nios2-elf/lib/pg\libstdc++.a(eh_catch.o)
 .comment       0x0000000000000023       0x24 c:/intelfpga_lite/18.1/nios2eds/bin/gnu/h-x86_64-mingw32/bin/../lib/gcc/nios2-elf/5.3.0/../../../../../H-x86_64-mingw32/nios2-elf/lib/pg\libstdc++.a(class_type_info.o)
 .comment       0x0000000000000023       0x24 c:/intelfpga_lite/18.1/nios2eds/bin/gnu/h-x86_64-mingw32/bin/../lib/gcc/nios2-elf/5.3.0/../../../../../H-x86_64-mingw32/nios2-elf/lib/pg\libstdc++.a(eh_terminate.o)
 .comment       0x0000000000000023       0x24 c:/intelfpga_lite/18.1/nios2eds/bin/gnu/h-x86_64-mingw32/bin/../lib/gcc/nios2-elf/5.3.0/../../../../../H-x86_64-mingw32/nios2-elf/lib/pg\libstdc++.a(eh_unex_handler.o)
 .comment       0x0000000000000023       0x24 c:/intelfpga_lite/18.1/nios2eds/bin/gnu/h-x86_64-mingw32/bin/../lib/gcc/nios2-elf/5.3.0/../../../../../H-x86_64-mingw32/nios2-elf/lib/pg\libstdc++.a(eh_alloc.o)
 .comment       0x0000000000000023       0x24 c:/intelfpga_lite/18.1/nios2eds/bin/gnu/h-x86_64-mingw32/bin/../lib/gcc/nios2-elf/5.3.0/../../../../../H-x86_64-mingw32/nios2-elf/lib/pg\libstdc++.a(eh_call.o)
 .comment       0x0000000000000023       0x24 c:/intelfpga_lite/18.1/nios2eds/bin/gnu/h-x86_64-mingw32/bin/../lib/gcc/nios2-elf/5.3.0/../../../../../H-x86_64-mingw32/nios2-elf/lib/pg\libstdc++.a(eh_globals.o)
 .comment       0x0000000000000023       0x24 c:/intelfpga_lite/18.1/nios2eds/bin/gnu/h-x86_64-mingw32/bin/../lib/gcc/nios2-elf/5.3.0/../../../../../H-x86_64-mingw32/nios2-elf/lib/pg\libstdc++.a(si_class_type_info.o)
 .comment       0x0000000000000023       0x24 c:/intelfpga_lite/18.1/nios2eds/bin/gnu/h-x86_64-mingw32/bin/../lib/gcc/nios2-elf/5.3.0/../../../../../H-x86_64-mingw32/nios2-elf/lib/pg\libstdc++.a(eh_exception.o)
 .comment       0x0000000000000023       0x24 c:/intelfpga_lite/18.1/nios2eds/bin/gnu/h-x86_64-mingw32/bin/../lib/gcc/nios2-elf/5.3.0/../../../../../H-x86_64-mingw32/nios2-elf/lib/pg\libstdc++.a(eh_term_handler.o)
 .comment       0x0000000000000023       0x24 c:/intelfpga_lite/18.1/nios2eds/bin/gnu/h-x86_64-mingw32/bin/../lib/gcc/nios2-elf/5.3.0/../../../../../H-x86_64-mingw32/nios2-elf/lib/pg\libstdc++.a(tinfo.o)
 .comment       0x0000000000000023       0x24 c:/intelfpga_lite/18.1/nios2eds/bin/gnu/h-x86_64-mingw32/bin/../lib/gcc/nios2-elf/5.3.0/../../../../../H-x86_64-mingw32/nios2-elf/lib/pg\libstdc++.a(pure.o)
 .comment       0x0000000000000023       0x24 c:/intelfpga_lite/18.1/nios2eds/bin/gnu/h-x86_64-mingw32/bin/../lib/gcc/nios2-elf/5.3.0/pg\libgcc.a(_fixunssfsi.o)
 .comment       0x0000000000000023       0x24 c:/intelfpga_lite/18.1/nios2eds/bin/gnu/h-x86_64-mingw32/bin/../lib/gcc/nios2-elf/5.3.0/pg\libgcc.a(lib2-divmod.o)
 .comment       0x0000000000000023       0x24 c:/intelfpga_lite/18.1/nios2eds/bin/gnu/h-x86_64-mingw32/bin/../lib/gcc/nios2-elf/5.3.0/pg\libgcc.a(addsf3.o)
 .comment       0x0000000000000023       0x24 c:/intelfpga_lite/18.1/nios2eds/bin/gnu/h-x86_64-mingw32/bin/../lib/gcc/nios2-elf/5.3.0/pg\libgcc.a(divsf3.o)
 .comment       0x0000000000000023       0x24 c:/intelfpga_lite/18.1/nios2eds/bin/gnu/h-x86_64-mingw32/bin/../lib/gcc/nios2-elf/5.3.0/pg\libgcc.a(eqsf2.o)
 .comment       0x0000000000000023       0x24 c:/intelfpga_lite/18.1/nios2eds/bin/gnu/h-x86_64-mingw32/bin/../lib/gcc/nios2-elf/5.3.0/pg\libgcc.a(gesf2.o)
 .comment       0x0000000000000023       0x24 c:/intelfpga_lite/18.1/nios2eds/bin/gnu/h-x86_64-mingw32/bin/../lib/gcc/nios2-elf/5.3.0/pg\libgcc.a(mulsf3.o)
 .comment       0x0000000000000023       0x24 c:/intelfpga_lite/18.1/nios2eds/bin/gnu/h-x86_64-mingw32/bin/../lib/gcc/nios2-elf/5.3.0/pg\libgcc.a(subsf3.o)
 .comment       0x0000000000000023       0x24 c:/intelfpga_lite/18.1/nios2eds/bin/gnu/h-x86_64-mingw32/bin/../lib/gcc/nios2-elf/5.3.0/pg\libgcc.a(fixsfsi.o)
 .comment       0x0000000000000023       0x24 c:/intelfpga_lite/18.1/nios2eds/bin/gnu/h-x86_64-mingw32/bin/../lib/gcc/nios2-elf/5.3.0/pg\libgcc.a(floatsisf.o)
 .comment       0x0000000000000023       0x24 c:/intelfpga_lite/18.1/nios2eds/bin/gnu/h-x86_64-mingw32/bin/../lib/gcc/nios2-elf/5.3.0/pg\libgcc.a(floatunsisf.o)
 .comment       0x0000000000000023       0x24 c:/intelfpga_lite/18.1/nios2eds/bin/gnu/h-x86_64-mingw32/bin/../lib/gcc/nios2-elf/5.3.0/pg\libgcc.a(divdf3.o)
 .comment       0x0000000000000023       0x24 c:/intelfpga_lite/18.1/nios2eds/bin/gnu/h-x86_64-mingw32/bin/../lib/gcc/nios2-elf/5.3.0/pg\libgcc.a(floatsidf.o)
 .comment       0x0000000000000023       0x24 c:/intelfpga_lite/18.1/nios2eds/bin/gnu/h-x86_64-mingw32/bin/../lib/gcc/nios2-elf/5.3.0/pg\libgcc.a(extendsfdf2.o)
 .comment       0x0000000000000023       0x24 c:/intelfpga_lite/18.1/nios2eds/bin/gnu/h-x86_64-mingw32/bin/../lib/gcc/nios2-elf/5.3.0/pg\libgcc.a(truncdfsf2.o)
 .comment       0x0000000000000023       0x24 c:/intelfpga_lite/18.1/nios2eds/bin/gnu/h-x86_64-mingw32/bin/../lib/gcc/nios2-elf/5.3.0/pg\libgcc.a(unwind-sjlj.o)
 .comment       0x0000000000000023       0x24 c:/intelfpga_lite/18.1/nios2eds/bin/gnu/h-x86_64-mingw32/bin/../lib/gcc/nios2-elf/5.3.0/pg\libgcc.a(_clzsi2.o)
 .comment       0x0000000000000023       0x24 c:/intelfpga_lite/18.1/nios2eds/bin/gnu/h-x86_64-mingw32/bin/../lib/gcc/nios2-elf/5.3.0/pg\libgcc.a(_clz.o)
 .comment       0x0000000000000023       0x24 c:/intelfpga_lite/18.1/nios2eds/bin/gnu/h-x86_64-mingw32/bin/../lib/gcc/nios2-elf/5.3.0/../../../../../H-x86_64-mingw32/nios2-elf/lib/pg\libc.a(lib_a-abort.o)
 .comment       0x0000000000000023       0x24 c:/intelfpga_lite/18.1/nios2eds/bin/gnu/h-x86_64-mingw32/bin/../lib/gcc/nios2-elf/5.3.0/../../../../../H-x86_64-mingw32/nios2-elf/lib/pg\libc.a(lib_a-malloc.o)
 .comment       0x0000000000000023       0x24 c:/intelfpga_lite/18.1/nios2eds/bin/gnu/h-x86_64-mingw32/bin/../lib/gcc/nios2-elf/5.3.0/../../../../../H-x86_64-mingw32/nios2-elf/lib/pg\libc.a(lib_a-mallocr.o)
 .comment       0x0000000000000023       0x24 c:/intelfpga_lite/18.1/nios2eds/bin/gnu/h-x86_64-mingw32/bin/../lib/gcc/nios2-elf/5.3.0/../../../../../H-x86_64-mingw32/nios2-elf/lib/pg\libc.a(lib_a-memset.o)
 .comment       0x0000000000000023       0x24 c:/intelfpga_lite/18.1/nios2eds/bin/gnu/h-x86_64-mingw32/bin/../lib/gcc/nios2-elf/5.3.0/../../../../../H-x86_64-mingw32/nios2-elf/lib/pg\libc.a(lib_a-printf.o)
 .comment       0x0000000000000023       0x24 c:/intelfpga_lite/18.1/nios2eds/bin/gnu/h-x86_64-mingw32/bin/../lib/gcc/nios2-elf/5.3.0/../../../../../H-x86_64-mingw32/nios2-elf/lib/pg\libc.a(lib_a-putchar.o)
 .comment       0x0000000000000023       0x24 c:/intelfpga_lite/18.1/nios2eds/bin/gnu/h-x86_64-mingw32/bin/../lib/gcc/nios2-elf/5.3.0/../../../../../H-x86_64-mingw32/nios2-elf/lib/pg\libc.a(lib_a-puts.o)
 .comment       0x0000000000000023       0x24 c:/intelfpga_lite/18.1/nios2eds/bin/gnu/h-x86_64-mingw32/bin/../lib/gcc/nios2-elf/5.3.0/../../../../../H-x86_64-mingw32/nios2-elf/lib/pg\libc.a(lib_a-rand.o)
 .comment       0x0000000000000023       0x24 c:/intelfpga_lite/18.1/nios2eds/bin/gnu/h-x86_64-mingw32/bin/../lib/gcc/nios2-elf/5.3.0/../../../../../H-x86_64-mingw32/nios2-elf/lib/pg\libc.a(lib_a-sbrkr.o)
 .comment       0x0000000000000023       0x24 c:/intelfpga_lite/18.1/nios2eds/bin/gnu/h-x86_64-mingw32/bin/../lib/gcc/nios2-elf/5.3.0/../../../../../H-x86_64-mingw32/nios2-elf/lib/pg\libc.a(lib_a-signal.o)
 .comment       0x0000000000000023       0x24 c:/intelfpga_lite/18.1/nios2eds/bin/gnu/h-x86_64-mingw32/bin/../lib/gcc/nios2-elf/5.3.0/../../../../../H-x86_64-mingw32/nios2-elf/lib/pg\libc.a(lib_a-signalr.o)
 .comment       0x0000000000000023       0x24 c:/intelfpga_lite/18.1/nios2eds/bin/gnu/h-x86_64-mingw32/bin/../lib/gcc/nios2-elf/5.3.0/../../../../../H-x86_64-mingw32/nios2-elf/lib/pg\libc.a(lib_a-strcmp.o)
 .comment       0x0000000000000023       0x24 c:/intelfpga_lite/18.1/nios2eds/bin/gnu/h-x86_64-mingw32/bin/../lib/gcc/nios2-elf/5.3.0/../../../../../H-x86_64-mingw32/nios2-elf/lib/pg\libc.a(lib_a-strlen.o)
 .comment       0x0000000000000023       0x24 c:/intelfpga_lite/18.1/nios2eds/bin/gnu/h-x86_64-mingw32/bin/../lib/gcc/nios2-elf/5.3.0/../../../../../H-x86_64-mingw32/nios2-elf/lib/pg\libc.a(lib_a-vfprintf.o)
 .comment       0x0000000000000023       0x24 c:/intelfpga_lite/18.1/nios2eds/bin/gnu/h-x86_64-mingw32/bin/../lib/gcc/nios2-elf/5.3.0/../../../../../H-x86_64-mingw32/nios2-elf/lib/pg\libc.a(lib_a-wsetup.o)
 .comment       0x0000000000000023       0x24 c:/intelfpga_lite/18.1/nios2eds/bin/gnu/h-x86_64-mingw32/bin/../lib/gcc/nios2-elf/5.3.0/../../../../../H-x86_64-mingw32/nios2-elf/lib/pg\libc.a(lib_a-dtoa.o)
 .comment       0x0000000000000023       0x24 c:/intelfpga_lite/18.1/nios2eds/bin/gnu/h-x86_64-mingw32/bin/../lib/gcc/nios2-elf/5.3.0/../../../../../H-x86_64-mingw32/nios2-elf/lib/pg\libc.a(lib_a-fflush.o)
 .comment       0x0000000000000023       0x24 c:/intelfpga_lite/18.1/nios2eds/bin/gnu/h-x86_64-mingw32/bin/../lib/gcc/nios2-elf/5.3.0/../../../../../H-x86_64-mingw32/nios2-elf/lib/pg\libc.a(lib_a-findfp.o)
 .comment       0x0000000000000023       0x24 c:/intelfpga_lite/18.1/nios2eds/bin/gnu/h-x86_64-mingw32/bin/../lib/gcc/nios2-elf/5.3.0/../../../../../H-x86_64-mingw32/nios2-elf/lib/pg\libc.a(lib_a-freer.o)
 .comment       0x0000000000000023       0x24 c:/intelfpga_lite/18.1/nios2eds/bin/gnu/h-x86_64-mingw32/bin/../lib/gcc/nios2-elf/5.3.0/../../../../../H-x86_64-mingw32/nios2-elf/lib/pg\libc.a(lib_a-fvwrite.o)
 .comment       0x0000000000000023       0x24 c:/intelfpga_lite/18.1/nios2eds/bin/gnu/h-x86_64-mingw32/bin/../lib/gcc/nios2-elf/5.3.0/../../../../../H-x86_64-mingw32/nios2-elf/lib/pg\libc.a(lib_a-fwalk.o)
 .comment       0x0000000000000023       0x24 c:/intelfpga_lite/18.1/nios2eds/bin/gnu/h-x86_64-mingw32/bin/../lib/gcc/nios2-elf/5.3.0/../../../../../H-x86_64-mingw32/nios2-elf/lib/pg\libc.a(lib_a-impure.o)
 .comment       0x0000000000000023       0x24 c:/intelfpga_lite/18.1/nios2eds/bin/gnu/h-x86_64-mingw32/bin/../lib/gcc/nios2-elf/5.3.0/../../../../../H-x86_64-mingw32/nios2-elf/lib/pg\libc.a(lib_a-int_errno.o)
 .comment       0x0000000000000023       0x24 c:/intelfpga_lite/18.1/nios2eds/bin/gnu/h-x86_64-mingw32/bin/../lib/gcc/nios2-elf/5.3.0/../../../../../H-x86_64-mingw32/nios2-elf/lib/pg\libc.a(lib_a-locale.o)
 .comment       0x0000000000000023       0x24 c:/intelfpga_lite/18.1/nios2eds/bin/gnu/h-x86_64-mingw32/bin/../lib/gcc/nios2-elf/5.3.0/../../../../../H-x86_64-mingw32/nios2-elf/lib/pg\libc.a(lib_a-makebuf.o)
 .comment       0x0000000000000023       0x24 c:/intelfpga_lite/18.1/nios2eds/bin/gnu/h-x86_64-mingw32/bin/../lib/gcc/nios2-elf/5.3.0/../../../../../H-x86_64-mingw32/nios2-elf/lib/pg\libc.a(lib_a-memchr.o)
 .comment       0x0000000000000023       0x24 c:/intelfpga_lite/18.1/nios2eds/bin/gnu/h-x86_64-mingw32/bin/../lib/gcc/nios2-elf/5.3.0/../../../../../H-x86_64-mingw32/nios2-elf/lib/pg\libc.a(lib_a-memcpy.o)
 .comment       0x0000000000000023       0x24 c:/intelfpga_lite/18.1/nios2eds/bin/gnu/h-x86_64-mingw32/bin/../lib/gcc/nios2-elf/5.3.0/../../../../../H-x86_64-mingw32/nios2-elf/lib/pg\libc.a(lib_a-memmove.o)
 .comment       0x0000000000000023       0x24 c:/intelfpga_lite/18.1/nios2eds/bin/gnu/h-x86_64-mingw32/bin/../lib/gcc/nios2-elf/5.3.0/../../../../../H-x86_64-mingw32/nios2-elf/lib/pg\libc.a(lib_a-mprec.o)
 .comment       0x0000000000000023       0x24 c:/intelfpga_lite/18.1/nios2eds/bin/gnu/h-x86_64-mingw32/bin/../lib/gcc/nios2-elf/5.3.0/../../../../../H-x86_64-mingw32/nios2-elf/lib/pg\libc.a(lib_a-putc.o)
 .comment       0x0000000000000023       0x24 c:/intelfpga_lite/18.1/nios2eds/bin/gnu/h-x86_64-mingw32/bin/../lib/gcc/nios2-elf/5.3.0/../../../../../H-x86_64-mingw32/nios2-elf/lib/pg\libc.a(lib_a-reallocr.o)
 .comment       0x0000000000000023       0x24 c:/intelfpga_lite/18.1/nios2eds/bin/gnu/h-x86_64-mingw32/bin/../lib/gcc/nios2-elf/5.3.0/../../../../../H-x86_64-mingw32/nios2-elf/lib/pg\libc.a(lib_a-s_fpclassify.o)
 .comment       0x0000000000000023       0x24 c:/intelfpga_lite/18.1/nios2eds/bin/gnu/h-x86_64-mingw32/bin/../lib/gcc/nios2-elf/5.3.0/../../../../../H-x86_64-mingw32/nios2-elf/lib/pg\libc.a(lib_a-stdio.o)
 .comment       0x0000000000000023       0x24 c:/intelfpga_lite/18.1/nios2eds/bin/gnu/h-x86_64-mingw32/bin/../lib/gcc/nios2-elf/5.3.0/../../../../../H-x86_64-mingw32/nios2-elf/lib/pg\libc.a(lib_a-vfiprintf.o)
 .comment       0x0000000000000023       0x24 c:/intelfpga_lite/18.1/nios2eds/bin/gnu/h-x86_64-mingw32/bin/../lib/gcc/nios2-elf/5.3.0/../../../../../H-x86_64-mingw32/nios2-elf/lib/pg\libc.a(lib_a-wbuf.o)
 .comment       0x0000000000000023       0x24 c:/intelfpga_lite/18.1/nios2eds/bin/gnu/h-x86_64-mingw32/bin/../lib/gcc/nios2-elf/5.3.0/../../../../../H-x86_64-mingw32/nios2-elf/lib/pg\libc.a(lib_a-writer.o)
 .comment       0x0000000000000023       0x24 c:/intelfpga_lite/18.1/nios2eds/bin/gnu/h-x86_64-mingw32/bin/../lib/gcc/nios2-elf/5.3.0/../../../../../H-x86_64-mingw32/nios2-elf/lib/pg\libc.a(closer.o)
 .comment       0x0000000000000023       0x24 c:/intelfpga_lite/18.1/nios2eds/bin/gnu/h-x86_64-mingw32/bin/../lib/gcc/nios2-elf/5.3.0/../../../../../H-x86_64-mingw32/nios2-elf/lib/pg\libc.a(lib_a-callocr.o)
 .comment       0x0000000000000023       0x24 c:/intelfpga_lite/18.1/nios2eds/bin/gnu/h-x86_64-mingw32/bin/../lib/gcc/nios2-elf/5.3.0/../../../../../H-x86_64-mingw32/nios2-elf/lib/pg\libc.a(lib_a-fclose.o)
 .comment       0x0000000000000023       0x24 c:/intelfpga_lite/18.1/nios2eds/bin/gnu/h-x86_64-mingw32/bin/../lib/gcc/nios2-elf/5.3.0/../../../../../H-x86_64-mingw32/nios2-elf/lib/pg\libc.a(lib_a-fputwc.o)
 .comment       0x0000000000000023       0x24 c:/intelfpga_lite/18.1/nios2eds/bin/gnu/h-x86_64-mingw32/bin/../lib/gcc/nios2-elf/5.3.0/../../../../../H-x86_64-mingw32/nios2-elf/lib/pg\libc.a(lib_a-fstatr.o)
 .comment       0x0000000000000023       0x24 c:/intelfpga_lite/18.1/nios2eds/bin/gnu/h-x86_64-mingw32/bin/../lib/gcc/nios2-elf/5.3.0/../../../../../H-x86_64-mingw32/nios2-elf/lib/pg\libc.a(lib_a-isattyr.o)
 .comment       0x0000000000000023       0x24 c:/intelfpga_lite/18.1/nios2eds/bin/gnu/h-x86_64-mingw32/bin/../lib/gcc/nios2-elf/5.3.0/../../../../../H-x86_64-mingw32/nios2-elf/lib/pg\libc.a(lib_a-lseekr.o)
 .comment       0x0000000000000023       0x24 c:/intelfpga_lite/18.1/nios2eds/bin/gnu/h-x86_64-mingw32/bin/../lib/gcc/nios2-elf/5.3.0/../../../../../H-x86_64-mingw32/nios2-elf/lib/pg\libc.a(lib_a-readr.o)
 .comment       0x0000000000000023       0x24 c:/intelfpga_lite/18.1/nios2eds/bin/gnu/h-x86_64-mingw32/bin/../lib/gcc/nios2-elf/5.3.0/../../../../../H-x86_64-mingw32/nios2-elf/lib/pg\libc.a(lib_a-wcrtomb.o)
 .comment       0x0000000000000023       0x24 c:/intelfpga_lite/18.1/nios2eds/bin/gnu/h-x86_64-mingw32/bin/../lib/gcc/nios2-elf/5.3.0/../../../../../H-x86_64-mingw32/nios2-elf/lib/pg\libc.a(lib_a-wctomb_r.o)
 .comment       0x0000000000000023       0x24 c:/intelfpga_lite/18.1/nios2eds/bin/gnu/h-x86_64-mingw32/bin/../lib/gcc/nios2-elf/5.3.0/pg\libgcc.a(_muldi3.o)
 .comment       0x0000000000000023       0x24 c:/intelfpga_lite/18.1/nios2eds/bin/gnu/h-x86_64-mingw32/bin/../lib/gcc/nios2-elf/5.3.0/pg\libgcc.a(_udivdi3.o)
 .comment       0x0000000000000023       0x24 c:/intelfpga_lite/18.1/nios2eds/bin/gnu/h-x86_64-mingw32/bin/../lib/gcc/nios2-elf/5.3.0/pg\libgcc.a(_umoddi3.o)
 .comment       0x0000000000000023       0x24 c:/intelfpga_lite/18.1/nios2eds/bin/gnu/h-x86_64-mingw32/bin/../lib/gcc/nios2-elf/5.3.0/pg\libgcc.a(adddf3.o)
 .comment       0x0000000000000023       0x24 c:/intelfpga_lite/18.1/nios2eds/bin/gnu/h-x86_64-mingw32/bin/../lib/gcc/nios2-elf/5.3.0/pg\libgcc.a(eqdf2.o)
 .comment       0x0000000000000023       0x24 c:/intelfpga_lite/18.1/nios2eds/bin/gnu/h-x86_64-mingw32/bin/../lib/gcc/nios2-elf/5.3.0/pg\libgcc.a(gedf2.o)
 .comment       0x0000000000000023       0x24 c:/intelfpga_lite/18.1/nios2eds/bin/gnu/h-x86_64-mingw32/bin/../lib/gcc/nios2-elf/5.3.0/pg\libgcc.a(ledf2.o)
 .comment       0x0000000000000023       0x24 c:/intelfpga_lite/18.1/nios2eds/bin/gnu/h-x86_64-mingw32/bin/../lib/gcc/nios2-elf/5.3.0/pg\libgcc.a(muldf3.o)
 .comment       0x0000000000000023       0x24 c:/intelfpga_lite/18.1/nios2eds/bin/gnu/h-x86_64-mingw32/bin/../lib/gcc/nios2-elf/5.3.0/pg\libgcc.a(subdf3.o)
 .comment       0x0000000000000023       0x24 c:/intelfpga_lite/18.1/nios2eds/bin/gnu/h-x86_64-mingw32/bin/../lib/gcc/nios2-elf/5.3.0/pg\libgcc.a(fixdfsi.o)
 .comment       0x0000000000000023       0x24 c:/intelfpga_lite/18.1/nios2eds/bin/gnu/h-x86_64-mingw32/bin/../lib/gcc/nios2-elf/5.3.0/pg\libgcc.a(floatunsidf.o)
 .comment       0x0000000000000023       0x24 ../LUTBrain_NIOS_bsp/\libhal_bsp.a(alt_close.o)
 .comment       0x0000000000000023       0x24 ../LUTBrain_NIOS_bsp/\libhal_bsp.a(alt_dev.o)
 .comment       0x0000000000000023       0x24 ../LUTBrain_NIOS_bsp/\libhal_bsp.a(alt_errno.o)
 .comment       0x0000000000000023       0x24 ../LUTBrain_NIOS_bsp/\libhal_bsp.a(alt_exit.o)
 .comment       0x0000000000000023       0x24 ../LUTBrain_NIOS_bsp/\libhal_bsp.a(alt_fstat.o)
 .comment       0x0000000000000023       0x24 ../LUTBrain_NIOS_bsp/\libhal_bsp.a(alt_getpid.o)
 .comment       0x0000000000000023       0x24 ../LUTBrain_NIOS_bsp/\libhal_bsp.a(alt_gmon.o)
 .comment       0x0000000000000023       0x24 ../LUTBrain_NIOS_bsp/\libhal_bsp.a(alt_isatty.o)
 .comment       0x0000000000000023       0x24 ../LUTBrain_NIOS_bsp/\libhal_bsp.a(alt_kill.o)
 .comment       0x0000000000000023       0x24 ../LUTBrain_NIOS_bsp/\libhal_bsp.a(alt_load.o)
 .comment       0x0000000000000023       0x24 ../LUTBrain_NIOS_bsp/\libhal_bsp.a(alt_lseek.o)
 .comment       0x0000000000000023       0x24 ../LUTBrain_NIOS_bsp/\libhal_bsp.a(alt_main.o)
 .comment       0x0000000000000023       0x24 ../LUTBrain_NIOS_bsp/\libhal_bsp.a(alt_malloc_lock.o)
 .comment       0x0000000000000023       0x24 ../LUTBrain_NIOS_bsp/\libhal_bsp.a(alt_read.o)
 .comment       0x0000000000000023       0x24 ../LUTBrain_NIOS_bsp/\libhal_bsp.a(alt_release_fd.o)
 .comment       0x0000000000000023       0x24 ../LUTBrain_NIOS_bsp/\libhal_bsp.a(alt_sbrk.o)
 .comment       0x0000000000000023       0x24 ../LUTBrain_NIOS_bsp/\libhal_bsp.a(alt_tick.o)
 .comment       0x0000000000000023       0x24 ../LUTBrain_NIOS_bsp/\libhal_bsp.a(alt_write.o)
 .comment       0x0000000000000023       0x24 ../LUTBrain_NIOS_bsp/\libhal_bsp.a(alt_sys_init.o)
 .comment       0x0000000000000023       0x24 ../LUTBrain_NIOS_bsp/\libhal_bsp.a(altera_avalon_jtag_uart_fd.o)
 .comment       0x0000000000000023       0x24 ../LUTBrain_NIOS_bsp/\libhal_bsp.a(altera_avalon_jtag_uart_init.o)
 .comment       0x0000000000000023       0x24 ../LUTBrain_NIOS_bsp/\libhal_bsp.a(altera_avalon_jtag_uart_ioctl.o)
 .comment       0x0000000000000023       0x24 ../LUTBrain_NIOS_bsp/\libhal_bsp.a(altera_avalon_jtag_uart_read.o)
 .comment       0x0000000000000023       0x24 ../LUTBrain_NIOS_bsp/\libhal_bsp.a(altera_avalon_jtag_uart_write.o)
 .comment       0x0000000000000023       0x24 ../LUTBrain_NIOS_bsp/\libhal_bsp.a(altera_avalon_timer_sc.o)
 .comment       0x0000000000000023       0x24 ../LUTBrain_NIOS_bsp/\libhal_bsp.a(altera_avalon_timer_vars.o)
 .comment       0x0000000000000023       0x24 ../LUTBrain_NIOS_bsp/\libhal_bsp.a(alt_alarm_start.o)
 .comment       0x0000000000000023       0x24 ../LUTBrain_NIOS_bsp/\libhal_bsp.a(alt_dcache_flush_all.o)
 .comment       0x0000000000000023       0x24 ../LUTBrain_NIOS_bsp/\libhal_bsp.a(alt_dev_llist_insert.o)
 .comment       0x0000000000000023       0x24 ../LUTBrain_NIOS_bsp/\libhal_bsp.a(alt_do_ctors.o)
 .comment       0x0000000000000023       0x24 ../LUTBrain_NIOS_bsp/\libhal_bsp.a(alt_do_dtors.o)
 .comment       0x0000000000000023       0x24 ../LUTBrain_NIOS_bsp/\libhal_bsp.a(alt_icache_flush_all.o)
 .comment       0x0000000000000023       0x24 ../LUTBrain_NIOS_bsp/\libhal_bsp.a(alt_iic.o)
 .comment       0x0000000000000023       0x24 ../LUTBrain_NIOS_bsp/\libhal_bsp.a(alt_iic_isr_register.o)
 .comment       0x0000000000000023       0x24 ../LUTBrain_NIOS_bsp/\libhal_bsp.a(alt_io_redirect.o)
 .comment       0x0000000000000023       0x24 ../LUTBrain_NIOS_bsp/\libhal_bsp.a(alt_irq_handler.o)
 .comment       0x0000000000000023       0x24 ../LUTBrain_NIOS_bsp/\libhal_bsp.a(alt_irq_vars.o)
 .comment       0x0000000000000023       0x24 ../LUTBrain_NIOS_bsp/\libhal_bsp.a(alt_open.o)
 .comment       0x0000000000000023       0x24 ../LUTBrain_NIOS_bsp/\libhal_bsp.a(altera_nios2_gen2_irq.o)
 .comment       0x0000000000000023       0x24 ../LUTBrain_NIOS_bsp/\libhal_bsp.a(alt_find_dev.o)
 .comment       0x0000000000000023       0x24 ../LUTBrain_NIOS_bsp/\libhal_bsp.a(alt_find_file.o)
 .comment       0x0000000000000023       0x24 ../LUTBrain_NIOS_bsp/\libhal_bsp.a(alt_get_fd.o)
 .comment       0x0000000000000023       0x24 ../LUTBrain_NIOS_bsp/\libhal_bsp.a(alt_icache_flush.o)
 .comment       0x0000000000000023       0x24 ../LUTBrain_NIOS_bsp/\libhal_bsp.a(alt_instruction_exception_entry.o)
 .comment       0x0000000000000023       0x24 c:/intelfpga_lite/18.1/nios2eds/bin/gnu/h-x86_64-mingw32/bin/../lib/gcc/nios2-elf/5.3.0/../../../../../H-x86_64-mingw32/nios2-elf/lib/pg\libc.a(lib_a-atexit.o)
 .comment       0x0000000000000023       0x24 c:/intelfpga_lite/18.1/nios2eds/bin/gnu/h-x86_64-mingw32/bin/../lib/gcc/nios2-elf/5.3.0/../../../../../H-x86_64-mingw32/nios2-elf/lib/pg\libc.a(lib_a-exit.o)
 .comment       0x0000000000000023       0x24 c:/intelfpga_lite/18.1/nios2eds/bin/gnu/h-x86_64-mingw32/bin/../lib/gcc/nios2-elf/5.3.0/../../../../../H-x86_64-mingw32/nios2-elf/lib/pg\libc.a(lib_a-memcmp.o)
 .comment       0x0000000000000023       0x24 c:/intelfpga_lite/18.1/nios2eds/bin/gnu/h-x86_64-mingw32/bin/../lib/gcc/nios2-elf/5.3.0/../../../../../H-x86_64-mingw32/nios2-elf/lib/pg\libc.a(lib_a-__atexit.o)
 .comment       0x0000000000000023       0x24 c:/intelfpga_lite/18.1/nios2eds/bin/gnu/h-x86_64-mingw32/bin/../lib/gcc/nios2-elf/5.3.0/../../../../../H-x86_64-mingw32/nios2-elf/lib/pg\libc.a(lib_a-__call_atexit.o)

.debug
 *(.debug)

.line
 *(.line)

.debug_srcinfo
 *(.debug_srcinfo)

.debug_sfnames
 *(.debug_sfnames)

.debug_aranges  0x0000000000000000     0x1708
 *(.debug_aranges)
 .debug_aranges
                0x0000000000000000       0x28 ../LUTBrain_NIOS_bsp//obj/HAL/src/crt0.o
 .debug_aranges
                0x0000000000000028       0x28 obj/default/Image.o
 .debug_aranges
                0x0000000000000050       0x20 obj/default/NN.o
 .debug_aranges
                0x0000000000000070       0x20 obj/default/NNLayer.o
 .debug_aranges
                0x0000000000000090       0x20 obj/default/VGA.o
 .debug_aranges
                0x00000000000000b0       0x30 obj/default/main.o
 .debug_aranges
                0x00000000000000e0       0x20 c:/intelfpga_lite/18.1/nios2eds/bin/gnu/h-x86_64-mingw32/bin/../lib/gcc/nios2-elf/5.3.0/../../../../../H-x86_64-mingw32/nios2-elf/lib/pg\libstdc++.a(new_opv.o)
 .debug_aranges
                0x0000000000000100       0x20 c:/intelfpga_lite/18.1/nios2eds/bin/gnu/h-x86_64-mingw32/bin/../lib/gcc/nios2-elf/5.3.0/../../../../../H-x86_64-mingw32/nios2-elf/lib/pg\libstdc++.a(new_op.o)
 .debug_aranges
                0x0000000000000120       0x20 c:/intelfpga_lite/18.1/nios2eds/bin/gnu/h-x86_64-mingw32/bin/../lib/gcc/nios2-elf/5.3.0/../../../../../H-x86_64-mingw32/nios2-elf/lib/pg\libstdc++.a(del_opv.o)
 .debug_aranges
                0x0000000000000140       0x28 c:/intelfpga_lite/18.1/nios2eds/bin/gnu/h-x86_64-mingw32/bin/../lib/gcc/nios2-elf/5.3.0/../../../../../H-x86_64-mingw32/nios2-elf/lib/pg\libstdc++.a(new_handler.o)
 .debug_aranges
                0x0000000000000168       0x68 c:/intelfpga_lite/18.1/nios2eds/bin/gnu/h-x86_64-mingw32/bin/../lib/gcc/nios2-elf/5.3.0/../../../../../H-x86_64-mingw32/nios2-elf/lib/pg\libstdc++.a(eh_personality.o)
 .debug_aranges
                0x00000000000001d0       0x30 c:/intelfpga_lite/18.1/nios2eds/bin/gnu/h-x86_64-mingw32/bin/../lib/gcc/nios2-elf/5.3.0/../../../../../H-x86_64-mingw32/nios2-elf/lib/pg\libstdc++.a(bad_alloc.o)
 .debug_aranges
                0x0000000000000200       0x20 c:/intelfpga_lite/18.1/nios2eds/bin/gnu/h-x86_64-mingw32/bin/../lib/gcc/nios2-elf/5.3.0/../../../../../H-x86_64-mingw32/nios2-elf/lib/pg\libstdc++.a(del_op.o)
 .debug_aranges
                0x0000000000000220       0x30 c:/intelfpga_lite/18.1/nios2eds/bin/gnu/h-x86_64-mingw32/bin/../lib/gcc/nios2-elf/5.3.0/../../../../../H-x86_64-mingw32/nios2-elf/lib/pg\libstdc++.a(eh_throw.o)
 .debug_aranges
                0x0000000000000250       0x38 c:/intelfpga_lite/18.1/nios2eds/bin/gnu/h-x86_64-mingw32/bin/../lib/gcc/nios2-elf/5.3.0/../../../../../H-x86_64-mingw32/nios2-elf/lib/pg\libstdc++.a(eh_catch.o)
 .debug_aranges
                0x0000000000000288       0x50 c:/intelfpga_lite/18.1/nios2eds/bin/gnu/h-x86_64-mingw32/bin/../lib/gcc/nios2-elf/5.3.0/../../../../../H-x86_64-mingw32/nios2-elf/lib/pg\libstdc++.a(class_type_info.o)
 .debug_aranges
                0x00000000000002d8       0x58 c:/intelfpga_lite/18.1/nios2eds/bin/gnu/h-x86_64-mingw32/bin/../lib/gcc/nios2-elf/5.3.0/../../../../../H-x86_64-mingw32/nios2-elf/lib/pg\libstdc++.a(eh_terminate.o)
 .debug_aranges
                0x0000000000000330       0x18 c:/intelfpga_lite/18.1/nios2eds/bin/gnu/h-x86_64-mingw32/bin/../lib/gcc/nios2-elf/5.3.0/../../../../../H-x86_64-mingw32/nios2-elf/lib/pg\libstdc++.a(eh_unex_handler.o)
 .debug_aranges
                0x0000000000000348       0x50 c:/intelfpga_lite/18.1/nios2eds/bin/gnu/h-x86_64-mingw32/bin/../lib/gcc/nios2-elf/5.3.0/../../../../../H-x86_64-mingw32/nios2-elf/lib/pg\libstdc++.a(eh_alloc.o)
 .debug_aranges
                0x0000000000000398       0x20 c:/intelfpga_lite/18.1/nios2eds/bin/gnu/h-x86_64-mingw32/bin/../lib/gcc/nios2-elf/5.3.0/../../../../../H-x86_64-mingw32/nios2-elf/lib/pg\libstdc++.a(eh_call.o)
 .debug_aranges
                0x00000000000003b8       0x20 c:/intelfpga_lite/18.1/nios2eds/bin/gnu/h-x86_64-mingw32/bin/../lib/gcc/nios2-elf/5.3.0/../../../../../H-x86_64-mingw32/nios2-elf/lib/pg\libstdc++.a(eh_globals.o)
 .debug_aranges
                0x00000000000003d8       0x40 c:/intelfpga_lite/18.1/nios2eds/bin/gnu/h-x86_64-mingw32/bin/../lib/gcc/nios2-elf/5.3.0/../../../../../H-x86_64-mingw32/nios2-elf/lib/pg\libstdc++.a(si_class_type_info.o)
 .debug_aranges
                0x0000000000000418       0x68 c:/intelfpga_lite/18.1/nios2eds/bin/gnu/h-x86_64-mingw32/bin/../lib/gcc/nios2-elf/5.3.0/../../../../../H-x86_64-mingw32/nios2-elf/lib/pg\libstdc++.a(eh_exception.o)
 .debug_aranges
                0x0000000000000480       0x18 c:/intelfpga_lite/18.1/nios2eds/bin/gnu/h-x86_64-mingw32/bin/../lib/gcc/nios2-elf/5.3.0/../../../../../H-x86_64-mingw32/nios2-elf/lib/pg\libstdc++.a(eh_term_handler.o)
 .debug_aranges
                0x0000000000000498       0x40 c:/intelfpga_lite/18.1/nios2eds/bin/gnu/h-x86_64-mingw32/bin/../lib/gcc/nios2-elf/5.3.0/../../../../../H-x86_64-mingw32/nios2-elf/lib/pg\libstdc++.a(tinfo.o)
 .debug_aranges
                0x00000000000004d8       0x28 c:/intelfpga_lite/18.1/nios2eds/bin/gnu/h-x86_64-mingw32/bin/../lib/gcc/nios2-elf/5.3.0/../../../../../H-x86_64-mingw32/nios2-elf/lib/pg\libstdc++.a(pure.o)
 .debug_aranges
                0x0000000000000500       0x20 c:/intelfpga_lite/18.1/nios2eds/bin/gnu/h-x86_64-mingw32/bin/../lib/gcc/nios2-elf/5.3.0/pg\libgcc.a(_fixunssfsi.o)
 .debug_aranges
                0x0000000000000520       0x20 c:/intelfpga_lite/18.1/nios2eds/bin/gnu/h-x86_64-mingw32/bin/../lib/gcc/nios2-elf/5.3.0/pg\libgcc.a(lib2-divmod.o)
 .debug_aranges
                0x0000000000000540       0x20 c:/intelfpga_lite/18.1/nios2eds/bin/gnu/h-x86_64-mingw32/bin/../lib/gcc/nios2-elf/5.3.0/pg\libgcc.a(addsf3.o)
 .debug_aranges
                0x0000000000000560       0x20 c:/intelfpga_lite/18.1/nios2eds/bin/gnu/h-x86_64-mingw32/bin/../lib/gcc/nios2-elf/5.3.0/pg\libgcc.a(divsf3.o)
 .debug_aranges
                0x0000000000000580       0x20 c:/intelfpga_lite/18.1/nios2eds/bin/gnu/h-x86_64-mingw32/bin/../lib/gcc/nios2-elf/5.3.0/pg\libgcc.a(eqsf2.o)
 .debug_aranges
                0x00000000000005a0       0x20 c:/intelfpga_lite/18.1/nios2eds/bin/gnu/h-x86_64-mingw32/bin/../lib/gcc/nios2-elf/5.3.0/pg\libgcc.a(gesf2.o)
 .debug_aranges
                0x00000000000005c0       0x20 c:/intelfpga_lite/18.1/nios2eds/bin/gnu/h-x86_64-mingw32/bin/../lib/gcc/nios2-elf/5.3.0/pg\libgcc.a(mulsf3.o)
 .debug_aranges
                0x00000000000005e0       0x20 c:/intelfpga_lite/18.1/nios2eds/bin/gnu/h-x86_64-mingw32/bin/../lib/gcc/nios2-elf/5.3.0/pg\libgcc.a(subsf3.o)
 .debug_aranges
                0x0000000000000600       0x20 c:/intelfpga_lite/18.1/nios2eds/bin/gnu/h-x86_64-mingw32/bin/../lib/gcc/nios2-elf/5.3.0/pg\libgcc.a(fixsfsi.o)
 .debug_aranges
                0x0000000000000620       0x20 c:/intelfpga_lite/18.1/nios2eds/bin/gnu/h-x86_64-mingw32/bin/../lib/gcc/nios2-elf/5.3.0/pg\libgcc.a(floatsisf.o)
 .debug_aranges
                0x0000000000000640       0x20 c:/intelfpga_lite/18.1/nios2eds/bin/gnu/h-x86_64-mingw32/bin/../lib/gcc/nios2-elf/5.3.0/pg\libgcc.a(floatunsisf.o)
 .debug_aranges
                0x0000000000000660       0x20 c:/intelfpga_lite/18.1/nios2eds/bin/gnu/h-x86_64-mingw32/bin/../lib/gcc/nios2-elf/5.3.0/pg\libgcc.a(divdf3.o)
 .debug_aranges
                0x0000000000000680       0x20 c:/intelfpga_lite/18.1/nios2eds/bin/gnu/h-x86_64-mingw32/bin/../lib/gcc/nios2-elf/5.3.0/pg\libgcc.a(floatsidf.o)
 .debug_aranges
                0x00000000000006a0       0x20 c:/intelfpga_lite/18.1/nios2eds/bin/gnu/h-x86_64-mingw32/bin/../lib/gcc/nios2-elf/5.3.0/pg\libgcc.a(extendsfdf2.o)
 .debug_aranges
                0x00000000000006c0       0x20 c:/intelfpga_lite/18.1/nios2eds/bin/gnu/h-x86_64-mingw32/bin/../lib/gcc/nios2-elf/5.3.0/pg\libgcc.a(truncdfsf2.o)
 .debug_aranges
                0x00000000000006e0       0x20 c:/intelfpga_lite/18.1/nios2eds/bin/gnu/h-x86_64-mingw32/bin/../lib/gcc/nios2-elf/5.3.0/pg\libgcc.a(unwind-sjlj.o)
 .debug_aranges
                0x0000000000000700       0x20 c:/intelfpga_lite/18.1/nios2eds/bin/gnu/h-x86_64-mingw32/bin/../lib/gcc/nios2-elf/5.3.0/pg\libgcc.a(_clzsi2.o)
 .debug_aranges
                0x0000000000000720       0x18 c:/intelfpga_lite/18.1/nios2eds/bin/gnu/h-x86_64-mingw32/bin/../lib/gcc/nios2-elf/5.3.0/pg\libgcc.a(_clz.o)
 .debug_aranges
                0x0000000000000738       0x20 c:/intelfpga_lite/18.1/nios2eds/bin/gnu/h-x86_64-mingw32/bin/../lib/gcc/nios2-elf/5.3.0/../../../../../H-x86_64-mingw32/nios2-elf/lib/pg\libc.a(lib_a-abort.o)
 .debug_aranges
                0x0000000000000758       0x28 c:/intelfpga_lite/18.1/nios2eds/bin/gnu/h-x86_64-mingw32/bin/../lib/gcc/nios2-elf/5.3.0/../../../../../H-x86_64-mingw32/nios2-elf/lib/pg\libc.a(lib_a-malloc.o)
 .debug_aranges
                0x0000000000000780       0x20 c:/intelfpga_lite/18.1/nios2eds/bin/gnu/h-x86_64-mingw32/bin/../lib/gcc/nios2-elf/5.3.0/../../../../../H-x86_64-mingw32/nios2-elf/lib/pg\libc.a(lib_a-mallocr.o)
 .debug_aranges
                0x00000000000007a0       0x20 c:/intelfpga_lite/18.1/nios2eds/bin/gnu/h-x86_64-mingw32/bin/../lib/gcc/nios2-elf/5.3.0/../../../../../H-x86_64-mingw32/nios2-elf/lib/pg\libc.a(lib_a-memset.o)
 .debug_aranges
                0x00000000000007c0       0x28 c:/intelfpga_lite/18.1/nios2eds/bin/gnu/h-x86_64-mingw32/bin/../lib/gcc/nios2-elf/5.3.0/../../../../../H-x86_64-mingw32/nios2-elf/lib/pg\libc.a(lib_a-printf.o)
 .debug_aranges
                0x00000000000007e8       0x28 c:/intelfpga_lite/18.1/nios2eds/bin/gnu/h-x86_64-mingw32/bin/../lib/gcc/nios2-elf/5.3.0/../../../../../H-x86_64-mingw32/nios2-elf/lib/pg\libc.a(lib_a-putchar.o)
 .debug_aranges
                0x0000000000000810       0x28 c:/intelfpga_lite/18.1/nios2eds/bin/gnu/h-x86_64-mingw32/bin/../lib/gcc/nios2-elf/5.3.0/../../../../../H-x86_64-mingw32/nios2-elf/lib/pg\libc.a(lib_a-puts.o)
 .debug_aranges
                0x0000000000000838       0x28 c:/intelfpga_lite/18.1/nios2eds/bin/gnu/h-x86_64-mingw32/bin/../lib/gcc/nios2-elf/5.3.0/../../../../../H-x86_64-mingw32/nios2-elf/lib/pg\libc.a(lib_a-rand.o)
 .debug_aranges
                0x0000000000000860       0x20 c:/intelfpga_lite/18.1/nios2eds/bin/gnu/h-x86_64-mingw32/bin/../lib/gcc/nios2-elf/5.3.0/../../../../../H-x86_64-mingw32/nios2-elf/lib/pg\libc.a(lib_a-sbrkr.o)
 .debug_aranges
                0x0000000000000880       0x58 c:/intelfpga_lite/18.1/nios2eds/bin/gnu/h-x86_64-mingw32/bin/../lib/gcc/nios2-elf/5.3.0/../../../../../H-x86_64-mingw32/nios2-elf/lib/pg\libc.a(lib_a-signal.o)
 .debug_aranges
                0x00000000000008d8       0x28 c:/intelfpga_lite/18.1/nios2eds/bin/gnu/h-x86_64-mingw32/bin/../lib/gcc/nios2-elf/5.3.0/../../../../../H-x86_64-mingw32/nios2-elf/lib/pg\libc.a(lib_a-signalr.o)
 .debug_aranges
                0x0000000000000900       0x20 c:/intelfpga_lite/18.1/nios2eds/bin/gnu/h-x86_64-mingw32/bin/../lib/gcc/nios2-elf/5.3.0/../../../../../H-x86_64-mingw32/nios2-elf/lib/pg\libc.a(lib_a-strcmp.o)
 .debug_aranges
                0x0000000000000920       0x20 c:/intelfpga_lite/18.1/nios2eds/bin/gnu/h-x86_64-mingw32/bin/../lib/gcc/nios2-elf/5.3.0/../../../../../H-x86_64-mingw32/nios2-elf/lib/pg\libc.a(lib_a-strlen.o)
 .debug_aranges
                0x0000000000000940       0x30 c:/intelfpga_lite/18.1/nios2eds/bin/gnu/h-x86_64-mingw32/bin/../lib/gcc/nios2-elf/5.3.0/../../../../../H-x86_64-mingw32/nios2-elf/lib/pg\libc.a(lib_a-vfprintf.o)
 .debug_aranges
                0x0000000000000970       0x20 c:/intelfpga_lite/18.1/nios2eds/bin/gnu/h-x86_64-mingw32/bin/../lib/gcc/nios2-elf/5.3.0/../../../../../H-x86_64-mingw32/nios2-elf/lib/pg\libc.a(lib_a-wsetup.o)
 .debug_aranges
                0x0000000000000990       0x28 c:/intelfpga_lite/18.1/nios2eds/bin/gnu/h-x86_64-mingw32/bin/../lib/gcc/nios2-elf/5.3.0/../../../../../H-x86_64-mingw32/nios2-elf/lib/pg\libc.a(lib_a-dtoa.o)
 .debug_aranges
                0x00000000000009b8       0x30 c:/intelfpga_lite/18.1/nios2eds/bin/gnu/h-x86_64-mingw32/bin/../lib/gcc/nios2-elf/5.3.0/../../../../../H-x86_64-mingw32/nios2-elf/lib/pg\libc.a(lib_a-fflush.o)
 .debug_aranges
                0x00000000000009e8       0x68 c:/intelfpga_lite/18.1/nios2eds/bin/gnu/h-x86_64-mingw32/bin/../lib/gcc/nios2-elf/5.3.0/../../../../../H-x86_64-mingw32/nios2-elf/lib/pg\libc.a(lib_a-findfp.o)
 .debug_aranges
                0x0000000000000a50       0x28 c:/intelfpga_lite/18.1/nios2eds/bin/gnu/h-x86_64-mingw32/bin/../lib/gcc/nios2-elf/5.3.0/../../../../../H-x86_64-mingw32/nios2-elf/lib/pg\libc.a(lib_a-freer.o)
 .debug_aranges
                0x0000000000000a78       0x20 c:/intelfpga_lite/18.1/nios2eds/bin/gnu/h-x86_64-mingw32/bin/../lib/gcc/nios2-elf/5.3.0/../../../../../H-x86_64-mingw32/nios2-elf/lib/pg\libc.a(lib_a-fvwrite.o)
 .debug_aranges
                0x0000000000000a98       0x28 c:/intelfpga_lite/18.1/nios2eds/bin/gnu/h-x86_64-mingw32/bin/../lib/gcc/nios2-elf/5.3.0/../../../../../H-x86_64-mingw32/nios2-elf/lib/pg\libc.a(lib_a-fwalk.o)
 .debug_aranges
                0x0000000000000ac0       0x18 c:/intelfpga_lite/18.1/nios2eds/bin/gnu/h-x86_64-mingw32/bin/../lib/gcc/nios2-elf/5.3.0/../../../../../H-x86_64-mingw32/nios2-elf/lib/pg\libc.a(lib_a-impure.o)
 .debug_aranges
                0x0000000000000ad8       0x18 c:/intelfpga_lite/18.1/nios2eds/bin/gnu/h-x86_64-mingw32/bin/../lib/gcc/nios2-elf/5.3.0/../../../../../H-x86_64-mingw32/nios2-elf/lib/pg\libc.a(lib_a-int_errno.o)
 .debug_aranges
                0x0000000000000af0       0x58 c:/intelfpga_lite/18.1/nios2eds/bin/gnu/h-x86_64-mingw32/bin/../lib/gcc/nios2-elf/5.3.0/../../../../../H-x86_64-mingw32/nios2-elf/lib/pg\libc.a(lib_a-locale.o)
 .debug_aranges
                0x0000000000000b48       0x20 c:/intelfpga_lite/18.1/nios2eds/bin/gnu/h-x86_64-mingw32/bin/../lib/gcc/nios2-elf/5.3.0/../../../../../H-x86_64-mingw32/nios2-elf/lib/pg\libc.a(lib_a-makebuf.o)
 .debug_aranges
                0x0000000000000b68       0x20 c:/intelfpga_lite/18.1/nios2eds/bin/gnu/h-x86_64-mingw32/bin/../lib/gcc/nios2-elf/5.3.0/../../../../../H-x86_64-mingw32/nios2-elf/lib/pg\libc.a(lib_a-memchr.o)
 .debug_aranges
                0x0000000000000b88       0x20 c:/intelfpga_lite/18.1/nios2eds/bin/gnu/h-x86_64-mingw32/bin/../lib/gcc/nios2-elf/5.3.0/../../../../../H-x86_64-mingw32/nios2-elf/lib/pg\libc.a(lib_a-memcpy.o)
 .debug_aranges
                0x0000000000000ba8       0x20 c:/intelfpga_lite/18.1/nios2eds/bin/gnu/h-x86_64-mingw32/bin/../lib/gcc/nios2-elf/5.3.0/../../../../../H-x86_64-mingw32/nios2-elf/lib/pg\libc.a(lib_a-memmove.o)
 .debug_aranges
                0x0000000000000bc8       0xb0 c:/intelfpga_lite/18.1/nios2eds/bin/gnu/h-x86_64-mingw32/bin/../lib/gcc/nios2-elf/5.3.0/../../../../../H-x86_64-mingw32/nios2-elf/lib/pg\libc.a(lib_a-mprec.o)
 .debug_aranges
                0x0000000000000c78       0x28 c:/intelfpga_lite/18.1/nios2eds/bin/gnu/h-x86_64-mingw32/bin/../lib/gcc/nios2-elf/5.3.0/../../../../../H-x86_64-mingw32/nios2-elf/lib/pg\libc.a(lib_a-putc.o)
 .debug_aranges
                0x0000000000000ca0       0x20 c:/intelfpga_lite/18.1/nios2eds/bin/gnu/h-x86_64-mingw32/bin/../lib/gcc/nios2-elf/5.3.0/../../../../../H-x86_64-mingw32/nios2-elf/lib/pg\libc.a(lib_a-reallocr.o)
 .debug_aranges
                0x0000000000000cc0       0x20 c:/intelfpga_lite/18.1/nios2eds/bin/gnu/h-x86_64-mingw32/bin/../lib/gcc/nios2-elf/5.3.0/../../../../../H-x86_64-mingw32/nios2-elf/lib/pg\libc.a(lib_a-s_fpclassify.o)
 .debug_aranges
                0x0000000000000ce0       0x40 c:/intelfpga_lite/18.1/nios2eds/bin/gnu/h-x86_64-mingw32/bin/../lib/gcc/nios2-elf/5.3.0/../../../../../H-x86_64-mingw32/nios2-elf/lib/pg\libc.a(lib_a-stdio.o)
 .debug_aranges
                0x0000000000000d20       0x40 c:/intelfpga_lite/18.1/nios2eds/bin/gnu/h-x86_64-mingw32/bin/../lib/gcc/nios2-elf/5.3.0/../../../../../H-x86_64-mingw32/nios2-elf/lib/pg\libc.a(lib_a-vfiprintf.o)
 .debug_aranges
                0x0000000000000d60       0x28 c:/intelfpga_lite/18.1/nios2eds/bin/gnu/h-x86_64-mingw32/bin/../lib/gcc/nios2-elf/5.3.0/../../../../../H-x86_64-mingw32/nios2-elf/lib/pg\libc.a(lib_a-wbuf.o)
 .debug_aranges
                0x0000000000000d88       0x20 c:/intelfpga_lite/18.1/nios2eds/bin/gnu/h-x86_64-mingw32/bin/../lib/gcc/nios2-elf/5.3.0/../../../../../H-x86_64-mingw32/nios2-elf/lib/pg\libc.a(lib_a-writer.o)
 .debug_aranges
                0x0000000000000da8       0x20 c:/intelfpga_lite/18.1/nios2eds/bin/gnu/h-x86_64-mingw32/bin/../lib/gcc/nios2-elf/5.3.0/../../../../../H-x86_64-mingw32/nios2-elf/lib/pg\libc.a(closer.o)
 .debug_aranges
                0x0000000000000dc8       0x20 c:/intelfpga_lite/18.1/nios2eds/bin/gnu/h-x86_64-mingw32/bin/../lib/gcc/nios2-elf/5.3.0/../../../../../H-x86_64-mingw32/nios2-elf/lib/pg\libc.a(lib_a-callocr.o)
 .debug_aranges
                0x0000000000000de8       0x28 c:/intelfpga_lite/18.1/nios2eds/bin/gnu/h-x86_64-mingw32/bin/../lib/gcc/nios2-elf/5.3.0/../../../../../H-x86_64-mingw32/nios2-elf/lib/pg\libc.a(lib_a-fclose.o)
 .debug_aranges
                0x0000000000000e10       0x30 c:/intelfpga_lite/18.1/nios2eds/bin/gnu/h-x86_64-mingw32/bin/../lib/gcc/nios2-elf/5.3.0/../../../../../H-x86_64-mingw32/nios2-elf/lib/pg\libc.a(lib_a-fputwc.o)
 .debug_aranges
                0x0000000000000e40       0x20 c:/intelfpga_lite/18.1/nios2eds/bin/gnu/h-x86_64-mingw32/bin/../lib/gcc/nios2-elf/5.3.0/../../../../../H-x86_64-mingw32/nios2-elf/lib/pg\libc.a(lib_a-fstatr.o)
 .debug_aranges
                0x0000000000000e60       0x20 c:/intelfpga_lite/18.1/nios2eds/bin/gnu/h-x86_64-mingw32/bin/../lib/gcc/nios2-elf/5.3.0/../../../../../H-x86_64-mingw32/nios2-elf/lib/pg\libc.a(lib_a-isattyr.o)
 .debug_aranges
                0x0000000000000e80       0x20 c:/intelfpga_lite/18.1/nios2eds/bin/gnu/h-x86_64-mingw32/bin/../lib/gcc/nios2-elf/5.3.0/../../../../../H-x86_64-mingw32/nios2-elf/lib/pg\libc.a(lib_a-lseekr.o)
 .debug_aranges
                0x0000000000000ea0       0x20 c:/intelfpga_lite/18.1/nios2eds/bin/gnu/h-x86_64-mingw32/bin/../lib/gcc/nios2-elf/5.3.0/../../../../../H-x86_64-mingw32/nios2-elf/lib/pg\libc.a(lib_a-readr.o)
 .debug_aranges
                0x0000000000000ec0       0x28 c:/intelfpga_lite/18.1/nios2eds/bin/gnu/h-x86_64-mingw32/bin/../lib/gcc/nios2-elf/5.3.0/../../../../../H-x86_64-mingw32/nios2-elf/lib/pg\libc.a(lib_a-wcrtomb.o)
 .debug_aranges
                0x0000000000000ee8       0x28 c:/intelfpga_lite/18.1/nios2eds/bin/gnu/h-x86_64-mingw32/bin/../lib/gcc/nios2-elf/5.3.0/../../../../../H-x86_64-mingw32/nios2-elf/lib/pg\libc.a(lib_a-wctomb_r.o)
 .debug_aranges
                0x0000000000000f10       0x20 c:/intelfpga_lite/18.1/nios2eds/bin/gnu/h-x86_64-mingw32/bin/../lib/gcc/nios2-elf/5.3.0/pg\libgcc.a(_muldi3.o)
 .debug_aranges
                0x0000000000000f30       0x20 c:/intelfpga_lite/18.1/nios2eds/bin/gnu/h-x86_64-mingw32/bin/../lib/gcc/nios2-elf/5.3.0/pg\libgcc.a(_udivdi3.o)
 .debug_aranges
                0x0000000000000f50       0x20 c:/intelfpga_lite/18.1/nios2eds/bin/gnu/h-x86_64-mingw32/bin/../lib/gcc/nios2-elf/5.3.0/pg\libgcc.a(_umoddi3.o)
 .debug_aranges
                0x0000000000000f70       0x20 c:/intelfpga_lite/18.1/nios2eds/bin/gnu/h-x86_64-mingw32/bin/../lib/gcc/nios2-elf/5.3.0/pg\libgcc.a(adddf3.o)
 .debug_aranges
                0x0000000000000f90       0x20 c:/intelfpga_lite/18.1/nios2eds/bin/gnu/h-x86_64-mingw32/bin/../lib/gcc/nios2-elf/5.3.0/pg\libgcc.a(eqdf2.o)
 .debug_aranges
                0x0000000000000fb0       0x20 c:/intelfpga_lite/18.1/nios2eds/bin/gnu/h-x86_64-mingw32/bin/../lib/gcc/nios2-elf/5.3.0/pg\libgcc.a(gedf2.o)
 .debug_aranges
                0x0000000000000fd0       0x20 c:/intelfpga_lite/18.1/nios2eds/bin/gnu/h-x86_64-mingw32/bin/../lib/gcc/nios2-elf/5.3.0/pg\libgcc.a(ledf2.o)
 .debug_aranges
                0x0000000000000ff0       0x20 c:/intelfpga_lite/18.1/nios2eds/bin/gnu/h-x86_64-mingw32/bin/../lib/gcc/nios2-elf/5.3.0/pg\libgcc.a(muldf3.o)
 .debug_aranges
                0x0000000000001010       0x20 c:/intelfpga_lite/18.1/nios2eds/bin/gnu/h-x86_64-mingw32/bin/../lib/gcc/nios2-elf/5.3.0/pg\libgcc.a(subdf3.o)
 .debug_aranges
                0x0000000000001030       0x20 c:/intelfpga_lite/18.1/nios2eds/bin/gnu/h-x86_64-mingw32/bin/../lib/gcc/nios2-elf/5.3.0/pg\libgcc.a(fixdfsi.o)
 .debug_aranges
                0x0000000000001050       0x20 c:/intelfpga_lite/18.1/nios2eds/bin/gnu/h-x86_64-mingw32/bin/../lib/gcc/nios2-elf/5.3.0/pg\libgcc.a(floatunsidf.o)
 .debug_aranges
                0x0000000000001070       0x20 ../LUTBrain_NIOS_bsp/\libhal_bsp.a(alt_close.o)
 .debug_aranges
                0x0000000000001090       0x20 ../LUTBrain_NIOS_bsp/\libhal_bsp.a(alt_dev.o)
 .debug_aranges
                0x00000000000010b0       0x18 ../LUTBrain_NIOS_bsp/\libhal_bsp.a(alt_errno.o)
 .debug_aranges
                0x00000000000010c8       0x20 ../LUTBrain_NIOS_bsp/\libhal_bsp.a(alt_exit.o)
 .debug_aranges
                0x00000000000010e8       0x20 ../LUTBrain_NIOS_bsp/\libhal_bsp.a(alt_fstat.o)
 .debug_aranges
                0x0000000000001108       0x20 ../LUTBrain_NIOS_bsp/\libhal_bsp.a(alt_getpid.o)
 .debug_aranges
                0x0000000000001128       0x20 ../LUTBrain_NIOS_bsp/\libhal_bsp.a(alt_gmon.o)
 .debug_aranges
                0x0000000000001148       0x20 ../LUTBrain_NIOS_bsp/\libhal_bsp.a(alt_isatty.o)
 .debug_aranges
                0x0000000000001168       0x20 ../LUTBrain_NIOS_bsp/\libhal_bsp.a(alt_kill.o)
 .debug_aranges
                0x0000000000001188       0x20 ../LUTBrain_NIOS_bsp/\libhal_bsp.a(alt_load.o)
 .debug_aranges
                0x00000000000011a8       0x20 ../LUTBrain_NIOS_bsp/\libhal_bsp.a(alt_lseek.o)
 .debug_aranges
                0x00000000000011c8       0x20 ../LUTBrain_NIOS_bsp/\libhal_bsp.a(alt_main.o)
 .debug_aranges
                0x00000000000011e8       0x20 ../LUTBrain_NIOS_bsp/\libhal_bsp.a(alt_malloc_lock.o)
 .debug_aranges
                0x0000000000001208       0x20 ../LUTBrain_NIOS_bsp/\libhal_bsp.a(alt_mcount.o)
 .debug_aranges
                0x0000000000001228       0x20 ../LUTBrain_NIOS_bsp/\libhal_bsp.a(alt_read.o)
 .debug_aranges
                0x0000000000001248       0x20 ../LUTBrain_NIOS_bsp/\libhal_bsp.a(alt_release_fd.o)
 .debug_aranges
                0x0000000000001268       0x20 ../LUTBrain_NIOS_bsp/\libhal_bsp.a(alt_sbrk.o)
 .debug_aranges
                0x0000000000001288       0x20 ../LUTBrain_NIOS_bsp/\libhal_bsp.a(alt_tick.o)
 .debug_aranges
                0x00000000000012a8       0x20 ../LUTBrain_NIOS_bsp/\libhal_bsp.a(alt_write.o)
 .debug_aranges
                0x00000000000012c8       0x20 ../LUTBrain_NIOS_bsp/\libhal_bsp.a(alt_sys_init.o)
 .debug_aranges
                0x00000000000012e8       0x20 ../LUTBrain_NIOS_bsp/\libhal_bsp.a(altera_avalon_jtag_uart_fd.o)
 .debug_aranges
                0x0000000000001308       0x20 ../LUTBrain_NIOS_bsp/\libhal_bsp.a(altera_avalon_jtag_uart_init.o)
 .debug_aranges
                0x0000000000001328       0x20 ../LUTBrain_NIOS_bsp/\libhal_bsp.a(altera_avalon_jtag_uart_ioctl.o)
 .debug_aranges
                0x0000000000001348       0x20 ../LUTBrain_NIOS_bsp/\libhal_bsp.a(altera_avalon_jtag_uart_read.o)
 .debug_aranges
                0x0000000000001368       0x20 ../LUTBrain_NIOS_bsp/\libhal_bsp.a(altera_avalon_jtag_uart_write.o)
 .debug_aranges
                0x0000000000001388       0x20 ../LUTBrain_NIOS_bsp/\libhal_bsp.a(altera_avalon_timer_sc.o)
 .debug_aranges
                0x00000000000013a8       0x18 ../LUTBrain_NIOS_bsp/\libhal_bsp.a(altera_avalon_timer_vars.o)
 .debug_aranges
                0x00000000000013c0       0x20 ../LUTBrain_NIOS_bsp/\libhal_bsp.a(alt_alarm_start.o)
 .debug_aranges
                0x00000000000013e0       0x20 ../LUTBrain_NIOS_bsp/\libhal_bsp.a(alt_dcache_flush_all.o)
 .debug_aranges
                0x0000000000001400       0x20 ../LUTBrain_NIOS_bsp/\libhal_bsp.a(alt_dev_llist_insert.o)
 .debug_aranges
                0x0000000000001420       0x20 ../LUTBrain_NIOS_bsp/\libhal_bsp.a(alt_do_ctors.o)
 .debug_aranges
                0x0000000000001440       0x20 ../LUTBrain_NIOS_bsp/\libhal_bsp.a(alt_do_dtors.o)
 .debug_aranges
                0x0000000000001460       0x20 ../LUTBrain_NIOS_bsp/\libhal_bsp.a(alt_icache_flush_all.o)
 .debug_aranges
                0x0000000000001480       0x20 ../LUTBrain_NIOS_bsp/\libhal_bsp.a(alt_iic.o)
 .debug_aranges
                0x00000000000014a0       0x20 ../LUTBrain_NIOS_bsp/\libhal_bsp.a(alt_iic_isr_register.o)
 .debug_aranges
                0x00000000000014c0       0x20 ../LUTBrain_NIOS_bsp/\libhal_bsp.a(alt_io_redirect.o)
 .debug_aranges
                0x00000000000014e0       0x30 ../LUTBrain_NIOS_bsp/\libhal_bsp.a(alt_irq_entry.o)
 .debug_aranges
                0x0000000000001510       0x20 ../LUTBrain_NIOS_bsp/\libhal_bsp.a(alt_irq_handler.o)
 .debug_aranges
                0x0000000000001530       0x18 ../LUTBrain_NIOS_bsp/\libhal_bsp.a(alt_irq_vars.o)
 .debug_aranges
                0x0000000000001548       0x20 ../LUTBrain_NIOS_bsp/\libhal_bsp.a(alt_open.o)
 .debug_aranges
                0x0000000000001568       0x20 ../LUTBrain_NIOS_bsp/\libhal_bsp.a(altera_nios2_gen2_irq.o)
 .debug_aranges
                0x0000000000001588       0x38 ../LUTBrain_NIOS_bsp/\libhal_bsp.a(alt_exception_entry.o)
 .debug_aranges
                0x00000000000015c0       0x20 ../LUTBrain_NIOS_bsp/\libhal_bsp.a(alt_find_dev.o)
 .debug_aranges
                0x00000000000015e0       0x20 ../LUTBrain_NIOS_bsp/\libhal_bsp.a(alt_find_file.o)
 .debug_aranges
                0x0000000000001600       0x20 ../LUTBrain_NIOS_bsp/\libhal_bsp.a(alt_get_fd.o)
 .debug_aranges
                0x0000000000001620       0x20 ../LUTBrain_NIOS_bsp/\libhal_bsp.a(alt_icache_flush.o)
 .debug_aranges
                0x0000000000001640       0x28 ../LUTBrain_NIOS_bsp/\libhal_bsp.a(alt_instruction_exception_entry.o)
 .debug_aranges
                0x0000000000001668       0x20 c:/intelfpga_lite/18.1/nios2eds/bin/gnu/h-x86_64-mingw32/bin/../lib/gcc/nios2-elf/5.3.0/../../../../../H-x86_64-mingw32/nios2-elf/lib/pg\libc.a(lib_a-atexit.o)
 .debug_aranges
                0x0000000000001688       0x20 c:/intelfpga_lite/18.1/nios2eds/bin/gnu/h-x86_64-mingw32/bin/../lib/gcc/nios2-elf/5.3.0/../../../../../H-x86_64-mingw32/nios2-elf/lib/pg\libc.a(lib_a-exit.o)
 .debug_aranges
                0x00000000000016a8       0x20 c:/intelfpga_lite/18.1/nios2eds/bin/gnu/h-x86_64-mingw32/bin/../lib/gcc/nios2-elf/5.3.0/../../../../../H-x86_64-mingw32/nios2-elf/lib/pg\libc.a(lib_a-memcmp.o)
 .debug_aranges
                0x00000000000016c8       0x20 c:/intelfpga_lite/18.1/nios2eds/bin/gnu/h-x86_64-mingw32/bin/../lib/gcc/nios2-elf/5.3.0/../../../../../H-x86_64-mingw32/nios2-elf/lib/pg\libc.a(lib_a-__atexit.o)
 .debug_aranges
                0x00000000000016e8       0x20 c:/intelfpga_lite/18.1/nios2eds/bin/gnu/h-x86_64-mingw32/bin/../lib/gcc/nios2-elf/5.3.0/../../../../../H-x86_64-mingw32/nios2-elf/lib/pg\libc.a(lib_a-__call_atexit.o)

.debug_pubnames
 *(.debug_pubnames)

.debug_info     0x0000000000000000    0x34dce
 *(.debug_info .gnu.linkonce.wi.*)
 .debug_info    0x0000000000000000       0x8a ../LUTBrain_NIOS_bsp//obj/HAL/src/crt0.o
 .debug_info    0x000000000000008a      0x970 obj/default/Image.o
 .debug_info    0x00000000000009fa      0x3fa obj/default/NN.o
 .debug_info    0x0000000000000df4      0x76d obj/default/NNLayer.o
 .debug_info    0x0000000000001561      0x19e obj/default/VGA.o
 .debug_info    0x00000000000016ff      0x543 obj/default/main.o
 .debug_info    0x0000000000001c42       0xe6 c:/intelfpga_lite/18.1/nios2eds/bin/gnu/h-x86_64-mingw32/bin/../lib/gcc/nios2-elf/5.3.0/../../../../../H-x86_64-mingw32/nios2-elf/lib/pg\libstdc++.a(new_opv.o)
 .debug_info    0x0000000000001d28      0x5a4 c:/intelfpga_lite/18.1/nios2eds/bin/gnu/h-x86_64-mingw32/bin/../lib/gcc/nios2-elf/5.3.0/../../../../../H-x86_64-mingw32/nios2-elf/lib/pg\libstdc++.a(new_op.o)
 .debug_info    0x00000000000022cc       0xa5 c:/intelfpga_lite/18.1/nios2eds/bin/gnu/h-x86_64-mingw32/bin/../lib/gcc/nios2-elf/5.3.0/../../../../../H-x86_64-mingw32/nios2-elf/lib/pg\libstdc++.a(del_opv.o)
 .debug_info    0x0000000000002371      0x46e c:/intelfpga_lite/18.1/nios2eds/bin/gnu/h-x86_64-mingw32/bin/../lib/gcc/nios2-elf/5.3.0/../../../../../H-x86_64-mingw32/nios2-elf/lib/pg\libstdc++.a(new_handler.o)
 .debug_info    0x00000000000027df     0x1f92 c:/intelfpga_lite/18.1/nios2eds/bin/gnu/h-x86_64-mingw32/bin/../lib/gcc/nios2-elf/5.3.0/../../../../../H-x86_64-mingw32/nios2-elf/lib/pg\libstdc++.a(eh_personality.o)
 .debug_info    0x0000000000004771      0x1f4 c:/intelfpga_lite/18.1/nios2eds/bin/gnu/h-x86_64-mingw32/bin/../lib/gcc/nios2-elf/5.3.0/../../../../../H-x86_64-mingw32/nios2-elf/lib/pg\libstdc++.a(bad_alloc.o)
 .debug_info    0x0000000000004965      0x463 c:/intelfpga_lite/18.1/nios2eds/bin/gnu/h-x86_64-mingw32/bin/../lib/gcc/nios2-elf/5.3.0/../../../../../H-x86_64-mingw32/nios2-elf/lib/pg\libstdc++.a(del_op.o)
 .debug_info    0x0000000000004dc8      0x601 c:/intelfpga_lite/18.1/nios2eds/bin/gnu/h-x86_64-mingw32/bin/../lib/gcc/nios2-elf/5.3.0/../../../../../H-x86_64-mingw32/nios2-elf/lib/pg\libstdc++.a(eh_throw.o)
 .debug_info    0x00000000000053c9      0x8fe c:/intelfpga_lite/18.1/nios2eds/bin/gnu/h-x86_64-mingw32/bin/../lib/gcc/nios2-elf/5.3.0/../../../../../H-x86_64-mingw32/nios2-elf/lib/pg\libstdc++.a(eh_catch.o)
 .debug_info    0x0000000000005cc7      0xa9a c:/intelfpga_lite/18.1/nios2eds/bin/gnu/h-x86_64-mingw32/bin/../lib/gcc/nios2-elf/5.3.0/../../../../../H-x86_64-mingw32/nios2-elf/lib/pg\libstdc++.a(class_type_info.o)
 .debug_info    0x0000000000006761      0xace c:/intelfpga_lite/18.1/nios2eds/bin/gnu/h-x86_64-mingw32/bin/../lib/gcc/nios2-elf/5.3.0/../../../../../H-x86_64-mingw32/nios2-elf/lib/pg\libstdc++.a(eh_terminate.o)
 .debug_info    0x000000000000722f      0x119 c:/intelfpga_lite/18.1/nios2eds/bin/gnu/h-x86_64-mingw32/bin/../lib/gcc/nios2-elf/5.3.0/../../../../../H-x86_64-mingw32/nios2-elf/lib/pg\libstdc++.a(eh_unex_handler.o)
 .debug_info    0x0000000000007348     0x10dd c:/intelfpga_lite/18.1/nios2eds/bin/gnu/h-x86_64-mingw32/bin/../lib/gcc/nios2-elf/5.3.0/../../../../../H-x86_64-mingw32/nios2-elf/lib/pg\libstdc++.a(eh_alloc.o)
 .debug_info    0x0000000000008425      0x725 c:/intelfpga_lite/18.1/nios2eds/bin/gnu/h-x86_64-mingw32/bin/../lib/gcc/nios2-elf/5.3.0/../../../../../H-x86_64-mingw32/nios2-elf/lib/pg\libstdc++.a(eh_call.o)
 .debug_info    0x0000000000008b4a      0x6a4 c:/intelfpga_lite/18.1/nios2eds/bin/gnu/h-x86_64-mingw32/bin/../lib/gcc/nios2-elf/5.3.0/../../../../../H-x86_64-mingw32/nios2-elf/lib/pg\libstdc++.a(eh_globals.o)
 .debug_info    0x00000000000091ee      0x8b7 c:/intelfpga_lite/18.1/nios2eds/bin/gnu/h-x86_64-mingw32/bin/../lib/gcc/nios2-elf/5.3.0/../../../../../H-x86_64-mingw32/nios2-elf/lib/pg\libstdc++.a(si_class_type_info.o)
 .debug_info    0x0000000000009aa5      0x523 c:/intelfpga_lite/18.1/nios2eds/bin/gnu/h-x86_64-mingw32/bin/../lib/gcc/nios2-elf/5.3.0/../../../../../H-x86_64-mingw32/nios2-elf/lib/pg\libstdc++.a(eh_exception.o)
 .debug_info    0x0000000000009fc8      0x119 c:/intelfpga_lite/18.1/nios2eds/bin/gnu/h-x86_64-mingw32/bin/../lib/gcc/nios2-elf/5.3.0/../../../../../H-x86_64-mingw32/nios2-elf/lib/pg\libstdc++.a(eh_term_handler.o)
 .debug_info    0x000000000000a0e1      0x4bb c:/intelfpga_lite/18.1/nios2eds/bin/gnu/h-x86_64-mingw32/bin/../lib/gcc/nios2-elf/5.3.0/../../../../../H-x86_64-mingw32/nios2-elf/lib/pg\libstdc++.a(tinfo.o)
 .debug_info    0x000000000000a59c      0x1c3 c:/intelfpga_lite/18.1/nios2eds/bin/gnu/h-x86_64-mingw32/bin/../lib/gcc/nios2-elf/5.3.0/../../../../../H-x86_64-mingw32/nios2-elf/lib/pg\libstdc++.a(pure.o)
 .debug_info    0x000000000000a75f       0xc7 c:/intelfpga_lite/18.1/nios2eds/bin/gnu/h-x86_64-mingw32/bin/../lib/gcc/nios2-elf/5.3.0/pg\libgcc.a(_fixunssfsi.o)
 .debug_info    0x000000000000a826      0x2c6 c:/intelfpga_lite/18.1/nios2eds/bin/gnu/h-x86_64-mingw32/bin/../lib/gcc/nios2-elf/5.3.0/pg\libgcc.a(lib2-divmod.o)
 .debug_info    0x000000000000aaec      0x2b7 c:/intelfpga_lite/18.1/nios2eds/bin/gnu/h-x86_64-mingw32/bin/../lib/gcc/nios2-elf/5.3.0/pg\libgcc.a(addsf3.o)
 .debug_info    0x000000000000ada3      0x2bb c:/intelfpga_lite/18.1/nios2eds/bin/gnu/h-x86_64-mingw32/bin/../lib/gcc/nios2-elf/5.3.0/pg\libgcc.a(divsf3.o)
 .debug_info    0x000000000000b05e      0x1b3 c:/intelfpga_lite/18.1/nios2eds/bin/gnu/h-x86_64-mingw32/bin/../lib/gcc/nios2-elf/5.3.0/pg\libgcc.a(eqsf2.o)
 .debug_info    0x000000000000b211      0x1d3 c:/intelfpga_lite/18.1/nios2eds/bin/gnu/h-x86_64-mingw32/bin/../lib/gcc/nios2-elf/5.3.0/pg\libgcc.a(gesf2.o)
 .debug_info    0x000000000000b3e4      0x321 c:/intelfpga_lite/18.1/nios2eds/bin/gnu/h-x86_64-mingw32/bin/../lib/gcc/nios2-elf/5.3.0/pg\libgcc.a(mulsf3.o)
 .debug_info    0x000000000000b705      0x2b7 c:/intelfpga_lite/18.1/nios2eds/bin/gnu/h-x86_64-mingw32/bin/../lib/gcc/nios2-elf/5.3.0/pg\libgcc.a(subsf3.o)
 .debug_info    0x000000000000b9bc      0x188 c:/intelfpga_lite/18.1/nios2eds/bin/gnu/h-x86_64-mingw32/bin/../lib/gcc/nios2-elf/5.3.0/pg\libgcc.a(fixsfsi.o)
 .debug_info    0x000000000000bb44      0x1c7 c:/intelfpga_lite/18.1/nios2eds/bin/gnu/h-x86_64-mingw32/bin/../lib/gcc/nios2-elf/5.3.0/pg\libgcc.a(floatsisf.o)
 .debug_info    0x000000000000bd0b      0x1bb c:/intelfpga_lite/18.1/nios2eds/bin/gnu/h-x86_64-mingw32/bin/../lib/gcc/nios2-elf/5.3.0/pg\libgcc.a(floatunsisf.o)
 .debug_info    0x000000000000bec6      0x5cb c:/intelfpga_lite/18.1/nios2eds/bin/gnu/h-x86_64-mingw32/bin/../lib/gcc/nios2-elf/5.3.0/pg\libgcc.a(divdf3.o)
 .debug_info    0x000000000000c491      0x1bc c:/intelfpga_lite/18.1/nios2eds/bin/gnu/h-x86_64-mingw32/bin/../lib/gcc/nios2-elf/5.3.0/pg\libgcc.a(floatsidf.o)
 .debug_info    0x000000000000c64d      0x248 c:/intelfpga_lite/18.1/nios2eds/bin/gnu/h-x86_64-mingw32/bin/../lib/gcc/nios2-elf/5.3.0/pg\libgcc.a(extendsfdf2.o)
 .debug_info    0x000000000000c895      0x248 c:/intelfpga_lite/18.1/nios2eds/bin/gnu/h-x86_64-mingw32/bin/../lib/gcc/nios2-elf/5.3.0/pg\libgcc.a(truncdfsf2.o)
 .debug_info    0x000000000000cadd      0xcb3 c:/intelfpga_lite/18.1/nios2eds/bin/gnu/h-x86_64-mingw32/bin/../lib/gcc/nios2-elf/5.3.0/pg\libgcc.a(unwind-sjlj.o)
 .debug_info    0x000000000000d790      0x124 c:/intelfpga_lite/18.1/nios2eds/bin/gnu/h-x86_64-mingw32/bin/../lib/gcc/nios2-elf/5.3.0/pg\libgcc.a(_clzsi2.o)
 .debug_info    0x000000000000d8b4       0xb2 c:/intelfpga_lite/18.1/nios2eds/bin/gnu/h-x86_64-mingw32/bin/../lib/gcc/nios2-elf/5.3.0/pg\libgcc.a(_clz.o)
 .debug_info    0x000000000000d966       0xcf c:/intelfpga_lite/18.1/nios2eds/bin/gnu/h-x86_64-mingw32/bin/../lib/gcc/nios2-elf/5.3.0/../../../../../H-x86_64-mingw32/nios2-elf/lib/pg\libc.a(lib_a-abort.o)
 .debug_info    0x000000000000da35      0x911 c:/intelfpga_lite/18.1/nios2eds/bin/gnu/h-x86_64-mingw32/bin/../lib/gcc/nios2-elf/5.3.0/../../../../../H-x86_64-mingw32/nios2-elf/lib/pg\libc.a(lib_a-malloc.o)
 .debug_info    0x000000000000e346      0xd57 c:/intelfpga_lite/18.1/nios2eds/bin/gnu/h-x86_64-mingw32/bin/../lib/gcc/nios2-elf/5.3.0/../../../../../H-x86_64-mingw32/nios2-elf/lib/pg\libc.a(lib_a-mallocr.o)
 .debug_info    0x000000000000f09d      0x121 c:/intelfpga_lite/18.1/nios2eds/bin/gnu/h-x86_64-mingw32/bin/../lib/gcc/nios2-elf/5.3.0/../../../../../H-x86_64-mingw32/nios2-elf/lib/pg\libc.a(lib_a-memset.o)
 .debug_info    0x000000000000f1be      0x991 c:/intelfpga_lite/18.1/nios2eds/bin/gnu/h-x86_64-mingw32/bin/../lib/gcc/nios2-elf/5.3.0/../../../../../H-x86_64-mingw32/nios2-elf/lib/pg\libc.a(lib_a-printf.o)
 .debug_info    0x000000000000fb4f      0x922 c:/intelfpga_lite/18.1/nios2eds/bin/gnu/h-x86_64-mingw32/bin/../lib/gcc/nios2-elf/5.3.0/../../../../../H-x86_64-mingw32/nios2-elf/lib/pg\libc.a(lib_a-putchar.o)
 .debug_info    0x0000000000010471      0xa38 c:/intelfpga_lite/18.1/nios2eds/bin/gnu/h-x86_64-mingw32/bin/../lib/gcc/nios2-elf/5.3.0/../../../../../H-x86_64-mingw32/nios2-elf/lib/pg\libc.a(lib_a-puts.o)
 .debug_info    0x0000000000010ea9      0x8d7 c:/intelfpga_lite/18.1/nios2eds/bin/gnu/h-x86_64-mingw32/bin/../lib/gcc/nios2-elf/5.3.0/../../../../../H-x86_64-mingw32/nios2-elf/lib/pg\libc.a(lib_a-rand.o)
 .debug_info    0x0000000000011780      0x900 c:/intelfpga_lite/18.1/nios2eds/bin/gnu/h-x86_64-mingw32/bin/../lib/gcc/nios2-elf/5.3.0/../../../../../H-x86_64-mingw32/nios2-elf/lib/pg\libc.a(lib_a-sbrkr.o)
 .debug_info    0x0000000000012080      0xb92 c:/intelfpga_lite/18.1/nios2eds/bin/gnu/h-x86_64-mingw32/bin/../lib/gcc/nios2-elf/5.3.0/../../../../../H-x86_64-mingw32/nios2-elf/lib/pg\libc.a(lib_a-signal.o)
 .debug_info    0x0000000000012c12      0x955 c:/intelfpga_lite/18.1/nios2eds/bin/gnu/h-x86_64-mingw32/bin/../lib/gcc/nios2-elf/5.3.0/../../../../../H-x86_64-mingw32/nios2-elf/lib/pg\libc.a(lib_a-signalr.o)
 .debug_info    0x0000000000013567       0xe4 c:/intelfpga_lite/18.1/nios2eds/bin/gnu/h-x86_64-mingw32/bin/../lib/gcc/nios2-elf/5.3.0/../../../../../H-x86_64-mingw32/nios2-elf/lib/pg\libc.a(lib_a-strcmp.o)
 .debug_info    0x000000000001364b       0xe2 c:/intelfpga_lite/18.1/nios2eds/bin/gnu/h-x86_64-mingw32/bin/../lib/gcc/nios2-elf/5.3.0/../../../../../H-x86_64-mingw32/nios2-elf/lib/pg\libc.a(lib_a-strlen.o)
 .debug_info    0x000000000001372d     0x16b8 c:/intelfpga_lite/18.1/nios2eds/bin/gnu/h-x86_64-mingw32/bin/../lib/gcc/nios2-elf/5.3.0/../../../../../H-x86_64-mingw32/nios2-elf/lib/pg\libc.a(lib_a-vfprintf.o)
 .debug_info    0x0000000000014de5      0x936 c:/intelfpga_lite/18.1/nios2eds/bin/gnu/h-x86_64-mingw32/bin/../lib/gcc/nios2-elf/5.3.0/../../../../../H-x86_64-mingw32/nios2-elf/lib/pg\libc.a(lib_a-wsetup.o)
 .debug_info    0x000000000001571b     0x1247 c:/intelfpga_lite/18.1/nios2eds/bin/gnu/h-x86_64-mingw32/bin/../lib/gcc/nios2-elf/5.3.0/../../../../../H-x86_64-mingw32/nios2-elf/lib/pg\libc.a(lib_a-dtoa.o)
 .debug_info    0x0000000000016962      0xa93 c:/intelfpga_lite/18.1/nios2eds/bin/gnu/h-x86_64-mingw32/bin/../lib/gcc/nios2-elf/5.3.0/../../../../../H-x86_64-mingw32/nios2-elf/lib/pg\libc.a(lib_a-fflush.o)
 .debug_info    0x00000000000173f5      0xd37 c:/intelfpga_lite/18.1/nios2eds/bin/gnu/h-x86_64-mingw32/bin/../lib/gcc/nios2-elf/5.3.0/../../../../../H-x86_64-mingw32/nios2-elf/lib/pg\libc.a(lib_a-findfp.o)
 .debug_info    0x000000000001812c      0xbf7 c:/intelfpga_lite/18.1/nios2eds/bin/gnu/h-x86_64-mingw32/bin/../lib/gcc/nios2-elf/5.3.0/../../../../../H-x86_64-mingw32/nios2-elf/lib/pg\libc.a(lib_a-freer.o)
 .debug_info    0x0000000000018d23      0xbb8 c:/intelfpga_lite/18.1/nios2eds/bin/gnu/h-x86_64-mingw32/bin/../lib/gcc/nios2-elf/5.3.0/../../../../../H-x86_64-mingw32/nios2-elf/lib/pg\libc.a(lib_a-fvwrite.o)
 .debug_info    0x00000000000198db      0x9b0 c:/intelfpga_lite/18.1/nios2eds/bin/gnu/h-x86_64-mingw32/bin/../lib/gcc/nios2-elf/5.3.0/../../../../../H-x86_64-mingw32/nios2-elf/lib/pg\libc.a(lib_a-fwalk.o)
 .debug_info    0x000000000001a28b      0x8a1 c:/intelfpga_lite/18.1/nios2eds/bin/gnu/h-x86_64-mingw32/bin/../lib/gcc/nios2-elf/5.3.0/../../../../../H-x86_64-mingw32/nios2-elf/lib/pg\libc.a(lib_a-impure.o)
 .debug_info    0x000000000001ab2c       0x8a c:/intelfpga_lite/18.1/nios2eds/bin/gnu/h-x86_64-mingw32/bin/../lib/gcc/nios2-elf/5.3.0/../../../../../H-x86_64-mingw32/nios2-elf/lib/pg\libc.a(lib_a-int_errno.o)
 .debug_info    0x000000000001abb6      0xc25 c:/intelfpga_lite/18.1/nios2eds/bin/gnu/h-x86_64-mingw32/bin/../lib/gcc/nios2-elf/5.3.0/../../../../../H-x86_64-mingw32/nios2-elf/lib/pg\libc.a(lib_a-locale.o)
 .debug_info    0x000000000001b7db      0xad8 c:/intelfpga_lite/18.1/nios2eds/bin/gnu/h-x86_64-mingw32/bin/../lib/gcc/nios2-elf/5.3.0/../../../../../H-x86_64-mingw32/nios2-elf/lib/pg\libc.a(lib_a-makebuf.o)
 .debug_info    0x000000000001c2b3      0x132 c:/intelfpga_lite/18.1/nios2eds/bin/gnu/h-x86_64-mingw32/bin/../lib/gcc/nios2-elf/5.3.0/../../../../../H-x86_64-mingw32/nios2-elf/lib/pg\libc.a(lib_a-memchr.o)
 .debug_info    0x000000000001c3e5      0x144 c:/intelfpga_lite/18.1/nios2eds/bin/gnu/h-x86_64-mingw32/bin/../lib/gcc/nios2-elf/5.3.0/../../../../../H-x86_64-mingw32/nios2-elf/lib/pg\libc.a(lib_a-memcpy.o)
 .debug_info    0x000000000001c529      0x13a c:/intelfpga_lite/18.1/nios2eds/bin/gnu/h-x86_64-mingw32/bin/../lib/gcc/nios2-elf/5.3.0/../../../../../H-x86_64-mingw32/nios2-elf/lib/pg\libc.a(lib_a-memmove.o)
 .debug_info    0x000000000001c663     0x16b7 c:/intelfpga_lite/18.1/nios2eds/bin/gnu/h-x86_64-mingw32/bin/../lib/gcc/nios2-elf/5.3.0/../../../../../H-x86_64-mingw32/nios2-elf/lib/pg\libc.a(lib_a-mprec.o)
 .debug_info    0x000000000001dd1a      0x9b4 c:/intelfpga_lite/18.1/nios2eds/bin/gnu/h-x86_64-mingw32/bin/../lib/gcc/nios2-elf/5.3.0/../../../../../H-x86_64-mingw32/nios2-elf/lib/pg\libc.a(lib_a-putc.o)
 .debug_info    0x000000000001e6ce      0xc6b c:/intelfpga_lite/18.1/nios2eds/bin/gnu/h-x86_64-mingw32/bin/../lib/gcc/nios2-elf/5.3.0/../../../../../H-x86_64-mingw32/nios2-elf/lib/pg\libc.a(lib_a-reallocr.o)
 .debug_info    0x000000000001f339       0xdc c:/intelfpga_lite/18.1/nios2eds/bin/gnu/h-x86_64-mingw32/bin/../lib/gcc/nios2-elf/5.3.0/../../../../../H-x86_64-mingw32/nios2-elf/lib/pg\libc.a(lib_a-s_fpclassify.o)
 .debug_info    0x000000000001f415      0xb32 c:/intelfpga_lite/18.1/nios2eds/bin/gnu/h-x86_64-mingw32/bin/../lib/gcc/nios2-elf/5.3.0/../../../../../H-x86_64-mingw32/nios2-elf/lib/pg\libc.a(lib_a-stdio.o)
 .debug_info    0x000000000001ff47     0x1535 c:/intelfpga_lite/18.1/nios2eds/bin/gnu/h-x86_64-mingw32/bin/../lib/gcc/nios2-elf/5.3.0/../../../../../H-x86_64-mingw32/nios2-elf/lib/pg\libc.a(lib_a-vfiprintf.o)
 .debug_info    0x000000000002147c      0x9be c:/intelfpga_lite/18.1/nios2eds/bin/gnu/h-x86_64-mingw32/bin/../lib/gcc/nios2-elf/5.3.0/../../../../../H-x86_64-mingw32/nios2-elf/lib/pg\libc.a(lib_a-wbuf.o)
 .debug_info    0x0000000000021e3a      0x928 c:/intelfpga_lite/18.1/nios2eds/bin/gnu/h-x86_64-mingw32/bin/../lib/gcc/nios2-elf/5.3.0/../../../../../H-x86_64-mingw32/nios2-elf/lib/pg\libc.a(lib_a-writer.o)
 .debug_info    0x0000000000022762      0x8df c:/intelfpga_lite/18.1/nios2eds/bin/gnu/h-x86_64-mingw32/bin/../lib/gcc/nios2-elf/5.3.0/../../../../../H-x86_64-mingw32/nios2-elf/lib/pg\libc.a(closer.o)
 .debug_info    0x0000000000023041      0x9d9 c:/intelfpga_lite/18.1/nios2eds/bin/gnu/h-x86_64-mingw32/bin/../lib/gcc/nios2-elf/5.3.0/../../../../../H-x86_64-mingw32/nios2-elf/lib/pg\libc.a(lib_a-callocr.o)
 .debug_info    0x0000000000023a1a      0xa23 c:/intelfpga_lite/18.1/nios2eds/bin/gnu/h-x86_64-mingw32/bin/../lib/gcc/nios2-elf/5.3.0/../../../../../H-x86_64-mingw32/nios2-elf/lib/pg\libc.a(lib_a-fclose.o)
 .debug_info    0x000000000002443d      0xad4 c:/intelfpga_lite/18.1/nios2eds/bin/gnu/h-x86_64-mingw32/bin/../lib/gcc/nios2-elf/5.3.0/../../../../../H-x86_64-mingw32/nios2-elf/lib/pg\libc.a(lib_a-fputwc.o)
 .debug_info    0x0000000000024f11      0xa5d c:/intelfpga_lite/18.1/nios2eds/bin/gnu/h-x86_64-mingw32/bin/../lib/gcc/nios2-elf/5.3.0/../../../../../H-x86_64-mingw32/nios2-elf/lib/pg\libc.a(lib_a-fstatr.o)
 .debug_info    0x000000000002596e      0x8df c:/intelfpga_lite/18.1/nios2eds/bin/gnu/h-x86_64-mingw32/bin/../lib/gcc/nios2-elf/5.3.0/../../../../../H-x86_64-mingw32/nios2-elf/lib/pg\libc.a(lib_a-isattyr.o)
 .debug_info    0x000000000002624d      0x90b c:/intelfpga_lite/18.1/nios2eds/bin/gnu/h-x86_64-mingw32/bin/../lib/gcc/nios2-elf/5.3.0/../../../../../H-x86_64-mingw32/nios2-elf/lib/pg\libc.a(lib_a-lseekr.o)
 .debug_info    0x0000000000026b58      0x921 c:/intelfpga_lite/18.1/nios2eds/bin/gnu/h-x86_64-mingw32/bin/../lib/gcc/nios2-elf/5.3.0/../../../../../H-x86_64-mingw32/nios2-elf/lib/pg\libc.a(lib_a-readr.o)
 .debug_info    0x0000000000027479      0xa82 c:/intelfpga_lite/18.1/nios2eds/bin/gnu/h-x86_64-mingw32/bin/../lib/gcc/nios2-elf/5.3.0/../../../../../H-x86_64-mingw32/nios2-elf/lib/pg\libc.a(lib_a-wcrtomb.o)
 .debug_info    0x0000000000027efb      0x9b1 c:/intelfpga_lite/18.1/nios2eds/bin/gnu/h-x86_64-mingw32/bin/../lib/gcc/nios2-elf/5.3.0/../../../../../H-x86_64-mingw32/nios2-elf/lib/pg\libc.a(lib_a-wctomb_r.o)
 .debug_info    0x00000000000288ac      0x1eb c:/intelfpga_lite/18.1/nios2eds/bin/gnu/h-x86_64-mingw32/bin/../lib/gcc/nios2-elf/5.3.0/pg\libgcc.a(_muldi3.o)
 .debug_info    0x0000000000028a97      0x70e c:/intelfpga_lite/18.1/nios2eds/bin/gnu/h-x86_64-mingw32/bin/../lib/gcc/nios2-elf/5.3.0/pg\libgcc.a(_udivdi3.o)
 .debug_info    0x00000000000291a5      0x765 c:/intelfpga_lite/18.1/nios2eds/bin/gnu/h-x86_64-mingw32/bin/../lib/gcc/nios2-elf/5.3.0/pg\libgcc.a(_umoddi3.o)
 .debug_info    0x000000000002990a      0x4a2 c:/intelfpga_lite/18.1/nios2eds/bin/gnu/h-x86_64-mingw32/bin/../lib/gcc/nios2-elf/5.3.0/pg\libgcc.a(adddf3.o)
 .debug_info    0x0000000000029dac      0x1e2 c:/intelfpga_lite/18.1/nios2eds/bin/gnu/h-x86_64-mingw32/bin/../lib/gcc/nios2-elf/5.3.0/pg\libgcc.a(eqdf2.o)
 .debug_info    0x0000000000029f8e      0x202 c:/intelfpga_lite/18.1/nios2eds/bin/gnu/h-x86_64-mingw32/bin/../lib/gcc/nios2-elf/5.3.0/pg\libgcc.a(gedf2.o)
 .debug_info    0x000000000002a190      0x204 c:/intelfpga_lite/18.1/nios2eds/bin/gnu/h-x86_64-mingw32/bin/../lib/gcc/nios2-elf/5.3.0/pg\libgcc.a(ledf2.o)
 .debug_info    0x000000000002a394      0x5f9 c:/intelfpga_lite/18.1/nios2eds/bin/gnu/h-x86_64-mingw32/bin/../lib/gcc/nios2-elf/5.3.0/pg\libgcc.a(muldf3.o)
 .debug_info    0x000000000002a98d      0x4a2 c:/intelfpga_lite/18.1/nios2eds/bin/gnu/h-x86_64-mingw32/bin/../lib/gcc/nios2-elf/5.3.0/pg\libgcc.a(subdf3.o)
 .debug_info    0x000000000002ae2f      0x1ab c:/intelfpga_lite/18.1/nios2eds/bin/gnu/h-x86_64-mingw32/bin/../lib/gcc/nios2-elf/5.3.0/pg\libgcc.a(fixdfsi.o)
 .debug_info    0x000000000002afda      0x1b0 c:/intelfpga_lite/18.1/nios2eds/bin/gnu/h-x86_64-mingw32/bin/../lib/gcc/nios2-elf/5.3.0/pg\libgcc.a(floatunsidf.o)
 .debug_info    0x000000000002b18a      0x361 ../LUTBrain_NIOS_bsp/\libhal_bsp.a(alt_close.o)
 .debug_info    0x000000000002b4eb      0x499 ../LUTBrain_NIOS_bsp/\libhal_bsp.a(alt_dev.o)
 .debug_info    0x000000000002b984       0xa6 ../LUTBrain_NIOS_bsp/\libhal_bsp.a(alt_errno.o)
 .debug_info    0x000000000002ba2a      0x139 ../LUTBrain_NIOS_bsp/\libhal_bsp.a(alt_exit.o)
 .debug_info    0x000000000002bb63      0x49e ../LUTBrain_NIOS_bsp/\libhal_bsp.a(alt_fstat.o)
 .debug_info    0x000000000002c001       0x42 ../LUTBrain_NIOS_bsp/\libhal_bsp.a(alt_getpid.o)
 .debug_info    0x000000000002c043      0x550 ../LUTBrain_NIOS_bsp/\libhal_bsp.a(alt_gmon.o)
 .debug_info    0x000000000002c593      0x4af ../LUTBrain_NIOS_bsp/\libhal_bsp.a(alt_isatty.o)
 .debug_info    0x000000000002ca42      0x124 ../LUTBrain_NIOS_bsp/\libhal_bsp.a(alt_kill.o)
 .debug_info    0x000000000002cb66      0x1ed ../LUTBrain_NIOS_bsp/\libhal_bsp.a(alt_load.o)
 .debug_info    0x000000000002cd53      0x371 ../LUTBrain_NIOS_bsp/\libhal_bsp.a(alt_lseek.o)
 .debug_info    0x000000000002d0c4      0x20d ../LUTBrain_NIOS_bsp/\libhal_bsp.a(alt_main.o)
 .debug_info    0x000000000002d2d1      0x8a2 ../LUTBrain_NIOS_bsp/\libhal_bsp.a(alt_malloc_lock.o)
 .debug_info    0x000000000002db73       0x94 ../LUTBrain_NIOS_bsp/\libhal_bsp.a(alt_mcount.o)
 .debug_info    0x000000000002dc07      0x4ed ../LUTBrain_NIOS_bsp/\libhal_bsp.a(alt_read.o)
 .debug_info    0x000000000002e0f4      0x2b1 ../LUTBrain_NIOS_bsp/\libhal_bsp.a(alt_release_fd.o)
 .debug_info    0x000000000002e3a5      0x1b0 ../LUTBrain_NIOS_bsp/\libhal_bsp.a(alt_sbrk.o)
 .debug_info    0x000000000002e555      0x327 ../LUTBrain_NIOS_bsp/\libhal_bsp.a(alt_tick.o)
 .debug_info    0x000000000002e87c      0x4f4 ../LUTBrain_NIOS_bsp/\libhal_bsp.a(alt_write.o)
 .debug_info    0x000000000002ed70      0x588 ../LUTBrain_NIOS_bsp/\libhal_bsp.a(alt_sys_init.o)
 .debug_info    0x000000000002f2f8      0x5b9 ../LUTBrain_NIOS_bsp/\libhal_bsp.a(altera_avalon_jtag_uart_fd.o)
 .debug_info    0x000000000002f8b1      0x3e5 ../LUTBrain_NIOS_bsp/\libhal_bsp.a(altera_avalon_jtag_uart_init.o)
 .debug_info    0x000000000002fc96      0x281 ../LUTBrain_NIOS_bsp/\libhal_bsp.a(altera_avalon_jtag_uart_ioctl.o)
 .debug_info    0x000000000002ff17      0x363 ../LUTBrain_NIOS_bsp/\libhal_bsp.a(altera_avalon_jtag_uart_read.o)
 .debug_info    0x000000000003027a      0x362 ../LUTBrain_NIOS_bsp/\libhal_bsp.a(altera_avalon_jtag_uart_write.o)
 .debug_info    0x00000000000305dc      0x270 ../LUTBrain_NIOS_bsp/\libhal_bsp.a(altera_avalon_timer_sc.o)
 .debug_info    0x000000000003084c       0xe9 ../LUTBrain_NIOS_bsp/\libhal_bsp.a(altera_avalon_timer_vars.o)
 .debug_info    0x0000000000030935      0x2bd ../LUTBrain_NIOS_bsp/\libhal_bsp.a(alt_alarm_start.o)
 .debug_info    0x0000000000030bf2       0xa6 ../LUTBrain_NIOS_bsp/\libhal_bsp.a(alt_dcache_flush_all.o)
 .debug_info    0x0000000000030c98      0x1b7 ../LUTBrain_NIOS_bsp/\libhal_bsp.a(alt_dev_llist_insert.o)
 .debug_info    0x0000000000030e4f       0x84 ../LUTBrain_NIOS_bsp/\libhal_bsp.a(alt_do_ctors.o)
 .debug_info    0x0000000000030ed3       0x84 ../LUTBrain_NIOS_bsp/\libhal_bsp.a(alt_do_dtors.o)
 .debug_info    0x0000000000030f57       0xb8 ../LUTBrain_NIOS_bsp/\libhal_bsp.a(alt_icache_flush_all.o)
 .debug_info    0x000000000003100f      0x38a ../LUTBrain_NIOS_bsp/\libhal_bsp.a(alt_iic.o)
 .debug_info    0x0000000000031399      0x232 ../LUTBrain_NIOS_bsp/\libhal_bsp.a(alt_iic_isr_register.o)
 .debug_info    0x00000000000315cb      0x5ea ../LUTBrain_NIOS_bsp/\libhal_bsp.a(alt_io_redirect.o)
 .debug_info    0x0000000000031bb5       0x93 ../LUTBrain_NIOS_bsp/\libhal_bsp.a(alt_irq_entry.o)
 .debug_info    0x0000000000031c48      0x184 ../LUTBrain_NIOS_bsp/\libhal_bsp.a(alt_irq_handler.o)
 .debug_info    0x0000000000031dcc       0x88 ../LUTBrain_NIOS_bsp/\libhal_bsp.a(alt_irq_vars.o)
 .debug_info    0x0000000000031e54      0x48e ../LUTBrain_NIOS_bsp/\libhal_bsp.a(alt_open.o)
 .debug_info    0x00000000000322e2       0x92 ../LUTBrain_NIOS_bsp/\libhal_bsp.a(altera_nios2_gen2_irq.o)
 .debug_info    0x0000000000032374       0x99 ../LUTBrain_NIOS_bsp/\libhal_bsp.a(alt_exception_entry.o)
 .debug_info    0x000000000003240d      0x32d ../LUTBrain_NIOS_bsp/\libhal_bsp.a(alt_find_dev.o)
 .debug_info    0x000000000003273a      0x318 ../LUTBrain_NIOS_bsp/\libhal_bsp.a(alt_find_file.o)
 .debug_info    0x0000000000032a52      0x311 ../LUTBrain_NIOS_bsp/\libhal_bsp.a(alt_get_fd.o)
 .debug_info    0x0000000000032d63       0xde ../LUTBrain_NIOS_bsp/\libhal_bsp.a(alt_icache_flush.o)
 .debug_info    0x0000000000032e41      0x1f8 ../LUTBrain_NIOS_bsp/\libhal_bsp.a(alt_instruction_exception_entry.o)
 .debug_info    0x0000000000033039       0xfe c:/intelfpga_lite/18.1/nios2eds/bin/gnu/h-x86_64-mingw32/bin/../lib/gcc/nios2-elf/5.3.0/../../../../../H-x86_64-mingw32/nios2-elf/lib/pg\libc.a(lib_a-atexit.o)
 .debug_info    0x0000000000033137      0x8e4 c:/intelfpga_lite/18.1/nios2eds/bin/gnu/h-x86_64-mingw32/bin/../lib/gcc/nios2-elf/5.3.0/../../../../../H-x86_64-mingw32/nios2-elf/lib/pg\libc.a(lib_a-exit.o)
 .debug_info    0x0000000000033a1b      0x11a c:/intelfpga_lite/18.1/nios2eds/bin/gnu/h-x86_64-mingw32/bin/../lib/gcc/nios2-elf/5.3.0/../../../../../H-x86_64-mingw32/nios2-elf/lib/pg\libc.a(lib_a-memcmp.o)
 .debug_info    0x0000000000033b35      0x934 c:/intelfpga_lite/18.1/nios2eds/bin/gnu/h-x86_64-mingw32/bin/../lib/gcc/nios2-elf/5.3.0/../../../../../H-x86_64-mingw32/nios2-elf/lib/pg\libc.a(lib_a-__atexit.o)
 .debug_info    0x0000000000034469      0x965 c:/intelfpga_lite/18.1/nios2eds/bin/gnu/h-x86_64-mingw32/bin/../lib/gcc/nios2-elf/5.3.0/../../../../../H-x86_64-mingw32/nios2-elf/lib/pg\libc.a(lib_a-__call_atexit.o)

.debug_abbrev   0x0000000000000000     0xf1cc
 *(.debug_abbrev)
 .debug_abbrev  0x0000000000000000       0x12 ../LUTBrain_NIOS_bsp//obj/HAL/src/crt0.o
 .debug_abbrev  0x0000000000000012      0x230 obj/default/Image.o
 .debug_abbrev  0x0000000000000242      0x1df obj/default/NN.o
 .debug_abbrev  0x0000000000000421      0x20a obj/default/NNLayer.o
 .debug_abbrev  0x000000000000062b       0xec obj/default/VGA.o
 .debug_abbrev  0x0000000000000717      0x21d obj/default/main.o
 .debug_abbrev  0x0000000000000934       0xe1 c:/intelfpga_lite/18.1/nios2eds/bin/gnu/h-x86_64-mingw32/bin/../lib/gcc/nios2-elf/5.3.0/../../../../../H-x86_64-mingw32/nios2-elf/lib/pg\libstdc++.a(new_opv.o)
 .debug_abbrev  0x0000000000000a15      0x22c c:/intelfpga_lite/18.1/nios2eds/bin/gnu/h-x86_64-mingw32/bin/../lib/gcc/nios2-elf/5.3.0/../../../../../H-x86_64-mingw32/nios2-elf/lib/pg\libstdc++.a(new_op.o)
 .debug_abbrev  0x0000000000000c41       0xa1 c:/intelfpga_lite/18.1/nios2eds/bin/gnu/h-x86_64-mingw32/bin/../lib/gcc/nios2-elf/5.3.0/../../../../../H-x86_64-mingw32/nios2-elf/lib/pg\libstdc++.a(del_opv.o)
 .debug_abbrev  0x0000000000000ce2      0x280 c:/intelfpga_lite/18.1/nios2eds/bin/gnu/h-x86_64-mingw32/bin/../lib/gcc/nios2-elf/5.3.0/../../../../../H-x86_64-mingw32/nios2-elf/lib/pg\libstdc++.a(new_handler.o)
 .debug_abbrev  0x0000000000000f62      0x5a5 c:/intelfpga_lite/18.1/nios2eds/bin/gnu/h-x86_64-mingw32/bin/../lib/gcc/nios2-elf/5.3.0/../../../../../H-x86_64-mingw32/nios2-elf/lib/pg\libstdc++.a(eh_personality.o)
 .debug_abbrev  0x0000000000001507      0x192 c:/intelfpga_lite/18.1/nios2eds/bin/gnu/h-x86_64-mingw32/bin/../lib/gcc/nios2-elf/5.3.0/../../../../../H-x86_64-mingw32/nios2-elf/lib/pg\libstdc++.a(bad_alloc.o)
 .debug_abbrev  0x0000000000001699      0x16c c:/intelfpga_lite/18.1/nios2eds/bin/gnu/h-x86_64-mingw32/bin/../lib/gcc/nios2-elf/5.3.0/../../../../../H-x86_64-mingw32/nios2-elf/lib/pg\libstdc++.a(del_op.o)
 .debug_abbrev  0x0000000000001805      0x27b c:/intelfpga_lite/18.1/nios2eds/bin/gnu/h-x86_64-mingw32/bin/../lib/gcc/nios2-elf/5.3.0/../../../../../H-x86_64-mingw32/nios2-elf/lib/pg\libstdc++.a(eh_throw.o)
 .debug_abbrev  0x0000000000001a80      0x2be c:/intelfpga_lite/18.1/nios2eds/bin/gnu/h-x86_64-mingw32/bin/../lib/gcc/nios2-elf/5.3.0/../../../../../H-x86_64-mingw32/nios2-elf/lib/pg\libstdc++.a(eh_catch.o)
 .debug_abbrev  0x0000000000001d3e      0x42d c:/intelfpga_lite/18.1/nios2eds/bin/gnu/h-x86_64-mingw32/bin/../lib/gcc/nios2-elf/5.3.0/../../../../../H-x86_64-mingw32/nios2-elf/lib/pg\libstdc++.a(class_type_info.o)
 .debug_abbrev  0x000000000000216b      0x440 c:/intelfpga_lite/18.1/nios2eds/bin/gnu/h-x86_64-mingw32/bin/../lib/gcc/nios2-elf/5.3.0/../../../../../H-x86_64-mingw32/nios2-elf/lib/pg\libstdc++.a(eh_terminate.o)
 .debug_abbrev  0x00000000000025ab       0xbb c:/intelfpga_lite/18.1/nios2eds/bin/gnu/h-x86_64-mingw32/bin/../lib/gcc/nios2-elf/5.3.0/../../../../../H-x86_64-mingw32/nios2-elf/lib/pg\libstdc++.a(eh_unex_handler.o)
 .debug_abbrev  0x0000000000002666      0x4fd c:/intelfpga_lite/18.1/nios2eds/bin/gnu/h-x86_64-mingw32/bin/../lib/gcc/nios2-elf/5.3.0/../../../../../H-x86_64-mingw32/nios2-elf/lib/pg\libstdc++.a(eh_alloc.o)
 .debug_abbrev  0x0000000000002b63      0x249 c:/intelfpga_lite/18.1/nios2eds/bin/gnu/h-x86_64-mingw32/bin/../lib/gcc/nios2-elf/5.3.0/../../../../../H-x86_64-mingw32/nios2-elf/lib/pg\libstdc++.a(eh_call.o)
 .debug_abbrev  0x0000000000002dac      0x1a5 c:/intelfpga_lite/18.1/nios2eds/bin/gnu/h-x86_64-mingw32/bin/../lib/gcc/nios2-elf/5.3.0/../../../../../H-x86_64-mingw32/nios2-elf/lib/pg\libstdc++.a(eh_globals.o)
 .debug_abbrev  0x0000000000002f51      0x38a c:/intelfpga_lite/18.1/nios2eds/bin/gnu/h-x86_64-mingw32/bin/../lib/gcc/nios2-elf/5.3.0/../../../../../H-x86_64-mingw32/nios2-elf/lib/pg\libstdc++.a(si_class_type_info.o)
 .debug_abbrev  0x00000000000032db      0x22d c:/intelfpga_lite/18.1/nios2eds/bin/gnu/h-x86_64-mingw32/bin/../lib/gcc/nios2-elf/5.3.0/../../../../../H-x86_64-mingw32/nios2-elf/lib/pg\libstdc++.a(eh_exception.o)
 .debug_abbrev  0x0000000000003508       0xbb c:/intelfpga_lite/18.1/nios2eds/bin/gnu/h-x86_64-mingw32/bin/../lib/gcc/nios2-elf/5.3.0/../../../../../H-x86_64-mingw32/nios2-elf/lib/pg\libstdc++.a(eh_term_handler.o)
 .debug_abbrev  0x00000000000035c3      0x29c c:/intelfpga_lite/18.1/nios2eds/bin/gnu/h-x86_64-mingw32/bin/../lib/gcc/nios2-elf/5.3.0/../../../../../H-x86_64-mingw32/nios2-elf/lib/pg\libstdc++.a(tinfo.o)
 .debug_abbrev  0x000000000000385f      0x101 c:/intelfpga_lite/18.1/nios2eds/bin/gnu/h-x86_64-mingw32/bin/../lib/gcc/nios2-elf/5.3.0/../../../../../H-x86_64-mingw32/nios2-elf/lib/pg\libstdc++.a(pure.o)
 .debug_abbrev  0x0000000000003960       0x60 c:/intelfpga_lite/18.1/nios2eds/bin/gnu/h-x86_64-mingw32/bin/../lib/gcc/nios2-elf/5.3.0/pg\libgcc.a(_fixunssfsi.o)
 .debug_abbrev  0x00000000000039c0      0x10e c:/intelfpga_lite/18.1/nios2eds/bin/gnu/h-x86_64-mingw32/bin/../lib/gcc/nios2-elf/5.3.0/pg\libgcc.a(lib2-divmod.o)
 .debug_abbrev  0x0000000000003ace      0x13c c:/intelfpga_lite/18.1/nios2eds/bin/gnu/h-x86_64-mingw32/bin/../lib/gcc/nios2-elf/5.3.0/pg\libgcc.a(addsf3.o)
 .debug_abbrev  0x0000000000003c0a      0x120 c:/intelfpga_lite/18.1/nios2eds/bin/gnu/h-x86_64-mingw32/bin/../lib/gcc/nios2-elf/5.3.0/pg\libgcc.a(divsf3.o)
 .debug_abbrev  0x0000000000003d2a      0x119 c:/intelfpga_lite/18.1/nios2eds/bin/gnu/h-x86_64-mingw32/bin/../lib/gcc/nios2-elf/5.3.0/pg\libgcc.a(eqsf2.o)
 .debug_abbrev  0x0000000000003e43      0x128 c:/intelfpga_lite/18.1/nios2eds/bin/gnu/h-x86_64-mingw32/bin/../lib/gcc/nios2-elf/5.3.0/pg\libgcc.a(gesf2.o)
 .debug_abbrev  0x0000000000003f6b      0x12d c:/intelfpga_lite/18.1/nios2eds/bin/gnu/h-x86_64-mingw32/bin/../lib/gcc/nios2-elf/5.3.0/pg\libgcc.a(mulsf3.o)
 .debug_abbrev  0x0000000000004098      0x13a c:/intelfpga_lite/18.1/nios2eds/bin/gnu/h-x86_64-mingw32/bin/../lib/gcc/nios2-elf/5.3.0/pg\libgcc.a(subsf3.o)
 .debug_abbrev  0x00000000000041d2      0x135 c:/intelfpga_lite/18.1/nios2eds/bin/gnu/h-x86_64-mingw32/bin/../lib/gcc/nios2-elf/5.3.0/pg\libgcc.a(fixsfsi.o)
 .debug_abbrev  0x0000000000004307      0x147 c:/intelfpga_lite/18.1/nios2eds/bin/gnu/h-x86_64-mingw32/bin/../lib/gcc/nios2-elf/5.3.0/pg\libgcc.a(floatsisf.o)
 .debug_abbrev  0x000000000000444e      0x147 c:/intelfpga_lite/18.1/nios2eds/bin/gnu/h-x86_64-mingw32/bin/../lib/gcc/nios2-elf/5.3.0/pg\libgcc.a(floatunsisf.o)
 .debug_abbrev  0x0000000000004595      0x12d c:/intelfpga_lite/18.1/nios2eds/bin/gnu/h-x86_64-mingw32/bin/../lib/gcc/nios2-elf/5.3.0/pg\libgcc.a(divdf3.o)
 .debug_abbrev  0x00000000000046c2      0x124 c:/intelfpga_lite/18.1/nios2eds/bin/gnu/h-x86_64-mingw32/bin/../lib/gcc/nios2-elf/5.3.0/pg\libgcc.a(floatsidf.o)
 .debug_abbrev  0x00000000000047e6      0x124 c:/intelfpga_lite/18.1/nios2eds/bin/gnu/h-x86_64-mingw32/bin/../lib/gcc/nios2-elf/5.3.0/pg\libgcc.a(extendsfdf2.o)
 .debug_abbrev  0x000000000000490a      0x11b c:/intelfpga_lite/18.1/nios2eds/bin/gnu/h-x86_64-mingw32/bin/../lib/gcc/nios2-elf/5.3.0/pg\libgcc.a(truncdfsf2.o)
 .debug_abbrev  0x0000000000004a25      0x405 c:/intelfpga_lite/18.1/nios2eds/bin/gnu/h-x86_64-mingw32/bin/../lib/gcc/nios2-elf/5.3.0/pg\libgcc.a(unwind-sjlj.o)
 .debug_abbrev  0x0000000000004e2a       0xbe c:/intelfpga_lite/18.1/nios2eds/bin/gnu/h-x86_64-mingw32/bin/../lib/gcc/nios2-elf/5.3.0/pg\libgcc.a(_clzsi2.o)
 .debug_abbrev  0x0000000000004ee8       0x5d c:/intelfpga_lite/18.1/nios2eds/bin/gnu/h-x86_64-mingw32/bin/../lib/gcc/nios2-elf/5.3.0/pg\libgcc.a(_clz.o)
 .debug_abbrev  0x0000000000004f45       0x7c c:/intelfpga_lite/18.1/nios2eds/bin/gnu/h-x86_64-mingw32/bin/../lib/gcc/nios2-elf/5.3.0/../../../../../H-x86_64-mingw32/nios2-elf/lib/pg\libc.a(lib_a-abort.o)
 .debug_abbrev  0x0000000000004fc1      0x1f4 c:/intelfpga_lite/18.1/nios2eds/bin/gnu/h-x86_64-mingw32/bin/../lib/gcc/nios2-elf/5.3.0/../../../../../H-x86_64-mingw32/nios2-elf/lib/pg\libc.a(lib_a-malloc.o)
 .debug_abbrev  0x00000000000051b5      0x29d c:/intelfpga_lite/18.1/nios2eds/bin/gnu/h-x86_64-mingw32/bin/../lib/gcc/nios2-elf/5.3.0/../../../../../H-x86_64-mingw32/nios2-elf/lib/pg\libc.a(lib_a-mallocr.o)
 .debug_abbrev  0x0000000000005452       0xae c:/intelfpga_lite/18.1/nios2eds/bin/gnu/h-x86_64-mingw32/bin/../lib/gcc/nios2-elf/5.3.0/../../../../../H-x86_64-mingw32/nios2-elf/lib/pg\libc.a(lib_a-memset.o)
 .debug_abbrev  0x0000000000005500      0x233 c:/intelfpga_lite/18.1/nios2eds/bin/gnu/h-x86_64-mingw32/bin/../lib/gcc/nios2-elf/5.3.0/../../../../../H-x86_64-mingw32/nios2-elf/lib/pg\libc.a(lib_a-printf.o)
 .debug_abbrev  0x0000000000005733      0x205 c:/intelfpga_lite/18.1/nios2eds/bin/gnu/h-x86_64-mingw32/bin/../lib/gcc/nios2-elf/5.3.0/../../../../../H-x86_64-mingw32/nios2-elf/lib/pg\libc.a(lib_a-putchar.o)
 .debug_abbrev  0x0000000000005938      0x249 c:/intelfpga_lite/18.1/nios2eds/bin/gnu/h-x86_64-mingw32/bin/../lib/gcc/nios2-elf/5.3.0/../../../../../H-x86_64-mingw32/nios2-elf/lib/pg\libc.a(lib_a-puts.o)
 .debug_abbrev  0x0000000000005b81      0x1e5 c:/intelfpga_lite/18.1/nios2eds/bin/gnu/h-x86_64-mingw32/bin/../lib/gcc/nios2-elf/5.3.0/../../../../../H-x86_64-mingw32/nios2-elf/lib/pg\libc.a(lib_a-rand.o)
 .debug_abbrev  0x0000000000005d66      0x20a c:/intelfpga_lite/18.1/nios2eds/bin/gnu/h-x86_64-mingw32/bin/../lib/gcc/nios2-elf/5.3.0/../../../../../H-x86_64-mingw32/nios2-elf/lib/pg\libc.a(lib_a-sbrkr.o)
 .debug_abbrev  0x0000000000005f70      0x2e0 c:/intelfpga_lite/18.1/nios2eds/bin/gnu/h-x86_64-mingw32/bin/../lib/gcc/nios2-elf/5.3.0/../../../../../H-x86_64-mingw32/nios2-elf/lib/pg\libc.a(lib_a-signal.o)
 .debug_abbrev  0x0000000000006250      0x220 c:/intelfpga_lite/18.1/nios2eds/bin/gnu/h-x86_64-mingw32/bin/../lib/gcc/nios2-elf/5.3.0/../../../../../H-x86_64-mingw32/nios2-elf/lib/pg\libc.a(lib_a-signalr.o)
 .debug_abbrev  0x0000000000006470       0x74 c:/intelfpga_lite/18.1/nios2eds/bin/gnu/h-x86_64-mingw32/bin/../lib/gcc/nios2-elf/5.3.0/../../../../../H-x86_64-mingw32/nios2-elf/lib/pg\libc.a(lib_a-strcmp.o)
 .debug_abbrev  0x00000000000064e4       0x90 c:/intelfpga_lite/18.1/nios2eds/bin/gnu/h-x86_64-mingw32/bin/../lib/gcc/nios2-elf/5.3.0/../../../../../H-x86_64-mingw32/nios2-elf/lib/pg\libc.a(lib_a-strlen.o)
 .debug_abbrev  0x0000000000006574      0x3bf c:/intelfpga_lite/18.1/nios2eds/bin/gnu/h-x86_64-mingw32/bin/../lib/gcc/nios2-elf/5.3.0/../../../../../H-x86_64-mingw32/nios2-elf/lib/pg\libc.a(lib_a-vfprintf.o)
 .debug_abbrev  0x0000000000006933      0x218 c:/intelfpga_lite/18.1/nios2eds/bin/gnu/h-x86_64-mingw32/bin/../lib/gcc/nios2-elf/5.3.0/../../../../../H-x86_64-mingw32/nios2-elf/lib/pg\libc.a(lib_a-wsetup.o)
 .debug_abbrev  0x0000000000006b4b      0x2b8 c:/intelfpga_lite/18.1/nios2eds/bin/gnu/h-x86_64-mingw32/bin/../lib/gcc/nios2-elf/5.3.0/../../../../../H-x86_64-mingw32/nios2-elf/lib/pg\libc.a(lib_a-dtoa.o)
 .debug_abbrev  0x0000000000006e03      0x2a0 c:/intelfpga_lite/18.1/nios2eds/bin/gnu/h-x86_64-mingw32/bin/../lib/gcc/nios2-elf/5.3.0/../../../../../H-x86_64-mingw32/nios2-elf/lib/pg\libc.a(lib_a-fflush.o)
 .debug_abbrev  0x00000000000070a3      0x391 c:/intelfpga_lite/18.1/nios2eds/bin/gnu/h-x86_64-mingw32/bin/../lib/gcc/nios2-elf/5.3.0/../../../../../H-x86_64-mingw32/nios2-elf/lib/pg\libc.a(lib_a-findfp.o)
 .debug_abbrev  0x0000000000007434      0x264 c:/intelfpga_lite/18.1/nios2eds/bin/gnu/h-x86_64-mingw32/bin/../lib/gcc/nios2-elf/5.3.0/../../../../../H-x86_64-mingw32/nios2-elf/lib/pg\libc.a(lib_a-freer.o)
 .debug_abbrev  0x0000000000007698      0x228 c:/intelfpga_lite/18.1/nios2eds/bin/gnu/h-x86_64-mingw32/bin/../lib/gcc/nios2-elf/5.3.0/../../../../../H-x86_64-mingw32/nios2-elf/lib/pg\libc.a(lib_a-fvwrite.o)
 .debug_abbrev  0x00000000000078c0      0x1d1 c:/intelfpga_lite/18.1/nios2eds/bin/gnu/h-x86_64-mingw32/bin/../lib/gcc/nios2-elf/5.3.0/../../../../../H-x86_64-mingw32/nios2-elf/lib/pg\libc.a(lib_a-fwalk.o)
 .debug_abbrev  0x0000000000007a91      0x18f c:/intelfpga_lite/18.1/nios2eds/bin/gnu/h-x86_64-mingw32/bin/../lib/gcc/nios2-elf/5.3.0/../../../../../H-x86_64-mingw32/nios2-elf/lib/pg\libc.a(lib_a-impure.o)
 .debug_abbrev  0x0000000000007c20       0x37 c:/intelfpga_lite/18.1/nios2eds/bin/gnu/h-x86_64-mingw32/bin/../lib/gcc/nios2-elf/5.3.0/../../../../../H-x86_64-mingw32/nios2-elf/lib/pg\libc.a(lib_a-int_errno.o)
 .debug_abbrev  0x0000000000007c57      0x2c0 c:/intelfpga_lite/18.1/nios2eds/bin/gnu/h-x86_64-mingw32/bin/../lib/gcc/nios2-elf/5.3.0/../../../../../H-x86_64-mingw32/nios2-elf/lib/pg\libc.a(lib_a-locale.o)
 .debug_abbrev  0x0000000000007f17      0x20f c:/intelfpga_lite/18.1/nios2eds/bin/gnu/h-x86_64-mingw32/bin/../lib/gcc/nios2-elf/5.3.0/../../../../../H-x86_64-mingw32/nios2-elf/lib/pg\libc.a(lib_a-makebuf.o)
 .debug_abbrev  0x0000000000008126       0xab c:/intelfpga_lite/18.1/nios2eds/bin/gnu/h-x86_64-mingw32/bin/../lib/gcc/nios2-elf/5.3.0/../../../../../H-x86_64-mingw32/nios2-elf/lib/pg\libc.a(lib_a-memchr.o)
 .debug_abbrev  0x00000000000081d1       0xa3 c:/intelfpga_lite/18.1/nios2eds/bin/gnu/h-x86_64-mingw32/bin/../lib/gcc/nios2-elf/5.3.0/../../../../../H-x86_64-mingw32/nios2-elf/lib/pg\libc.a(lib_a-memcpy.o)
 .debug_abbrev  0x0000000000008274       0x9c c:/intelfpga_lite/18.1/nios2eds/bin/gnu/h-x86_64-mingw32/bin/../lib/gcc/nios2-elf/5.3.0/../../../../../H-x86_64-mingw32/nios2-elf/lib/pg\libc.a(lib_a-memmove.o)
 .debug_abbrev  0x0000000000008310      0x3d7 c:/intelfpga_lite/18.1/nios2eds/bin/gnu/h-x86_64-mingw32/bin/../lib/gcc/nios2-elf/5.3.0/../../../../../H-x86_64-mingw32/nios2-elf/lib/pg\libc.a(lib_a-mprec.o)
 .debug_abbrev  0x00000000000086e7      0x243 c:/intelfpga_lite/18.1/nios2eds/bin/gnu/h-x86_64-mingw32/bin/../lib/gcc/nios2-elf/5.3.0/../../../../../H-x86_64-mingw32/nios2-elf/lib/pg\libc.a(lib_a-putc.o)
 .debug_abbrev  0x000000000000892a      0x231 c:/intelfpga_lite/18.1/nios2eds/bin/gnu/h-x86_64-mingw32/bin/../lib/gcc/nios2-elf/5.3.0/../../../../../H-x86_64-mingw32/nios2-elf/lib/pg\libc.a(lib_a-reallocr.o)
 .debug_abbrev  0x0000000000008b5b       0x7e c:/intelfpga_lite/18.1/nios2eds/bin/gnu/h-x86_64-mingw32/bin/../lib/gcc/nios2-elf/5.3.0/../../../../../H-x86_64-mingw32/nios2-elf/lib/pg\libc.a(lib_a-s_fpclassify.o)
 .debug_abbrev  0x0000000000008bd9      0x239 c:/intelfpga_lite/18.1/nios2eds/bin/gnu/h-x86_64-mingw32/bin/../lib/gcc/nios2-elf/5.3.0/../../../../../H-x86_64-mingw32/nios2-elf/lib/pg\libc.a(lib_a-stdio.o)
 .debug_abbrev  0x0000000000008e12      0x3ce c:/intelfpga_lite/18.1/nios2eds/bin/gnu/h-x86_64-mingw32/bin/../lib/gcc/nios2-elf/5.3.0/../../../../../H-x86_64-mingw32/nios2-elf/lib/pg\libc.a(lib_a-vfiprintf.o)
 .debug_abbrev  0x00000000000091e0      0x251 c:/intelfpga_lite/18.1/nios2eds/bin/gnu/h-x86_64-mingw32/bin/../lib/gcc/nios2-elf/5.3.0/../../../../../H-x86_64-mingw32/nios2-elf/lib/pg\libc.a(lib_a-wbuf.o)
 .debug_abbrev  0x0000000000009431      0x1eb c:/intelfpga_lite/18.1/nios2eds/bin/gnu/h-x86_64-mingw32/bin/../lib/gcc/nios2-elf/5.3.0/../../../../../H-x86_64-mingw32/nios2-elf/lib/pg\libc.a(lib_a-writer.o)
 .debug_abbrev  0x000000000000961c      0x1e6 c:/intelfpga_lite/18.1/nios2eds/bin/gnu/h-x86_64-mingw32/bin/../lib/gcc/nios2-elf/5.3.0/../../../../../H-x86_64-mingw32/nios2-elf/lib/pg\libc.a(closer.o)
 .debug_abbrev  0x0000000000009802      0x1fc c:/intelfpga_lite/18.1/nios2eds/bin/gnu/h-x86_64-mingw32/bin/../lib/gcc/nios2-elf/5.3.0/../../../../../H-x86_64-mingw32/nios2-elf/lib/pg\libc.a(lib_a-callocr.o)
 .debug_abbrev  0x00000000000099fe      0x2a2 c:/intelfpga_lite/18.1/nios2eds/bin/gnu/h-x86_64-mingw32/bin/../lib/gcc/nios2-elf/5.3.0/../../../../../H-x86_64-mingw32/nios2-elf/lib/pg\libc.a(lib_a-fclose.o)
 .debug_abbrev  0x0000000000009ca0      0x2b9 c:/intelfpga_lite/18.1/nios2eds/bin/gnu/h-x86_64-mingw32/bin/../lib/gcc/nios2-elf/5.3.0/../../../../../H-x86_64-mingw32/nios2-elf/lib/pg\libc.a(lib_a-fputwc.o)
 .debug_abbrev  0x0000000000009f59      0x1f5 c:/intelfpga_lite/18.1/nios2eds/bin/gnu/h-x86_64-mingw32/bin/../lib/gcc/nios2-elf/5.3.0/../../../../../H-x86_64-mingw32/nios2-elf/lib/pg\libc.a(lib_a-fstatr.o)
 .debug_abbrev  0x000000000000a14e      0x1e6 c:/intelfpga_lite/18.1/nios2eds/bin/gnu/h-x86_64-mingw32/bin/../lib/gcc/nios2-elf/5.3.0/../../../../../H-x86_64-mingw32/nios2-elf/lib/pg\libc.a(lib_a-isattyr.o)
 .debug_abbrev  0x000000000000a334      0x1f5 c:/intelfpga_lite/18.1/nios2eds/bin/gnu/h-x86_64-mingw32/bin/../lib/gcc/nios2-elf/5.3.0/../../../../../H-x86_64-mingw32/nios2-elf/lib/pg\libc.a(lib_a-lseekr.o)
 .debug_abbrev  0x000000000000a529      0x1e6 c:/intelfpga_lite/18.1/nios2eds/bin/gnu/h-x86_64-mingw32/bin/../lib/gcc/nios2-elf/5.3.0/../../../../../H-x86_64-mingw32/nios2-elf/lib/pg\libc.a(lib_a-readr.o)
 .debug_abbrev  0x000000000000a70f      0x230 c:/intelfpga_lite/18.1/nios2eds/bin/gnu/h-x86_64-mingw32/bin/../lib/gcc/nios2-elf/5.3.0/../../../../../H-x86_64-mingw32/nios2-elf/lib/pg\libc.a(lib_a-wcrtomb.o)
 .debug_abbrev  0x000000000000a93f      0x21f c:/intelfpga_lite/18.1/nios2eds/bin/gnu/h-x86_64-mingw32/bin/../lib/gcc/nios2-elf/5.3.0/../../../../../H-x86_64-mingw32/nios2-elf/lib/pg\libc.a(lib_a-wctomb_r.o)
 .debug_abbrev  0x000000000000ab5e       0xef c:/intelfpga_lite/18.1/nios2eds/bin/gnu/h-x86_64-mingw32/bin/../lib/gcc/nios2-elf/5.3.0/pg\libgcc.a(_muldi3.o)
 .debug_abbrev  0x000000000000ac4d      0x167 c:/intelfpga_lite/18.1/nios2eds/bin/gnu/h-x86_64-mingw32/bin/../lib/gcc/nios2-elf/5.3.0/pg\libgcc.a(_udivdi3.o)
 .debug_abbrev  0x000000000000adb4      0x18a c:/intelfpga_lite/18.1/nios2eds/bin/gnu/h-x86_64-mingw32/bin/../lib/gcc/nios2-elf/5.3.0/pg\libgcc.a(_umoddi3.o)
 .debug_abbrev  0x000000000000af3e      0x13a c:/intelfpga_lite/18.1/nios2eds/bin/gnu/h-x86_64-mingw32/bin/../lib/gcc/nios2-elf/5.3.0/pg\libgcc.a(adddf3.o)
 .debug_abbrev  0x000000000000b078      0x128 c:/intelfpga_lite/18.1/nios2eds/bin/gnu/h-x86_64-mingw32/bin/../lib/gcc/nios2-elf/5.3.0/pg\libgcc.a(eqdf2.o)
 .debug_abbrev  0x000000000000b1a0      0x137 c:/intelfpga_lite/18.1/nios2eds/bin/gnu/h-x86_64-mingw32/bin/../lib/gcc/nios2-elf/5.3.0/pg\libgcc.a(gedf2.o)
 .debug_abbrev  0x000000000000b2d7      0x137 c:/intelfpga_lite/18.1/nios2eds/bin/gnu/h-x86_64-mingw32/bin/../lib/gcc/nios2-elf/5.3.0/pg\libgcc.a(ledf2.o)
 .debug_abbrev  0x000000000000b40e      0x13f c:/intelfpga_lite/18.1/nios2eds/bin/gnu/h-x86_64-mingw32/bin/../lib/gcc/nios2-elf/5.3.0/pg\libgcc.a(muldf3.o)
 .debug_abbrev  0x000000000000b54d      0x133 c:/intelfpga_lite/18.1/nios2eds/bin/gnu/h-x86_64-mingw32/bin/../lib/gcc/nios2-elf/5.3.0/pg\libgcc.a(subdf3.o)
 .debug_abbrev  0x000000000000b680      0x126 c:/intelfpga_lite/18.1/nios2eds/bin/gnu/h-x86_64-mingw32/bin/../lib/gcc/nios2-elf/5.3.0/pg\libgcc.a(fixdfsi.o)
 .debug_abbrev  0x000000000000b7a6      0x124 c:/intelfpga_lite/18.1/nios2eds/bin/gnu/h-x86_64-mingw32/bin/../lib/gcc/nios2-elf/5.3.0/pg\libgcc.a(floatunsidf.o)
 .debug_abbrev  0x000000000000b8ca      0x15c ../LUTBrain_NIOS_bsp/\libhal_bsp.a(alt_close.o)
 .debug_abbrev  0x000000000000ba26       0xd9 ../LUTBrain_NIOS_bsp/\libhal_bsp.a(alt_dev.o)
 .debug_abbrev  0x000000000000baff       0x5a ../LUTBrain_NIOS_bsp/\libhal_bsp.a(alt_errno.o)
 .debug_abbrev  0x000000000000bb59       0xdc ../LUTBrain_NIOS_bsp/\libhal_bsp.a(alt_exit.o)
 .debug_abbrev  0x000000000000bc35      0x13f ../LUTBrain_NIOS_bsp/\libhal_bsp.a(alt_fstat.o)
 .debug_abbrev  0x000000000000bd74       0x39 ../LUTBrain_NIOS_bsp/\libhal_bsp.a(alt_getpid.o)
 .debug_abbrev  0x000000000000bdad      0x219 ../LUTBrain_NIOS_bsp/\libhal_bsp.a(alt_gmon.o)
 .debug_abbrev  0x000000000000bfc6      0x14d ../LUTBrain_NIOS_bsp/\libhal_bsp.a(alt_isatty.o)
 .debug_abbrev  0x000000000000c113       0xcf ../LUTBrain_NIOS_bsp/\libhal_bsp.a(alt_kill.o)
 .debug_abbrev  0x000000000000c1e2       0xe5 ../LUTBrain_NIOS_bsp/\libhal_bsp.a(alt_load.o)
 .debug_abbrev  0x000000000000c2c7      0x13c ../LUTBrain_NIOS_bsp/\libhal_bsp.a(alt_lseek.o)
 .debug_abbrev  0x000000000000c403       0xfd ../LUTBrain_NIOS_bsp/\libhal_bsp.a(alt_main.o)
 .debug_abbrev  0x000000000000c500      0x1ac ../LUTBrain_NIOS_bsp/\libhal_bsp.a(alt_malloc_lock.o)
 .debug_abbrev  0x000000000000c6ac       0x14 ../LUTBrain_NIOS_bsp/\libhal_bsp.a(alt_mcount.o)
 .debug_abbrev  0x000000000000c6c0      0x14b ../LUTBrain_NIOS_bsp/\libhal_bsp.a(alt_read.o)
 .debug_abbrev  0x000000000000c80b       0xde ../LUTBrain_NIOS_bsp/\libhal_bsp.a(alt_release_fd.o)
 .debug_abbrev  0x000000000000c8e9      0x121 ../LUTBrain_NIOS_bsp/\libhal_bsp.a(alt_sbrk.o)
 .debug_abbrev  0x000000000000ca0a      0x196 ../LUTBrain_NIOS_bsp/\libhal_bsp.a(alt_tick.o)
 .debug_abbrev  0x000000000000cba0      0x150 ../LUTBrain_NIOS_bsp/\libhal_bsp.a(alt_write.o)
 .debug_abbrev  0x000000000000ccf0      0x1de ../LUTBrain_NIOS_bsp/\libhal_bsp.a(alt_sys_init.o)
 .debug_abbrev  0x000000000000cece      0x160 ../LUTBrain_NIOS_bsp/\libhal_bsp.a(altera_avalon_jtag_uart_fd.o)
 .debug_abbrev  0x000000000000d02e      0x1ef ../LUTBrain_NIOS_bsp/\libhal_bsp.a(altera_avalon_jtag_uart_init.o)
 .debug_abbrev  0x000000000000d21d      0x120 ../LUTBrain_NIOS_bsp/\libhal_bsp.a(altera_avalon_jtag_uart_ioctl.o)
 .debug_abbrev  0x000000000000d33d      0x1cc ../LUTBrain_NIOS_bsp/\libhal_bsp.a(altera_avalon_jtag_uart_read.o)
 .debug_abbrev  0x000000000000d509      0x1b9 ../LUTBrain_NIOS_bsp/\libhal_bsp.a(altera_avalon_jtag_uart_write.o)
 .debug_abbrev  0x000000000000d6c2      0x191 ../LUTBrain_NIOS_bsp/\libhal_bsp.a(altera_avalon_timer_sc.o)
 .debug_abbrev  0x000000000000d853       0x83 ../LUTBrain_NIOS_bsp/\libhal_bsp.a(altera_avalon_timer_vars.o)
 .debug_abbrev  0x000000000000d8d6      0x187 ../LUTBrain_NIOS_bsp/\libhal_bsp.a(alt_alarm_start.o)
 .debug_abbrev  0x000000000000da5d       0x5a ../LUTBrain_NIOS_bsp/\libhal_bsp.a(alt_dcache_flush_all.o)
 .debug_abbrev  0x000000000000dab7      0x11e ../LUTBrain_NIOS_bsp/\libhal_bsp.a(alt_dev_llist_insert.o)
 .debug_abbrev  0x000000000000dbd5       0x79 ../LUTBrain_NIOS_bsp/\libhal_bsp.a(alt_do_ctors.o)
 .debug_abbrev  0x000000000000dc4e       0x79 ../LUTBrain_NIOS_bsp/\libhal_bsp.a(alt_do_dtors.o)
 .debug_abbrev  0x000000000000dcc7       0x6f ../LUTBrain_NIOS_bsp/\libhal_bsp.a(alt_icache_flush_all.o)
 .debug_abbrev  0x000000000000dd36      0x1a0 ../LUTBrain_NIOS_bsp/\libhal_bsp.a(alt_iic.o)
 .debug_abbrev  0x000000000000ded6      0x19c ../LUTBrain_NIOS_bsp/\libhal_bsp.a(alt_iic_isr_register.o)
 .debug_abbrev  0x000000000000e072      0x1b4 ../LUTBrain_NIOS_bsp/\libhal_bsp.a(alt_io_redirect.o)
 .debug_abbrev  0x000000000000e226       0x12 ../LUTBrain_NIOS_bsp/\libhal_bsp.a(alt_irq_entry.o)
 .debug_abbrev  0x000000000000e238      0x120 ../LUTBrain_NIOS_bsp/\libhal_bsp.a(alt_irq_handler.o)
 .debug_abbrev  0x000000000000e358       0x40 ../LUTBrain_NIOS_bsp/\libhal_bsp.a(alt_irq_vars.o)
 .debug_abbrev  0x000000000000e398      0x1be ../LUTBrain_NIOS_bsp/\libhal_bsp.a(alt_open.o)
 .debug_abbrev  0x000000000000e556       0x42 ../LUTBrain_NIOS_bsp/\libhal_bsp.a(altera_nios2_gen2_irq.o)
 .debug_abbrev  0x000000000000e598       0x12 ../LUTBrain_NIOS_bsp/\libhal_bsp.a(alt_exception_entry.o)
 .debug_abbrev  0x000000000000e5aa      0x125 ../LUTBrain_NIOS_bsp/\libhal_bsp.a(alt_find_dev.o)
 .debug_abbrev  0x000000000000e6cf      0x123 ../LUTBrain_NIOS_bsp/\libhal_bsp.a(alt_find_file.o)
 .debug_abbrev  0x000000000000e7f2      0x10d ../LUTBrain_NIOS_bsp/\libhal_bsp.a(alt_get_fd.o)
 .debug_abbrev  0x000000000000e8ff       0x9b ../LUTBrain_NIOS_bsp/\libhal_bsp.a(alt_icache_flush.o)
 .debug_abbrev  0x000000000000e99a       0xd8 ../LUTBrain_NIOS_bsp/\libhal_bsp.a(alt_instruction_exception_entry.o)
 .debug_abbrev  0x000000000000ea72       0xaa c:/intelfpga_lite/18.1/nios2eds/bin/gnu/h-x86_64-mingw32/bin/../lib/gcc/nios2-elf/5.3.0/../../../../../H-x86_64-mingw32/nios2-elf/lib/pg\libc.a(lib_a-atexit.o)
 .debug_abbrev  0x000000000000eb1c      0x1e5 c:/intelfpga_lite/18.1/nios2eds/bin/gnu/h-x86_64-mingw32/bin/../lib/gcc/nios2-elf/5.3.0/../../../../../H-x86_64-mingw32/nios2-elf/lib/pg\libc.a(lib_a-exit.o)
 .debug_abbrev  0x000000000000ed01       0x7f c:/intelfpga_lite/18.1/nios2eds/bin/gnu/h-x86_64-mingw32/bin/../lib/gcc/nios2-elf/5.3.0/../../../../../H-x86_64-mingw32/nios2-elf/lib/pg\libc.a(lib_a-memcmp.o)
 .debug_abbrev  0x000000000000ed80      0x21e c:/intelfpga_lite/18.1/nios2eds/bin/gnu/h-x86_64-mingw32/bin/../lib/gcc/nios2-elf/5.3.0/../../../../../H-x86_64-mingw32/nios2-elf/lib/pg\libc.a(lib_a-__atexit.o)
 .debug_abbrev  0x000000000000ef9e      0x22e c:/intelfpga_lite/18.1/nios2eds/bin/gnu/h-x86_64-mingw32/bin/../lib/gcc/nios2-elf/5.3.0/../../../../../H-x86_64-mingw32/nios2-elf/lib/pg\libc.a(lib_a-__call_atexit.o)

.debug_line     0x0000000000000000    0x11b92
 *(.debug_line)
 .debug_line    0x0000000000000000       0x72 ../LUTBrain_NIOS_bsp//obj/HAL/src/crt0.o
 .debug_line    0x0000000000000072      0x28d obj/default/Image.o
 .debug_line    0x00000000000002ff      0x123 obj/default/NN.o
 .debug_line    0x0000000000000422      0x1da obj/default/NNLayer.o
 .debug_line    0x00000000000005fc       0x81 obj/default/VGA.o
 .debug_line    0x000000000000067d      0x17c obj/default/main.o
 .debug_line    0x00000000000007f9      0x12f c:/intelfpga_lite/18.1/nios2eds/bin/gnu/h-x86_64-mingw32/bin/../lib/gcc/nios2-elf/5.3.0/../../../../../H-x86_64-mingw32/nios2-elf/lib/pg\libstdc++.a(new_opv.o)
 .debug_line    0x0000000000000928      0x333 c:/intelfpga_lite/18.1/nios2eds/bin/gnu/h-x86_64-mingw32/bin/../lib/gcc/nios2-elf/5.3.0/../../../../../H-x86_64-mingw32/nios2-elf/lib/pg\libstdc++.a(new_op.o)
 .debug_line    0x0000000000000c5b      0x127 c:/intelfpga_lite/18.1/nios2eds/bin/gnu/h-x86_64-mingw32/bin/../lib/gcc/nios2-elf/5.3.0/../../../../../H-x86_64-mingw32/nios2-elf/lib/pg\libstdc++.a(del_opv.o)
 .debug_line    0x0000000000000d82      0x1ea c:/intelfpga_lite/18.1/nios2eds/bin/gnu/h-x86_64-mingw32/bin/../lib/gcc/nios2-elf/5.3.0/../../../../../H-x86_64-mingw32/nios2-elf/lib/pg\libstdc++.a(new_handler.o)
 .debug_line    0x0000000000000f6c      0x7e4 c:/intelfpga_lite/18.1/nios2eds/bin/gnu/h-x86_64-mingw32/bin/../lib/gcc/nios2-elf/5.3.0/../../../../../H-x86_64-mingw32/nios2-elf/lib/pg\libstdc++.a(eh_personality.o)
 .debug_line    0x0000000000001750      0x149 c:/intelfpga_lite/18.1/nios2eds/bin/gnu/h-x86_64-mingw32/bin/../lib/gcc/nios2-elf/5.3.0/../../../../../H-x86_64-mingw32/nios2-elf/lib/pg\libstdc++.a(bad_alloc.o)
 .debug_line    0x0000000000001899      0x2a0 c:/intelfpga_lite/18.1/nios2eds/bin/gnu/h-x86_64-mingw32/bin/../lib/gcc/nios2-elf/5.3.0/../../../../../H-x86_64-mingw32/nios2-elf/lib/pg\libstdc++.a(del_op.o)
 .debug_line    0x0000000000001b39      0x32f c:/intelfpga_lite/18.1/nios2eds/bin/gnu/h-x86_64-mingw32/bin/../lib/gcc/nios2-elf/5.3.0/../../../../../H-x86_64-mingw32/nios2-elf/lib/pg\libstdc++.a(eh_throw.o)
 .debug_line    0x0000000000001e68      0x3c9 c:/intelfpga_lite/18.1/nios2eds/bin/gnu/h-x86_64-mingw32/bin/../lib/gcc/nios2-elf/5.3.0/../../../../../H-x86_64-mingw32/nios2-elf/lib/pg\libstdc++.a(eh_catch.o)
 .debug_line    0x0000000000002231      0x317 c:/intelfpga_lite/18.1/nios2eds/bin/gnu/h-x86_64-mingw32/bin/../lib/gcc/nios2-elf/5.3.0/../../../../../H-x86_64-mingw32/nios2-elf/lib/pg\libstdc++.a(class_type_info.o)
 .debug_line    0x0000000000002548      0x489 c:/intelfpga_lite/18.1/nios2eds/bin/gnu/h-x86_64-mingw32/bin/../lib/gcc/nios2-elf/5.3.0/../../../../../H-x86_64-mingw32/nios2-elf/lib/pg\libstdc++.a(eh_terminate.o)
 .debug_line    0x00000000000029d1      0x21f c:/intelfpga_lite/18.1/nios2eds/bin/gnu/h-x86_64-mingw32/bin/../lib/gcc/nios2-elf/5.3.0/../../../../../H-x86_64-mingw32/nios2-elf/lib/pg\libstdc++.a(eh_unex_handler.o)
 .debug_line    0x0000000000002bf0      0x4f8 c:/intelfpga_lite/18.1/nios2eds/bin/gnu/h-x86_64-mingw32/bin/../lib/gcc/nios2-elf/5.3.0/../../../../../H-x86_64-mingw32/nios2-elf/lib/pg\libstdc++.a(eh_alloc.o)
 .debug_line    0x00000000000030e8      0x341 c:/intelfpga_lite/18.1/nios2eds/bin/gnu/h-x86_64-mingw32/bin/../lib/gcc/nios2-elf/5.3.0/../../../../../H-x86_64-mingw32/nios2-elf/lib/pg\libstdc++.a(eh_call.o)
 .debug_line    0x0000000000003429      0x33a c:/intelfpga_lite/18.1/nios2eds/bin/gnu/h-x86_64-mingw32/bin/../lib/gcc/nios2-elf/5.3.0/../../../../../H-x86_64-mingw32/nios2-elf/lib/pg\libstdc++.a(eh_globals.o)
 .debug_line    0x0000000000003763      0x2da c:/intelfpga_lite/18.1/nios2eds/bin/gnu/h-x86_64-mingw32/bin/../lib/gcc/nios2-elf/5.3.0/../../../../../H-x86_64-mingw32/nios2-elf/lib/pg\libstdc++.a(si_class_type_info.o)
 .debug_line    0x0000000000003a3d      0x2cb c:/intelfpga_lite/18.1/nios2eds/bin/gnu/h-x86_64-mingw32/bin/../lib/gcc/nios2-elf/5.3.0/../../../../../H-x86_64-mingw32/nios2-elf/lib/pg\libstdc++.a(eh_exception.o)
 .debug_line    0x0000000000003d08      0x21f c:/intelfpga_lite/18.1/nios2eds/bin/gnu/h-x86_64-mingw32/bin/../lib/gcc/nios2-elf/5.3.0/../../../../../H-x86_64-mingw32/nios2-elf/lib/pg\libstdc++.a(eh_term_handler.o)
 .debug_line    0x0000000000003f27      0x1fc c:/intelfpga_lite/18.1/nios2eds/bin/gnu/h-x86_64-mingw32/bin/../lib/gcc/nios2-elf/5.3.0/../../../../../H-x86_64-mingw32/nios2-elf/lib/pg\libstdc++.a(tinfo.o)
 .debug_line    0x0000000000004123      0x2af c:/intelfpga_lite/18.1/nios2eds/bin/gnu/h-x86_64-mingw32/bin/../lib/gcc/nios2-elf/5.3.0/../../../../../H-x86_64-mingw32/nios2-elf/lib/pg\libstdc++.a(pure.o)
 .debug_line    0x00000000000043d2       0x6e c:/intelfpga_lite/18.1/nios2eds/bin/gnu/h-x86_64-mingw32/bin/../lib/gcc/nios2-elf/5.3.0/pg\libgcc.a(_fixunssfsi.o)
 .debug_line    0x0000000000004440      0x10d c:/intelfpga_lite/18.1/nios2eds/bin/gnu/h-x86_64-mingw32/bin/../lib/gcc/nios2-elf/5.3.0/pg\libgcc.a(lib2-divmod.o)
 .debug_line    0x000000000000454d      0x281 c:/intelfpga_lite/18.1/nios2eds/bin/gnu/h-x86_64-mingw32/bin/../lib/gcc/nios2-elf/5.3.0/pg\libgcc.a(addsf3.o)
 .debug_line    0x00000000000047ce      0x161 c:/intelfpga_lite/18.1/nios2eds/bin/gnu/h-x86_64-mingw32/bin/../lib/gcc/nios2-elf/5.3.0/pg\libgcc.a(divsf3.o)
 .debug_line    0x000000000000492f       0xa2 c:/intelfpga_lite/18.1/nios2eds/bin/gnu/h-x86_64-mingw32/bin/../lib/gcc/nios2-elf/5.3.0/pg\libgcc.a(eqsf2.o)
 .debug_line    0x00000000000049d1       0xc1 c:/intelfpga_lite/18.1/nios2eds/bin/gnu/h-x86_64-mingw32/bin/../lib/gcc/nios2-elf/5.3.0/pg\libgcc.a(gesf2.o)
 .debug_line    0x0000000000004a92      0x14d c:/intelfpga_lite/18.1/nios2eds/bin/gnu/h-x86_64-mingw32/bin/../lib/gcc/nios2-elf/5.3.0/pg\libgcc.a(mulsf3.o)
 .debug_line    0x0000000000004bdf      0x28b c:/intelfpga_lite/18.1/nios2eds/bin/gnu/h-x86_64-mingw32/bin/../lib/gcc/nios2-elf/5.3.0/pg\libgcc.a(subsf3.o)
 .debug_line    0x0000000000004e6a       0xa0 c:/intelfpga_lite/18.1/nios2eds/bin/gnu/h-x86_64-mingw32/bin/../lib/gcc/nios2-elf/5.3.0/pg\libgcc.a(fixsfsi.o)
 .debug_line    0x0000000000004f0a       0xb4 c:/intelfpga_lite/18.1/nios2eds/bin/gnu/h-x86_64-mingw32/bin/../lib/gcc/nios2-elf/5.3.0/pg\libgcc.a(floatsisf.o)
 .debug_line    0x0000000000004fbe       0xaa c:/intelfpga_lite/18.1/nios2eds/bin/gnu/h-x86_64-mingw32/bin/../lib/gcc/nios2-elf/5.3.0/pg\libgcc.a(floatunsisf.o)
 .debug_line    0x0000000000005068      0x2a1 c:/intelfpga_lite/18.1/nios2eds/bin/gnu/h-x86_64-mingw32/bin/../lib/gcc/nios2-elf/5.3.0/pg\libgcc.a(divdf3.o)
 .debug_line    0x0000000000005309       0xa3 c:/intelfpga_lite/18.1/nios2eds/bin/gnu/h-x86_64-mingw32/bin/../lib/gcc/nios2-elf/5.3.0/pg\libgcc.a(floatsidf.o)
 .debug_line    0x00000000000053ac       0xb6 c:/intelfpga_lite/18.1/nios2eds/bin/gnu/h-x86_64-mingw32/bin/../lib/gcc/nios2-elf/5.3.0/pg\libgcc.a(extendsfdf2.o)
 .debug_line    0x0000000000005462       0xfa c:/intelfpga_lite/18.1/nios2eds/bin/gnu/h-x86_64-mingw32/bin/../lib/gcc/nios2-elf/5.3.0/pg\libgcc.a(truncdfsf2.o)
 .debug_line    0x000000000000555c      0x266 c:/intelfpga_lite/18.1/nios2eds/bin/gnu/h-x86_64-mingw32/bin/../lib/gcc/nios2-elf/5.3.0/pg\libgcc.a(unwind-sjlj.o)
 .debug_line    0x00000000000057c2       0xbd c:/intelfpga_lite/18.1/nios2eds/bin/gnu/h-x86_64-mingw32/bin/../lib/gcc/nios2-elf/5.3.0/pg\libgcc.a(_clzsi2.o)
 .debug_line    0x000000000000587f       0x56 c:/intelfpga_lite/18.1/nios2eds/bin/gnu/h-x86_64-mingw32/bin/../lib/gcc/nios2-elf/5.3.0/pg\libgcc.a(_clz.o)
 .debug_line    0x00000000000058d5      0x156 c:/intelfpga_lite/18.1/nios2eds/bin/gnu/h-x86_64-mingw32/bin/../lib/gcc/nios2-elf/5.3.0/../../../../../H-x86_64-mingw32/nios2-elf/lib/pg\libc.a(lib_a-abort.o)
 .debug_line    0x0000000000005a2b      0x1f3 c:/intelfpga_lite/18.1/nios2eds/bin/gnu/h-x86_64-mingw32/bin/../lib/gcc/nios2-elf/5.3.0/../../../../../H-x86_64-mingw32/nios2-elf/lib/pg\libc.a(lib_a-malloc.o)
 .debug_line    0x0000000000005c1e      0x3fc c:/intelfpga_lite/18.1/nios2eds/bin/gnu/h-x86_64-mingw32/bin/../lib/gcc/nios2-elf/5.3.0/../../../../../H-x86_64-mingw32/nios2-elf/lib/pg\libc.a(lib_a-mallocr.o)
 .debug_line    0x000000000000601a      0x18f c:/intelfpga_lite/18.1/nios2eds/bin/gnu/h-x86_64-mingw32/bin/../lib/gcc/nios2-elf/5.3.0/../../../../../H-x86_64-mingw32/nios2-elf/lib/pg\libc.a(lib_a-memset.o)
 .debug_line    0x00000000000061a9      0x20d c:/intelfpga_lite/18.1/nios2eds/bin/gnu/h-x86_64-mingw32/bin/../lib/gcc/nios2-elf/5.3.0/../../../../../H-x86_64-mingw32/nios2-elf/lib/pg\libc.a(lib_a-printf.o)
 .debug_line    0x00000000000063b6      0x1f5 c:/intelfpga_lite/18.1/nios2eds/bin/gnu/h-x86_64-mingw32/bin/../lib/gcc/nios2-elf/5.3.0/../../../../../H-x86_64-mingw32/nios2-elf/lib/pg\libc.a(lib_a-putchar.o)
 .debug_line    0x00000000000065ab      0x249 c:/intelfpga_lite/18.1/nios2eds/bin/gnu/h-x86_64-mingw32/bin/../lib/gcc/nios2-elf/5.3.0/../../../../../H-x86_64-mingw32/nios2-elf/lib/pg\libc.a(lib_a-puts.o)
 .debug_line    0x00000000000067f4      0x1f6 c:/intelfpga_lite/18.1/nios2eds/bin/gnu/h-x86_64-mingw32/bin/../lib/gcc/nios2-elf/5.3.0/../../../../../H-x86_64-mingw32/nios2-elf/lib/pg\libc.a(lib_a-rand.o)
 .debug_line    0x00000000000069ea      0x1e7 c:/intelfpga_lite/18.1/nios2eds/bin/gnu/h-x86_64-mingw32/bin/../lib/gcc/nios2-elf/5.3.0/../../../../../H-x86_64-mingw32/nios2-elf/lib/pg\libc.a(lib_a-sbrkr.o)
 .debug_line    0x0000000000006bd1      0x2e8 c:/intelfpga_lite/18.1/nios2eds/bin/gnu/h-x86_64-mingw32/bin/../lib/gcc/nios2-elf/5.3.0/../../../../../H-x86_64-mingw32/nios2-elf/lib/pg\libc.a(lib_a-signal.o)
 .debug_line    0x0000000000006eb9      0x209 c:/intelfpga_lite/18.1/nios2eds/bin/gnu/h-x86_64-mingw32/bin/../lib/gcc/nios2-elf/5.3.0/../../../../../H-x86_64-mingw32/nios2-elf/lib/pg\libc.a(lib_a-signalr.o)
 .debug_line    0x00000000000070c2      0x101 c:/intelfpga_lite/18.1/nios2eds/bin/gnu/h-x86_64-mingw32/bin/../lib/gcc/nios2-elf/5.3.0/../../../../../H-x86_64-mingw32/nios2-elf/lib/pg\libc.a(lib_a-strcmp.o)
 .debug_line    0x00000000000071c3      0x16f c:/intelfpga_lite/18.1/nios2eds/bin/gnu/h-x86_64-mingw32/bin/../lib/gcc/nios2-elf/5.3.0/../../../../../H-x86_64-mingw32/nios2-elf/lib/pg\libc.a(lib_a-strlen.o)
 .debug_line    0x0000000000007332      0xc96 c:/intelfpga_lite/18.1/nios2eds/bin/gnu/h-x86_64-mingw32/bin/../lib/gcc/nios2-elf/5.3.0/../../../../../H-x86_64-mingw32/nios2-elf/lib/pg\libc.a(lib_a-vfprintf.o)
 .debug_line    0x0000000000007fc8      0x264 c:/intelfpga_lite/18.1/nios2eds/bin/gnu/h-x86_64-mingw32/bin/../lib/gcc/nios2-elf/5.3.0/../../../../../H-x86_64-mingw32/nios2-elf/lib/pg\libc.a(lib_a-wsetup.o)
 .debug_line    0x000000000000822c      0x7c7 c:/intelfpga_lite/18.1/nios2eds/bin/gnu/h-x86_64-mingw32/bin/../lib/gcc/nios2-elf/5.3.0/../../../../../H-x86_64-mingw32/nios2-elf/lib/pg\libc.a(lib_a-dtoa.o)
 .debug_line    0x00000000000089f3      0x2e8 c:/intelfpga_lite/18.1/nios2eds/bin/gnu/h-x86_64-mingw32/bin/../lib/gcc/nios2-elf/5.3.0/../../../../../H-x86_64-mingw32/nios2-elf/lib/pg\libc.a(lib_a-fflush.o)
 .debug_line    0x0000000000008cdb      0x368 c:/intelfpga_lite/18.1/nios2eds/bin/gnu/h-x86_64-mingw32/bin/../lib/gcc/nios2-elf/5.3.0/../../../../../H-x86_64-mingw32/nios2-elf/lib/pg\libc.a(lib_a-findfp.o)
 .debug_line    0x0000000000009043      0x2f8 c:/intelfpga_lite/18.1/nios2eds/bin/gnu/h-x86_64-mingw32/bin/../lib/gcc/nios2-elf/5.3.0/../../../../../H-x86_64-mingw32/nios2-elf/lib/pg\libc.a(lib_a-freer.o)
 .debug_line    0x000000000000933b      0x344 c:/intelfpga_lite/18.1/nios2eds/bin/gnu/h-x86_64-mingw32/bin/../lib/gcc/nios2-elf/5.3.0/../../../../../H-x86_64-mingw32/nios2-elf/lib/pg\libc.a(lib_a-fvwrite.o)
 .debug_line    0x000000000000967f      0x23a c:/intelfpga_lite/18.1/nios2eds/bin/gnu/h-x86_64-mingw32/bin/../lib/gcc/nios2-elf/5.3.0/../../../../../H-x86_64-mingw32/nios2-elf/lib/pg\libc.a(lib_a-fwalk.o)
 .debug_line    0x00000000000098b9      0x160 c:/intelfpga_lite/18.1/nios2eds/bin/gnu/h-x86_64-mingw32/bin/../lib/gcc/nios2-elf/5.3.0/../../../../../H-x86_64-mingw32/nios2-elf/lib/pg\libc.a(lib_a-impure.o)
 .debug_line    0x0000000000009a19       0x5f c:/intelfpga_lite/18.1/nios2eds/bin/gnu/h-x86_64-mingw32/bin/../lib/gcc/nios2-elf/5.3.0/../../../../../H-x86_64-mingw32/nios2-elf/lib/pg\libc.a(lib_a-int_errno.o)
 .debug_line    0x0000000000009a78      0x28c c:/intelfpga_lite/18.1/nios2eds/bin/gnu/h-x86_64-mingw32/bin/../lib/gcc/nios2-elf/5.3.0/../../../../../H-x86_64-mingw32/nios2-elf/lib/pg\libc.a(lib_a-locale.o)
 .debug_line    0x0000000000009d04      0x26e c:/intelfpga_lite/18.1/nios2eds/bin/gnu/h-x86_64-mingw32/bin/../lib/gcc/nios2-elf/5.3.0/../../../../../H-x86_64-mingw32/nios2-elf/lib/pg\libc.a(lib_a-makebuf.o)
 .debug_line    0x0000000000009f72      0x190 c:/intelfpga_lite/18.1/nios2eds/bin/gnu/h-x86_64-mingw32/bin/../lib/gcc/nios2-elf/5.3.0/../../../../../H-x86_64-mingw32/nios2-elf/lib/pg\libc.a(lib_a-memchr.o)
 .debug_line    0x000000000000a102      0x18d c:/intelfpga_lite/18.1/nios2eds/bin/gnu/h-x86_64-mingw32/bin/../lib/gcc/nios2-elf/5.3.0/../../../../../H-x86_64-mingw32/nios2-elf/lib/pg\libc.a(lib_a-memcpy.o)
 .debug_line    0x000000000000a28f      0x190 c:/intelfpga_lite/18.1/nios2eds/bin/gnu/h-x86_64-mingw32/bin/../lib/gcc/nios2-elf/5.3.0/../../../../../H-x86_64-mingw32/nios2-elf/lib/pg\libc.a(lib_a-memmove.o)
 .debug_line    0x000000000000a41f      0x795 c:/intelfpga_lite/18.1/nios2eds/bin/gnu/h-x86_64-mingw32/bin/../lib/gcc/nios2-elf/5.3.0/../../../../../H-x86_64-mingw32/nios2-elf/lib/pg\libc.a(lib_a-mprec.o)
 .debug_line    0x000000000000abb4      0x272 c:/intelfpga_lite/18.1/nios2eds/bin/gnu/h-x86_64-mingw32/bin/../lib/gcc/nios2-elf/5.3.0/../../../../../H-x86_64-mingw32/nios2-elf/lib/pg\libc.a(lib_a-putc.o)
 .debug_line    0x000000000000ae26      0x2f5 c:/intelfpga_lite/18.1/nios2eds/bin/gnu/h-x86_64-mingw32/bin/../lib/gcc/nios2-elf/5.3.0/../../../../../H-x86_64-mingw32/nios2-elf/lib/pg\libc.a(lib_a-reallocr.o)
 .debug_line    0x000000000000b11b      0x179 c:/intelfpga_lite/18.1/nios2eds/bin/gnu/h-x86_64-mingw32/bin/../lib/gcc/nios2-elf/5.3.0/../../../../../H-x86_64-mingw32/nios2-elf/lib/pg\libc.a(lib_a-s_fpclassify.o)
 .debug_line    0x000000000000b294      0x267 c:/intelfpga_lite/18.1/nios2eds/bin/gnu/h-x86_64-mingw32/bin/../lib/gcc/nios2-elf/5.3.0/../../../../../H-x86_64-mingw32/nios2-elf/lib/pg\libc.a(lib_a-stdio.o)
 .debug_line    0x000000000000b4fb      0x94d c:/intelfpga_lite/18.1/nios2eds/bin/gnu/h-x86_64-mingw32/bin/../lib/gcc/nios2-elf/5.3.0/../../../../../H-x86_64-mingw32/nios2-elf/lib/pg\libc.a(lib_a-vfiprintf.o)
 .debug_line    0x000000000000be48      0x272 c:/intelfpga_lite/18.1/nios2eds/bin/gnu/h-x86_64-mingw32/bin/../lib/gcc/nios2-elf/5.3.0/../../../../../H-x86_64-mingw32/nios2-elf/lib/pg\libc.a(lib_a-wbuf.o)
 .debug_line    0x000000000000c0ba      0x1f6 c:/intelfpga_lite/18.1/nios2eds/bin/gnu/h-x86_64-mingw32/bin/../lib/gcc/nios2-elf/5.3.0/../../../../../H-x86_64-mingw32/nios2-elf/lib/pg\libc.a(lib_a-writer.o)
 .debug_line    0x000000000000c2b0      0x1f4 c:/intelfpga_lite/18.1/nios2eds/bin/gnu/h-x86_64-mingw32/bin/../lib/gcc/nios2-elf/5.3.0/../../../../../H-x86_64-mingw32/nios2-elf/lib/pg\libc.a(closer.o)
 .debug_line    0x000000000000c4a4      0x1a6 c:/intelfpga_lite/18.1/nios2eds/bin/gnu/h-x86_64-mingw32/bin/../lib/gcc/nios2-elf/5.3.0/../../../../../H-x86_64-mingw32/nios2-elf/lib/pg\libc.a(lib_a-callocr.o)
 .debug_line    0x000000000000c64a      0x239 c:/intelfpga_lite/18.1/nios2eds/bin/gnu/h-x86_64-mingw32/bin/../lib/gcc/nios2-elf/5.3.0/../../../../../H-x86_64-mingw32/nios2-elf/lib/pg\libc.a(lib_a-fclose.o)
 .debug_line    0x000000000000c883      0x2a2 c:/intelfpga_lite/18.1/nios2eds/bin/gnu/h-x86_64-mingw32/bin/../lib/gcc/nios2-elf/5.3.0/../../../../../H-x86_64-mingw32/nios2-elf/lib/pg\libc.a(lib_a-fputwc.o)
 .debug_line    0x000000000000cb25      0x1ff c:/intelfpga_lite/18.1/nios2eds/bin/gnu/h-x86_64-mingw32/bin/../lib/gcc/nios2-elf/5.3.0/../../../../../H-x86_64-mingw32/nios2-elf/lib/pg\libc.a(lib_a-fstatr.o)
 .debug_line    0x000000000000cd24      0x1f5 c:/intelfpga_lite/18.1/nios2eds/bin/gnu/h-x86_64-mingw32/bin/../lib/gcc/nios2-elf/5.3.0/../../../../../H-x86_64-mingw32/nios2-elf/lib/pg\libc.a(lib_a-isattyr.o)
 .debug_line    0x000000000000cf19      0x1f6 c:/intelfpga_lite/18.1/nios2eds/bin/gnu/h-x86_64-mingw32/bin/../lib/gcc/nios2-elf/5.3.0/../../../../../H-x86_64-mingw32/nios2-elf/lib/pg\libc.a(lib_a-lseekr.o)
 .debug_line    0x000000000000d10f      0x1f5 c:/intelfpga_lite/18.1/nios2eds/bin/gnu/h-x86_64-mingw32/bin/../lib/gcc/nios2-elf/5.3.0/../../../../../H-x86_64-mingw32/nios2-elf/lib/pg\libc.a(lib_a-readr.o)
 .debug_line    0x000000000000d304      0x21f c:/intelfpga_lite/18.1/nios2eds/bin/gnu/h-x86_64-mingw32/bin/../lib/gcc/nios2-elf/5.3.0/../../../../../H-x86_64-mingw32/nios2-elf/lib/pg\libc.a(lib_a-wcrtomb.o)
 .debug_line    0x000000000000d523      0x219 c:/intelfpga_lite/18.1/nios2eds/bin/gnu/h-x86_64-mingw32/bin/../lib/gcc/nios2-elf/5.3.0/../../../../../H-x86_64-mingw32/nios2-elf/lib/pg\libc.a(lib_a-wctomb_r.o)
 .debug_line    0x000000000000d73c       0x89 c:/intelfpga_lite/18.1/nios2eds/bin/gnu/h-x86_64-mingw32/bin/../lib/gcc/nios2-elf/5.3.0/pg\libgcc.a(_muldi3.o)
 .debug_line    0x000000000000d7c5      0x130 c:/intelfpga_lite/18.1/nios2eds/bin/gnu/h-x86_64-mingw32/bin/../lib/gcc/nios2-elf/5.3.0/pg\libgcc.a(_udivdi3.o)
 .debug_line    0x000000000000d8f5      0x140 c:/intelfpga_lite/18.1/nios2eds/bin/gnu/h-x86_64-mingw32/bin/../lib/gcc/nios2-elf/5.3.0/pg\libgcc.a(_umoddi3.o)
 .debug_line    0x000000000000da35      0x37c c:/intelfpga_lite/18.1/nios2eds/bin/gnu/h-x86_64-mingw32/bin/../lib/gcc/nios2-elf/5.3.0/pg\libgcc.a(adddf3.o)
 .debug_line    0x000000000000ddb1       0xa7 c:/intelfpga_lite/18.1/nios2eds/bin/gnu/h-x86_64-mingw32/bin/../lib/gcc/nios2-elf/5.3.0/pg\libgcc.a(eqdf2.o)
 .debug_line    0x000000000000de58       0xd0 c:/intelfpga_lite/18.1/nios2eds/bin/gnu/h-x86_64-mingw32/bin/../lib/gcc/nios2-elf/5.3.0/pg\libgcc.a(gedf2.o)
 .debug_line    0x000000000000df28       0xe7 c:/intelfpga_lite/18.1/nios2eds/bin/gnu/h-x86_64-mingw32/bin/../lib/gcc/nios2-elf/5.3.0/pg\libgcc.a(ledf2.o)
 .debug_line    0x000000000000e00f      0x1d7 c:/intelfpga_lite/18.1/nios2eds/bin/gnu/h-x86_64-mingw32/bin/../lib/gcc/nios2-elf/5.3.0/pg\libgcc.a(muldf3.o)
 .debug_line    0x000000000000e1e6      0x39e c:/intelfpga_lite/18.1/nios2eds/bin/gnu/h-x86_64-mingw32/bin/../lib/gcc/nios2-elf/5.3.0/pg\libgcc.a(subdf3.o)
 .debug_line    0x000000000000e584       0xa1 c:/intelfpga_lite/18.1/nios2eds/bin/gnu/h-x86_64-mingw32/bin/../lib/gcc/nios2-elf/5.3.0/pg\libgcc.a(fixdfsi.o)
 .debug_line    0x000000000000e625       0x96 c:/intelfpga_lite/18.1/nios2eds/bin/gnu/h-x86_64-mingw32/bin/../lib/gcc/nios2-elf/5.3.0/pg\libgcc.a(floatunsidf.o)
 .debug_line    0x000000000000e6bb      0x163 ../LUTBrain_NIOS_bsp/\libhal_bsp.a(alt_close.o)
 .debug_line    0x000000000000e81e       0xf6 ../LUTBrain_NIOS_bsp/\libhal_bsp.a(alt_dev.o)
 .debug_line    0x000000000000e914       0x51 ../LUTBrain_NIOS_bsp/\libhal_bsp.a(alt_errno.o)
 .debug_line    0x000000000000e965       0x69 ../LUTBrain_NIOS_bsp/\libhal_bsp.a(alt_exit.o)
 .debug_line    0x000000000000e9ce      0x158 ../LUTBrain_NIOS_bsp/\libhal_bsp.a(alt_fstat.o)
 .debug_line    0x000000000000eb26       0x45 ../LUTBrain_NIOS_bsp/\libhal_bsp.a(alt_getpid.o)
 .debug_line    0x000000000000eb6b      0x1a5 ../LUTBrain_NIOS_bsp/\libhal_bsp.a(alt_gmon.o)
 .debug_line    0x000000000000ed10      0x151 ../LUTBrain_NIOS_bsp/\libhal_bsp.a(alt_isatty.o)
 .debug_line    0x000000000000ee61       0xdf ../LUTBrain_NIOS_bsp/\libhal_bsp.a(alt_kill.o)
 .debug_line    0x000000000000ef40       0xa0 ../LUTBrain_NIOS_bsp/\libhal_bsp.a(alt_load.o)
 .debug_line    0x000000000000efe0      0x14d ../LUTBrain_NIOS_bsp/\libhal_bsp.a(alt_lseek.o)
 .debug_line    0x000000000000f12d      0x176 ../LUTBrain_NIOS_bsp/\libhal_bsp.a(alt_main.o)
 .debug_line    0x000000000000f2a3      0x120 ../LUTBrain_NIOS_bsp/\libhal_bsp.a(alt_malloc_lock.o)
 .debug_line    0x000000000000f3c3       0x6a ../LUTBrain_NIOS_bsp/\libhal_bsp.a(alt_mcount.o)
 .debug_line    0x000000000000f42d      0x1d8 ../LUTBrain_NIOS_bsp/\libhal_bsp.a(alt_read.o)
 .debug_line    0x000000000000f605       0xad ../LUTBrain_NIOS_bsp/\libhal_bsp.a(alt_release_fd.o)
 .debug_line    0x000000000000f6b2       0xf1 ../LUTBrain_NIOS_bsp/\libhal_bsp.a(alt_sbrk.o)
 .debug_line    0x000000000000f7a3      0x11c ../LUTBrain_NIOS_bsp/\libhal_bsp.a(alt_tick.o)
 .debug_line    0x000000000000f8bf      0x1d7 ../LUTBrain_NIOS_bsp/\libhal_bsp.a(alt_write.o)
 .debug_line    0x000000000000fa96      0x175 ../LUTBrain_NIOS_bsp/\libhal_bsp.a(alt_sys_init.o)
 .debug_line    0x000000000000fc0b      0x122 ../LUTBrain_NIOS_bsp/\libhal_bsp.a(altera_avalon_jtag_uart_fd.o)
 .debug_line    0x000000000000fd2d      0x19e ../LUTBrain_NIOS_bsp/\libhal_bsp.a(altera_avalon_jtag_uart_init.o)
 .debug_line    0x000000000000fecb      0x11e ../LUTBrain_NIOS_bsp/\libhal_bsp.a(altera_avalon_jtag_uart_ioctl.o)
 .debug_line    0x000000000000ffe9      0x17b ../LUTBrain_NIOS_bsp/\libhal_bsp.a(altera_avalon_jtag_uart_read.o)
 .debug_line    0x0000000000010164      0x1a9 ../LUTBrain_NIOS_bsp/\libhal_bsp.a(altera_avalon_jtag_uart_write.o)
 .debug_line    0x000000000001030d       0xff ../LUTBrain_NIOS_bsp/\libhal_bsp.a(altera_avalon_timer_sc.o)
 .debug_line    0x000000000001040c       0x8a ../LUTBrain_NIOS_bsp/\libhal_bsp.a(altera_avalon_timer_vars.o)
 .debug_line    0x0000000000010496       0xeb ../LUTBrain_NIOS_bsp/\libhal_bsp.a(alt_alarm_start.o)
 .debug_line    0x0000000000010581       0x5a ../LUTBrain_NIOS_bsp/\libhal_bsp.a(alt_dcache_flush_all.o)
 .debug_line    0x00000000000105db       0xe1 ../LUTBrain_NIOS_bsp/\libhal_bsp.a(alt_dev_llist_insert.o)
 .debug_line    0x00000000000106bc       0x5f ../LUTBrain_NIOS_bsp/\libhal_bsp.a(alt_do_ctors.o)
 .debug_line    0x000000000001071b       0x5f ../LUTBrain_NIOS_bsp/\libhal_bsp.a(alt_do_dtors.o)
 .debug_line    0x000000000001077a       0x6e ../LUTBrain_NIOS_bsp/\libhal_bsp.a(alt_icache_flush_all.o)
 .debug_line    0x00000000000107e8       0xf1 ../LUTBrain_NIOS_bsp/\libhal_bsp.a(alt_iic.o)
 .debug_line    0x00000000000108d9       0xd8 ../LUTBrain_NIOS_bsp/\libhal_bsp.a(alt_iic_isr_register.o)
 .debug_line    0x00000000000109b1      0x15f ../LUTBrain_NIOS_bsp/\libhal_bsp.a(alt_io_redirect.o)
 .debug_line    0x0000000000010b10       0x6b ../LUTBrain_NIOS_bsp/\libhal_bsp.a(alt_irq_entry.o)
 .debug_line    0x0000000000010b7b       0xac ../LUTBrain_NIOS_bsp/\libhal_bsp.a(alt_irq_handler.o)
 .debug_line    0x0000000000010c27       0x50 ../LUTBrain_NIOS_bsp/\libhal_bsp.a(alt_irq_vars.o)
 .debug_line    0x0000000000010c77      0x11f ../LUTBrain_NIOS_bsp/\libhal_bsp.a(alt_open.o)
 .debug_line    0x0000000000010d96       0x51 ../LUTBrain_NIOS_bsp/\libhal_bsp.a(altera_nios2_gen2_irq.o)
 .debug_line    0x0000000000010de7       0xb3 ../LUTBrain_NIOS_bsp/\libhal_bsp.a(alt_exception_entry.o)
 .debug_line    0x0000000000010e9a      0x10f ../LUTBrain_NIOS_bsp/\libhal_bsp.a(alt_find_dev.o)
 .debug_line    0x0000000000010fa9      0x126 ../LUTBrain_NIOS_bsp/\libhal_bsp.a(alt_find_file.o)
 .debug_line    0x00000000000110cf       0xd0 ../LUTBrain_NIOS_bsp/\libhal_bsp.a(alt_get_fd.o)
 .debug_line    0x000000000001119f       0x78 ../LUTBrain_NIOS_bsp/\libhal_bsp.a(alt_icache_flush.o)
 .debug_line    0x0000000000011217       0xca ../LUTBrain_NIOS_bsp/\libhal_bsp.a(alt_instruction_exception_entry.o)
 .debug_line    0x00000000000112e1       0xe7 c:/intelfpga_lite/18.1/nios2eds/bin/gnu/h-x86_64-mingw32/bin/../lib/gcc/nios2-elf/5.3.0/../../../../../H-x86_64-mingw32/nios2-elf/lib/pg\libc.a(lib_a-atexit.o)
 .debug_line    0x00000000000113c8      0x1fc c:/intelfpga_lite/18.1/nios2eds/bin/gnu/h-x86_64-mingw32/bin/../lib/gcc/nios2-elf/5.3.0/../../../../../H-x86_64-mingw32/nios2-elf/lib/pg\libc.a(lib_a-exit.o)
 .debug_line    0x00000000000115c4      0x177 c:/intelfpga_lite/18.1/nios2eds/bin/gnu/h-x86_64-mingw32/bin/../lib/gcc/nios2-elf/5.3.0/../../../../../H-x86_64-mingw32/nios2-elf/lib/pg\libc.a(lib_a-memcmp.o)
 .debug_line    0x000000000001173b      0x21b c:/intelfpga_lite/18.1/nios2eds/bin/gnu/h-x86_64-mingw32/bin/../lib/gcc/nios2-elf/5.3.0/../../../../../H-x86_64-mingw32/nios2-elf/lib/pg\libc.a(lib_a-__atexit.o)
 .debug_line    0x0000000000011956      0x23c c:/intelfpga_lite/18.1/nios2eds/bin/gnu/h-x86_64-mingw32/bin/../lib/gcc/nios2-elf/5.3.0/../../../../../H-x86_64-mingw32/nios2-elf/lib/pg\libc.a(lib_a-__call_atexit.o)

.debug_frame    0x0000000000000000     0x3474
 *(.debug_frame)
 .debug_frame   0x0000000000000000      0x268 obj/default/Image.o
 .debug_frame   0x0000000000000268      0x174 obj/default/NN.o
 .debug_frame   0x00000000000003dc      0x228 obj/default/NNLayer.o
 .debug_frame   0x0000000000000604       0x34 obj/default/VGA.o
 .debug_frame   0x0000000000000638       0xa4 obj/default/main.o
 .debug_frame   0x00000000000006dc       0x34 c:/intelfpga_lite/18.1/nios2eds/bin/gnu/h-x86_64-mingw32/bin/../lib/gcc/nios2-elf/5.3.0/../../../../../H-x86_64-mingw32/nios2-elf/lib/pg\libstdc++.a(new_opv.o)
 .debug_frame   0x0000000000000710       0x34 c:/intelfpga_lite/18.1/nios2eds/bin/gnu/h-x86_64-mingw32/bin/../lib/gcc/nios2-elf/5.3.0/../../../../../H-x86_64-mingw32/nios2-elf/lib/pg\libstdc++.a(new_op.o)
 .debug_frame   0x0000000000000744       0x20 c:/intelfpga_lite/18.1/nios2eds/bin/gnu/h-x86_64-mingw32/bin/../lib/gcc/nios2-elf/5.3.0/../../../../../H-x86_64-mingw32/nios2-elf/lib/pg\libstdc++.a(del_opv.o)
 .debug_frame   0x0000000000000764       0x30 c:/intelfpga_lite/18.1/nios2eds/bin/gnu/h-x86_64-mingw32/bin/../lib/gcc/nios2-elf/5.3.0/../../../../../H-x86_64-mingw32/nios2-elf/lib/pg\libstdc++.a(new_handler.o)
 .debug_frame   0x0000000000000794      0x1c0 c:/intelfpga_lite/18.1/nios2eds/bin/gnu/h-x86_64-mingw32/bin/../lib/gcc/nios2-elf/5.3.0/../../../../../H-x86_64-mingw32/nios2-elf/lib/pg\libstdc++.a(eh_personality.o)
 .debug_frame   0x0000000000000954       0x50 c:/intelfpga_lite/18.1/nios2eds/bin/gnu/h-x86_64-mingw32/bin/../lib/gcc/nios2-elf/5.3.0/../../../../../H-x86_64-mingw32/nios2-elf/lib/pg\libstdc++.a(bad_alloc.o)
 .debug_frame   0x00000000000009a4       0x20 c:/intelfpga_lite/18.1/nios2eds/bin/gnu/h-x86_64-mingw32/bin/../lib/gcc/nios2-elf/5.3.0/../../../../../H-x86_64-mingw32/nios2-elf/lib/pg\libstdc++.a(del_op.o)
 .debug_frame   0x00000000000009c4       0x6c c:/intelfpga_lite/18.1/nios2eds/bin/gnu/h-x86_64-mingw32/bin/../lib/gcc/nios2-elf/5.3.0/../../../../../H-x86_64-mingw32/nios2-elf/lib/pg\libstdc++.a(eh_throw.o)
 .debug_frame   0x0000000000000a30       0x9c c:/intelfpga_lite/18.1/nios2eds/bin/gnu/h-x86_64-mingw32/bin/../lib/gcc/nios2-elf/5.3.0/../../../../../H-x86_64-mingw32/nios2-elf/lib/pg\libstdc++.a(eh_catch.o)
 .debug_frame   0x0000000000000acc      0x10c c:/intelfpga_lite/18.1/nios2eds/bin/gnu/h-x86_64-mingw32/bin/../lib/gcc/nios2-elf/5.3.0/../../../../../H-x86_64-mingw32/nios2-elf/lib/pg\libstdc++.a(class_type_info.o)
 .debug_frame   0x0000000000000bd8       0xb0 c:/intelfpga_lite/18.1/nios2eds/bin/gnu/h-x86_64-mingw32/bin/../lib/gcc/nios2-elf/5.3.0/../../../../../H-x86_64-mingw32/nios2-elf/lib/pg\libstdc++.a(eh_terminate.o)
 .debug_frame   0x0000000000000c88       0xc4 c:/intelfpga_lite/18.1/nios2eds/bin/gnu/h-x86_64-mingw32/bin/../lib/gcc/nios2-elf/5.3.0/../../../../../H-x86_64-mingw32/nios2-elf/lib/pg\libstdc++.a(eh_alloc.o)
 .debug_frame   0x0000000000000d4c       0x28 c:/intelfpga_lite/18.1/nios2eds/bin/gnu/h-x86_64-mingw32/bin/../lib/gcc/nios2-elf/5.3.0/../../../../../H-x86_64-mingw32/nios2-elf/lib/pg\libstdc++.a(eh_call.o)
 .debug_frame   0x0000000000000d74       0x30 c:/intelfpga_lite/18.1/nios2eds/bin/gnu/h-x86_64-mingw32/bin/../lib/gcc/nios2-elf/5.3.0/../../../../../H-x86_64-mingw32/nios2-elf/lib/pg\libstdc++.a(eh_globals.o)
 .debug_frame   0x0000000000000da4      0x114 c:/intelfpga_lite/18.1/nios2eds/bin/gnu/h-x86_64-mingw32/bin/../lib/gcc/nios2-elf/5.3.0/../../../../../H-x86_64-mingw32/nios2-elf/lib/pg\libstdc++.a(si_class_type_info.o)
 .debug_frame   0x0000000000000eb8       0xb0 c:/intelfpga_lite/18.1/nios2eds/bin/gnu/h-x86_64-mingw32/bin/../lib/gcc/nios2-elf/5.3.0/../../../../../H-x86_64-mingw32/nios2-elf/lib/pg\libstdc++.a(eh_exception.o)
 .debug_frame   0x0000000000000f68       0x6c c:/intelfpga_lite/18.1/nios2eds/bin/gnu/h-x86_64-mingw32/bin/../lib/gcc/nios2-elf/5.3.0/../../../../../H-x86_64-mingw32/nios2-elf/lib/pg\libstdc++.a(tinfo.o)
 .debug_frame   0x0000000000000fd4       0x40 c:/intelfpga_lite/18.1/nios2eds/bin/gnu/h-x86_64-mingw32/bin/../lib/gcc/nios2-elf/5.3.0/../../../../../H-x86_64-mingw32/nios2-elf/lib/pg\libstdc++.a(pure.o)
 .debug_frame   0x0000000000001014       0x38 c:/intelfpga_lite/18.1/nios2eds/bin/gnu/h-x86_64-mingw32/bin/../lib/gcc/nios2-elf/5.3.0/pg\libgcc.a(_fixunssfsi.o)
 .debug_frame   0x000000000000104c       0x50 c:/intelfpga_lite/18.1/nios2eds/bin/gnu/h-x86_64-mingw32/bin/../lib/gcc/nios2-elf/5.3.0/pg\libgcc.a(lib2-divmod.o)
 .debug_frame   0x000000000000109c       0x3c c:/intelfpga_lite/18.1/nios2eds/bin/gnu/h-x86_64-mingw32/bin/../lib/gcc/nios2-elf/5.3.0/pg\libgcc.a(addsf3.o)
 .debug_frame   0x00000000000010d8       0x54 c:/intelfpga_lite/18.1/nios2eds/bin/gnu/h-x86_64-mingw32/bin/../lib/gcc/nios2-elf/5.3.0/pg\libgcc.a(divsf3.o)
 .debug_frame   0x000000000000112c       0x20 c:/intelfpga_lite/18.1/nios2eds/bin/gnu/h-x86_64-mingw32/bin/../lib/gcc/nios2-elf/5.3.0/pg\libgcc.a(eqsf2.o)
 .debug_frame   0x000000000000114c       0x20 c:/intelfpga_lite/18.1/nios2eds/bin/gnu/h-x86_64-mingw32/bin/../lib/gcc/nios2-elf/5.3.0/pg\libgcc.a(gesf2.o)
 .debug_frame   0x000000000000116c       0x54 c:/intelfpga_lite/18.1/nios2eds/bin/gnu/h-x86_64-mingw32/bin/../lib/gcc/nios2-elf/5.3.0/pg\libgcc.a(mulsf3.o)
 .debug_frame   0x00000000000011c0       0x3c c:/intelfpga_lite/18.1/nios2eds/bin/gnu/h-x86_64-mingw32/bin/../lib/gcc/nios2-elf/5.3.0/pg\libgcc.a(subsf3.o)
 .debug_frame   0x00000000000011fc       0x20 c:/intelfpga_lite/18.1/nios2eds/bin/gnu/h-x86_64-mingw32/bin/../lib/gcc/nios2-elf/5.3.0/pg\libgcc.a(fixsfsi.o)
 .debug_frame   0x000000000000121c       0x38 c:/intelfpga_lite/18.1/nios2eds/bin/gnu/h-x86_64-mingw32/bin/../lib/gcc/nios2-elf/5.3.0/pg\libgcc.a(floatsisf.o)
 .debug_frame   0x0000000000001254       0x34 c:/intelfpga_lite/18.1/nios2eds/bin/gnu/h-x86_64-mingw32/bin/../lib/gcc/nios2-elf/5.3.0/pg\libgcc.a(floatunsisf.o)
 .debug_frame   0x0000000000001288       0x54 c:/intelfpga_lite/18.1/nios2eds/bin/gnu/h-x86_64-mingw32/bin/../lib/gcc/nios2-elf/5.3.0/pg\libgcc.a(divdf3.o)
 .debug_frame   0x00000000000012dc       0x38 c:/intelfpga_lite/18.1/nios2eds/bin/gnu/h-x86_64-mingw32/bin/../lib/gcc/nios2-elf/5.3.0/pg\libgcc.a(floatsidf.o)
 .debug_frame   0x0000000000001314       0x38 c:/intelfpga_lite/18.1/nios2eds/bin/gnu/h-x86_64-mingw32/bin/../lib/gcc/nios2-elf/5.3.0/pg\libgcc.a(extendsfdf2.o)
 .debug_frame   0x000000000000134c       0x20 c:/intelfpga_lite/18.1/nios2eds/bin/gnu/h-x86_64-mingw32/bin/../lib/gcc/nios2-elf/5.3.0/pg\libgcc.a(truncdfsf2.o)
 .debug_frame   0x000000000000136c      0x230 c:/intelfpga_lite/18.1/nios2eds/bin/gnu/h-x86_64-mingw32/bin/../lib/gcc/nios2-elf/5.3.0/pg\libgcc.a(unwind-sjlj.o)
 .debug_frame   0x000000000000159c       0x20 c:/intelfpga_lite/18.1/nios2eds/bin/gnu/h-x86_64-mingw32/bin/../lib/gcc/nios2-elf/5.3.0/pg\libgcc.a(_clzsi2.o)
 .debug_frame   0x00000000000015bc       0x28 c:/intelfpga_lite/18.1/nios2eds/bin/gnu/h-x86_64-mingw32/bin/../lib/gcc/nios2-elf/5.3.0/../../../../../H-x86_64-mingw32/nios2-elf/lib/pg\libc.a(lib_a-abort.o)
 .debug_frame   0x00000000000015e4       0x30 c:/intelfpga_lite/18.1/nios2eds/bin/gnu/h-x86_64-mingw32/bin/../lib/gcc/nios2-elf/5.3.0/../../../../../H-x86_64-mingw32/nios2-elf/lib/pg\libc.a(lib_a-malloc.o)
 .debug_frame   0x0000000000001614       0x54 c:/intelfpga_lite/18.1/nios2eds/bin/gnu/h-x86_64-mingw32/bin/../lib/gcc/nios2-elf/5.3.0/../../../../../H-x86_64-mingw32/nios2-elf/lib/pg\libc.a(lib_a-mallocr.o)
 .debug_frame   0x0000000000001668       0x20 c:/intelfpga_lite/18.1/nios2eds/bin/gnu/h-x86_64-mingw32/bin/../lib/gcc/nios2-elf/5.3.0/../../../../../H-x86_64-mingw32/nios2-elf/lib/pg\libc.a(lib_a-memset.o)
 .debug_frame   0x0000000000001688       0x48 c:/intelfpga_lite/18.1/nios2eds/bin/gnu/h-x86_64-mingw32/bin/../lib/gcc/nios2-elf/5.3.0/../../../../../H-x86_64-mingw32/nios2-elf/lib/pg\libc.a(lib_a-printf.o)
 .debug_frame   0x00000000000016d0       0x30 c:/intelfpga_lite/18.1/nios2eds/bin/gnu/h-x86_64-mingw32/bin/../lib/gcc/nios2-elf/5.3.0/../../../../../H-x86_64-mingw32/nios2-elf/lib/pg\libc.a(lib_a-putchar.o)
 .debug_frame   0x0000000000001700       0x48 c:/intelfpga_lite/18.1/nios2eds/bin/gnu/h-x86_64-mingw32/bin/../lib/gcc/nios2-elf/5.3.0/../../../../../H-x86_64-mingw32/nios2-elf/lib/pg\libc.a(lib_a-puts.o)
 .debug_frame   0x0000000000001748       0x40 c:/intelfpga_lite/18.1/nios2eds/bin/gnu/h-x86_64-mingw32/bin/../lib/gcc/nios2-elf/5.3.0/../../../../../H-x86_64-mingw32/nios2-elf/lib/pg\libc.a(lib_a-rand.o)
 .debug_frame   0x0000000000001788       0x38 c:/intelfpga_lite/18.1/nios2eds/bin/gnu/h-x86_64-mingw32/bin/../lib/gcc/nios2-elf/5.3.0/../../../../../H-x86_64-mingw32/nios2-elf/lib/pg\libc.a(lib_a-sbrkr.o)
 .debug_frame   0x00000000000017c0      0x110 c:/intelfpga_lite/18.1/nios2eds/bin/gnu/h-x86_64-mingw32/bin/../lib/gcc/nios2-elf/5.3.0/../../../../../H-x86_64-mingw32/nios2-elf/lib/pg\libc.a(lib_a-signal.o)
 .debug_frame   0x00000000000018d0       0x48 c:/intelfpga_lite/18.1/nios2eds/bin/gnu/h-x86_64-mingw32/bin/../lib/gcc/nios2-elf/5.3.0/../../../../../H-x86_64-mingw32/nios2-elf/lib/pg\libc.a(lib_a-signalr.o)
 .debug_frame   0x0000000000001918       0x20 c:/intelfpga_lite/18.1/nios2eds/bin/gnu/h-x86_64-mingw32/bin/../lib/gcc/nios2-elf/5.3.0/../../../../../H-x86_64-mingw32/nios2-elf/lib/pg\libc.a(lib_a-strcmp.o)
 .debug_frame   0x0000000000001938       0x20 c:/intelfpga_lite/18.1/nios2eds/bin/gnu/h-x86_64-mingw32/bin/../lib/gcc/nios2-elf/5.3.0/../../../../../H-x86_64-mingw32/nios2-elf/lib/pg\libc.a(lib_a-strlen.o)
 .debug_frame   0x0000000000001958       0x94 c:/intelfpga_lite/18.1/nios2eds/bin/gnu/h-x86_64-mingw32/bin/../lib/gcc/nios2-elf/5.3.0/../../../../../H-x86_64-mingw32/nios2-elf/lib/pg\libc.a(lib_a-vfprintf.o)
 .debug_frame   0x00000000000019ec       0x38 c:/intelfpga_lite/18.1/nios2eds/bin/gnu/h-x86_64-mingw32/bin/../lib/gcc/nios2-elf/5.3.0/../../../../../H-x86_64-mingw32/nios2-elf/lib/pg\libc.a(lib_a-wsetup.o)
 .debug_frame   0x0000000000001a24       0x94 c:/intelfpga_lite/18.1/nios2eds/bin/gnu/h-x86_64-mingw32/bin/../lib/gcc/nios2-elf/5.3.0/../../../../../H-x86_64-mingw32/nios2-elf/lib/pg\libc.a(lib_a-dtoa.o)
 .debug_frame   0x0000000000001ab8       0x7c c:/intelfpga_lite/18.1/nios2eds/bin/gnu/h-x86_64-mingw32/bin/../lib/gcc/nios2-elf/5.3.0/../../../../../H-x86_64-mingw32/nios2-elf/lib/pg\libc.a(lib_a-fflush.o)
 .debug_frame   0x0000000000001b34      0x158 c:/intelfpga_lite/18.1/nios2eds/bin/gnu/h-x86_64-mingw32/bin/../lib/gcc/nios2-elf/5.3.0/../../../../../H-x86_64-mingw32/nios2-elf/lib/pg\libc.a(lib_a-findfp.o)
 .debug_frame   0x0000000000001c8c       0x70 c:/intelfpga_lite/18.1/nios2eds/bin/gnu/h-x86_64-mingw32/bin/../lib/gcc/nios2-elf/5.3.0/../../../../../H-x86_64-mingw32/nios2-elf/lib/pg\libc.a(lib_a-freer.o)
 .debug_frame   0x0000000000001cfc       0x78 c:/intelfpga_lite/18.1/nios2eds/bin/gnu/h-x86_64-mingw32/bin/../lib/gcc/nios2-elf/5.3.0/../../../../../H-x86_64-mingw32/nios2-elf/lib/pg\libc.a(lib_a-fvwrite.o)
 .debug_frame   0x0000000000001d74       0x90 c:/intelfpga_lite/18.1/nios2eds/bin/gnu/h-x86_64-mingw32/bin/../lib/gcc/nios2-elf/5.3.0/../../../../../H-x86_64-mingw32/nios2-elf/lib/pg\libc.a(lib_a-fwalk.o)
 .debug_frame   0x0000000000001e04       0xa8 c:/intelfpga_lite/18.1/nios2eds/bin/gnu/h-x86_64-mingw32/bin/../lib/gcc/nios2-elf/5.3.0/../../../../../H-x86_64-mingw32/nios2-elf/lib/pg\libc.a(lib_a-locale.o)
 .debug_frame   0x0000000000001eac       0x4c c:/intelfpga_lite/18.1/nios2eds/bin/gnu/h-x86_64-mingw32/bin/../lib/gcc/nios2-elf/5.3.0/../../../../../H-x86_64-mingw32/nios2-elf/lib/pg\libc.a(lib_a-makebuf.o)
 .debug_frame   0x0000000000001ef8       0x20 c:/intelfpga_lite/18.1/nios2eds/bin/gnu/h-x86_64-mingw32/bin/../lib/gcc/nios2-elf/5.3.0/../../../../../H-x86_64-mingw32/nios2-elf/lib/pg\libc.a(lib_a-memchr.o)
 .debug_frame   0x0000000000001f18       0x38 c:/intelfpga_lite/18.1/nios2eds/bin/gnu/h-x86_64-mingw32/bin/../lib/gcc/nios2-elf/5.3.0/../../../../../H-x86_64-mingw32/nios2-elf/lib/pg\libc.a(lib_a-memcpy.o)
 .debug_frame   0x0000000000001f50       0x20 c:/intelfpga_lite/18.1/nios2eds/bin/gnu/h-x86_64-mingw32/bin/../lib/gcc/nios2-elf/5.3.0/../../../../../H-x86_64-mingw32/nios2-elf/lib/pg\libc.a(lib_a-memmove.o)
 .debug_frame   0x0000000000001f70      0x2d0 c:/intelfpga_lite/18.1/nios2eds/bin/gnu/h-x86_64-mingw32/bin/../lib/gcc/nios2-elf/5.3.0/../../../../../H-x86_64-mingw32/nios2-elf/lib/pg\libc.a(lib_a-mprec.o)
 .debug_frame   0x0000000000002240       0x70 c:/intelfpga_lite/18.1/nios2eds/bin/gnu/h-x86_64-mingw32/bin/../lib/gcc/nios2-elf/5.3.0/../../../../../H-x86_64-mingw32/nios2-elf/lib/pg\libc.a(lib_a-putc.o)
 .debug_frame   0x00000000000022b0       0x70 c:/intelfpga_lite/18.1/nios2eds/bin/gnu/h-x86_64-mingw32/bin/../lib/gcc/nios2-elf/5.3.0/../../../../../H-x86_64-mingw32/nios2-elf/lib/pg\libc.a(lib_a-reallocr.o)
 .debug_frame   0x0000000000002320       0x20 c:/intelfpga_lite/18.1/nios2eds/bin/gnu/h-x86_64-mingw32/bin/../lib/gcc/nios2-elf/5.3.0/../../../../../H-x86_64-mingw32/nios2-elf/lib/pg\libc.a(lib_a-s_fpclassify.o)
 .debug_frame   0x0000000000002340       0xb4 c:/intelfpga_lite/18.1/nios2eds/bin/gnu/h-x86_64-mingw32/bin/../lib/gcc/nios2-elf/5.3.0/../../../../../H-x86_64-mingw32/nios2-elf/lib/pg\libc.a(lib_a-stdio.o)
 .debug_frame   0x00000000000023f4       0xe8 c:/intelfpga_lite/18.1/nios2eds/bin/gnu/h-x86_64-mingw32/bin/../lib/gcc/nios2-elf/5.3.0/../../../../../H-x86_64-mingw32/nios2-elf/lib/pg\libc.a(lib_a-vfiprintf.o)
 .debug_frame   0x00000000000024dc       0x50 c:/intelfpga_lite/18.1/nios2eds/bin/gnu/h-x86_64-mingw32/bin/../lib/gcc/nios2-elf/5.3.0/../../../../../H-x86_64-mingw32/nios2-elf/lib/pg\libc.a(lib_a-wbuf.o)
 .debug_frame   0x000000000000252c       0x38 c:/intelfpga_lite/18.1/nios2eds/bin/gnu/h-x86_64-mingw32/bin/../lib/gcc/nios2-elf/5.3.0/../../../../../H-x86_64-mingw32/nios2-elf/lib/pg\libc.a(lib_a-writer.o)
 .debug_frame   0x0000000000002564       0x38 c:/intelfpga_lite/18.1/nios2eds/bin/gnu/h-x86_64-mingw32/bin/../lib/gcc/nios2-elf/5.3.0/../../../../../H-x86_64-mingw32/nios2-elf/lib/pg\libc.a(closer.o)
 .debug_frame   0x000000000000259c       0x40 c:/intelfpga_lite/18.1/nios2eds/bin/gnu/h-x86_64-mingw32/bin/../lib/gcc/nios2-elf/5.3.0/../../../../../H-x86_64-mingw32/nios2-elf/lib/pg\libc.a(lib_a-callocr.o)
 .debug_frame   0x00000000000025dc       0x54 c:/intelfpga_lite/18.1/nios2eds/bin/gnu/h-x86_64-mingw32/bin/../lib/gcc/nios2-elf/5.3.0/../../../../../H-x86_64-mingw32/nios2-elf/lib/pg\libc.a(lib_a-fclose.o)
 .debug_frame   0x0000000000002630       0x80 c:/intelfpga_lite/18.1/nios2eds/bin/gnu/h-x86_64-mingw32/bin/../lib/gcc/nios2-elf/5.3.0/../../../../../H-x86_64-mingw32/nios2-elf/lib/pg\libc.a(lib_a-fputwc.o)
 .debug_frame   0x00000000000026b0       0x38 c:/intelfpga_lite/18.1/nios2eds/bin/gnu/h-x86_64-mingw32/bin/../lib/gcc/nios2-elf/5.3.0/../../../../../H-x86_64-mingw32/nios2-elf/lib/pg\libc.a(lib_a-fstatr.o)
 .debug_frame   0x00000000000026e8       0x38 c:/intelfpga_lite/18.1/nios2eds/bin/gnu/h-x86_64-mingw32/bin/../lib/gcc/nios2-elf/5.3.0/../../../../../H-x86_64-mingw32/nios2-elf/lib/pg\libc.a(lib_a-isattyr.o)
 .debug_frame   0x0000000000002720       0x38 c:/intelfpga_lite/18.1/nios2eds/bin/gnu/h-x86_64-mingw32/bin/../lib/gcc/nios2-elf/5.3.0/../../../../../H-x86_64-mingw32/nios2-elf/lib/pg\libc.a(lib_a-lseekr.o)
 .debug_frame   0x0000000000002758       0x38 c:/intelfpga_lite/18.1/nios2eds/bin/gnu/h-x86_64-mingw32/bin/../lib/gcc/nios2-elf/5.3.0/../../../../../H-x86_64-mingw32/nios2-elf/lib/pg\libc.a(lib_a-readr.o)
 .debug_frame   0x0000000000002790       0x70 c:/intelfpga_lite/18.1/nios2eds/bin/gnu/h-x86_64-mingw32/bin/../lib/gcc/nios2-elf/5.3.0/../../../../../H-x86_64-mingw32/nios2-elf/lib/pg\libc.a(lib_a-wcrtomb.o)
 .debug_frame   0x0000000000002800       0x44 c:/intelfpga_lite/18.1/nios2eds/bin/gnu/h-x86_64-mingw32/bin/../lib/gcc/nios2-elf/5.3.0/../../../../../H-x86_64-mingw32/nios2-elf/lib/pg\libc.a(lib_a-wctomb_r.o)
 .debug_frame   0x0000000000002844       0x20 c:/intelfpga_lite/18.1/nios2eds/bin/gnu/h-x86_64-mingw32/bin/../lib/gcc/nios2-elf/5.3.0/pg\libgcc.a(_muldi3.o)
 .debug_frame   0x0000000000002864       0x54 c:/intelfpga_lite/18.1/nios2eds/bin/gnu/h-x86_64-mingw32/bin/../lib/gcc/nios2-elf/5.3.0/pg\libgcc.a(_udivdi3.o)
 .debug_frame   0x00000000000028b8       0x54 c:/intelfpga_lite/18.1/nios2eds/bin/gnu/h-x86_64-mingw32/bin/../lib/gcc/nios2-elf/5.3.0/pg\libgcc.a(_umoddi3.o)
 .debug_frame   0x000000000000290c       0x40 c:/intelfpga_lite/18.1/nios2eds/bin/gnu/h-x86_64-mingw32/bin/../lib/gcc/nios2-elf/5.3.0/pg\libgcc.a(adddf3.o)
 .debug_frame   0x000000000000294c       0x20 c:/intelfpga_lite/18.1/nios2eds/bin/gnu/h-x86_64-mingw32/bin/../lib/gcc/nios2-elf/5.3.0/pg\libgcc.a(eqdf2.o)
 .debug_frame   0x000000000000296c       0x20 c:/intelfpga_lite/18.1/nios2eds/bin/gnu/h-x86_64-mingw32/bin/../lib/gcc/nios2-elf/5.3.0/pg\libgcc.a(gedf2.o)
 .debug_frame   0x000000000000298c       0x20 c:/intelfpga_lite/18.1/nios2eds/bin/gnu/h-x86_64-mingw32/bin/../lib/gcc/nios2-elf/5.3.0/pg\libgcc.a(ledf2.o)
 .debug_frame   0x00000000000029ac       0x54 c:/intelfpga_lite/18.1/nios2eds/bin/gnu/h-x86_64-mingw32/bin/../lib/gcc/nios2-elf/5.3.0/pg\libgcc.a(muldf3.o)
 .debug_frame   0x0000000000002a00       0x40 c:/intelfpga_lite/18.1/nios2eds/bin/gnu/h-x86_64-mingw32/bin/../lib/gcc/nios2-elf/5.3.0/pg\libgcc.a(subdf3.o)
 .debug_frame   0x0000000000002a40       0x20 c:/intelfpga_lite/18.1/nios2eds/bin/gnu/h-x86_64-mingw32/bin/../lib/gcc/nios2-elf/5.3.0/pg\libgcc.a(fixdfsi.o)
 .debug_frame   0x0000000000002a60       0x34 c:/intelfpga_lite/18.1/nios2eds/bin/gnu/h-x86_64-mingw32/bin/../lib/gcc/nios2-elf/5.3.0/pg\libgcc.a(floatunsidf.o)
 .debug_frame   0x0000000000002a94       0x38 ../LUTBrain_NIOS_bsp/\libhal_bsp.a(alt_close.o)
 .debug_frame   0x0000000000002acc       0x20 ../LUTBrain_NIOS_bsp/\libhal_bsp.a(alt_dev.o)
 .debug_frame   0x0000000000002aec       0x20 ../LUTBrain_NIOS_bsp/\libhal_bsp.a(alt_exit.o)
 .debug_frame   0x0000000000002b0c       0x2c ../LUTBrain_NIOS_bsp/\libhal_bsp.a(alt_fstat.o)
 .debug_frame   0x0000000000002b38       0x20 ../LUTBrain_NIOS_bsp/\libhal_bsp.a(alt_getpid.o)
 .debug_frame   0x0000000000002b58       0x5c ../LUTBrain_NIOS_bsp/\libhal_bsp.a(alt_gmon.o)
 .debug_frame   0x0000000000002bb4       0x40 ../LUTBrain_NIOS_bsp/\libhal_bsp.a(alt_isatty.o)
 .debug_frame   0x0000000000002bf4       0x34 ../LUTBrain_NIOS_bsp/\libhal_bsp.a(alt_kill.o)
 .debug_frame   0x0000000000002c28       0x2c ../LUTBrain_NIOS_bsp/\libhal_bsp.a(alt_load.o)
 .debug_frame   0x0000000000002c54       0x34 ../LUTBrain_NIOS_bsp/\libhal_bsp.a(alt_lseek.o)
 .debug_frame   0x0000000000002c88       0x28 ../LUTBrain_NIOS_bsp/\libhal_bsp.a(alt_main.o)
 .debug_frame   0x0000000000002cb0       0x30 ../LUTBrain_NIOS_bsp/\libhal_bsp.a(alt_malloc_lock.o)
 .debug_frame   0x0000000000002ce0       0x40 ../LUTBrain_NIOS_bsp/\libhal_bsp.a(alt_mcount.o)
 .debug_frame   0x0000000000002d20       0x34 ../LUTBrain_NIOS_bsp/\libhal_bsp.a(alt_read.o)
 .debug_frame   0x0000000000002d54       0x20 ../LUTBrain_NIOS_bsp/\libhal_bsp.a(alt_release_fd.o)
 .debug_frame   0x0000000000002d74       0x20 ../LUTBrain_NIOS_bsp/\libhal_bsp.a(alt_sbrk.o)
 .debug_frame   0x0000000000002d94       0x54 ../LUTBrain_NIOS_bsp/\libhal_bsp.a(alt_tick.o)
 .debug_frame   0x0000000000002de8       0x34 ../LUTBrain_NIOS_bsp/\libhal_bsp.a(alt_write.o)
 .debug_frame   0x0000000000002e1c       0x4c ../LUTBrain_NIOS_bsp/\libhal_bsp.a(alt_sys_init.o)
 .debug_frame   0x0000000000002e68       0x50 ../LUTBrain_NIOS_bsp/\libhal_bsp.a(altera_avalon_jtag_uart_fd.o)
 .debug_frame   0x0000000000002eb8       0x60 ../LUTBrain_NIOS_bsp/\libhal_bsp.a(altera_avalon_jtag_uart_init.o)
 .debug_frame   0x0000000000002f18       0x20 ../LUTBrain_NIOS_bsp/\libhal_bsp.a(altera_avalon_jtag_uart_ioctl.o)
 .debug_frame   0x0000000000002f38       0x60 ../LUTBrain_NIOS_bsp/\libhal_bsp.a(altera_avalon_jtag_uart_read.o)
 .debug_frame   0x0000000000002f98       0x54 ../LUTBrain_NIOS_bsp/\libhal_bsp.a(altera_avalon_jtag_uart_write.o)
 .debug_frame   0x0000000000002fec       0x4c ../LUTBrain_NIOS_bsp/\libhal_bsp.a(altera_avalon_timer_sc.o)
 .debug_frame   0x0000000000003038       0x20 ../LUTBrain_NIOS_bsp/\libhal_bsp.a(alt_alarm_start.o)
 .debug_frame   0x0000000000003058       0x20 ../LUTBrain_NIOS_bsp/\libhal_bsp.a(alt_dcache_flush_all.o)
 .debug_frame   0x0000000000003078       0x2c ../LUTBrain_NIOS_bsp/\libhal_bsp.a(alt_dev_llist_insert.o)
 .debug_frame   0x00000000000030a4       0x38 ../LUTBrain_NIOS_bsp/\libhal_bsp.a(alt_do_ctors.o)
 .debug_frame   0x00000000000030dc       0x38 ../LUTBrain_NIOS_bsp/\libhal_bsp.a(alt_do_dtors.o)
 .debug_frame   0x0000000000003114       0x20 ../LUTBrain_NIOS_bsp/\libhal_bsp.a(alt_icache_flush_all.o)
 .debug_frame   0x0000000000003134       0x50 ../LUTBrain_NIOS_bsp/\libhal_bsp.a(alt_iic.o)
 .debug_frame   0x0000000000003184       0x38 ../LUTBrain_NIOS_bsp/\libhal_bsp.a(alt_iic_isr_register.o)
 .debug_frame   0x00000000000031bc       0x40 ../LUTBrain_NIOS_bsp/\libhal_bsp.a(alt_io_redirect.o)
 .debug_frame   0x00000000000031fc       0x30 ../LUTBrain_NIOS_bsp/\libhal_bsp.a(alt_irq_handler.o)
 .debug_frame   0x000000000000322c       0x44 ../LUTBrain_NIOS_bsp/\libhal_bsp.a(alt_open.o)
 .debug_frame   0x0000000000003270       0x20 ../LUTBrain_NIOS_bsp/\libhal_bsp.a(altera_nios2_gen2_irq.o)
 .debug_frame   0x0000000000003290       0x3c ../LUTBrain_NIOS_bsp/\libhal_bsp.a(alt_find_dev.o)
 .debug_frame   0x00000000000032cc       0x44 ../LUTBrain_NIOS_bsp/\libhal_bsp.a(alt_find_file.o)
 .debug_frame   0x0000000000003310       0x20 ../LUTBrain_NIOS_bsp/\libhal_bsp.a(alt_get_fd.o)
 .debug_frame   0x0000000000003330       0x20 ../LUTBrain_NIOS_bsp/\libhal_bsp.a(alt_icache_flush.o)
 .debug_frame   0x0000000000003350       0x30 ../LUTBrain_NIOS_bsp/\libhal_bsp.a(alt_instruction_exception_entry.o)
 .debug_frame   0x0000000000003380       0x20 c:/intelfpga_lite/18.1/nios2eds/bin/gnu/h-x86_64-mingw32/bin/../lib/gcc/nios2-elf/5.3.0/../../../../../H-x86_64-mingw32/nios2-elf/lib/pg\libc.a(lib_a-atexit.o)
 .debug_frame   0x00000000000033a0       0x28 c:/intelfpga_lite/18.1/nios2eds/bin/gnu/h-x86_64-mingw32/bin/../lib/gcc/nios2-elf/5.3.0/../../../../../H-x86_64-mingw32/nios2-elf/lib/pg\libc.a(lib_a-exit.o)
 .debug_frame   0x00000000000033c8       0x20 c:/intelfpga_lite/18.1/nios2eds/bin/gnu/h-x86_64-mingw32/bin/../lib/gcc/nios2-elf/5.3.0/../../../../../H-x86_64-mingw32/nios2-elf/lib/pg\libc.a(lib_a-memcmp.o)
 .debug_frame   0x00000000000033e8       0x38 c:/intelfpga_lite/18.1/nios2eds/bin/gnu/h-x86_64-mingw32/bin/../lib/gcc/nios2-elf/5.3.0/../../../../../H-x86_64-mingw32/nios2-elf/lib/pg\libc.a(lib_a-__atexit.o)
 .debug_frame   0x0000000000003420       0x54 c:/intelfpga_lite/18.1/nios2eds/bin/gnu/h-x86_64-mingw32/bin/../lib/gcc/nios2-elf/5.3.0/../../../../../H-x86_64-mingw32/nios2-elf/lib/pg\libc.a(lib_a-__call_atexit.o)

.debug_str      0x0000000000000000     0x7aca
 *(.debug_str)
 .debug_str     0x0000000000000000      0x458 obj/default/Image.o
                                        0x4d0 (size before relaxing)
 .debug_str     0x0000000000000458      0x12e obj/default/NN.o
                                        0x293 (size before relaxing)
 .debug_str     0x0000000000000586      0x257 obj/default/NNLayer.o
                                        0x3ff (size before relaxing)
 .debug_str     0x00000000000007dd        0x8 obj/default/VGA.o
                                        0x207 (size before relaxing)
 .debug_str     0x00000000000007e5       0x67 obj/default/main.o
                                        0x46b (size before relaxing)
 .debug_str     0x000000000000084c      0x1ba c:/intelfpga_lite/18.1/nios2eds/bin/gnu/h-x86_64-mingw32/bin/../lib/gcc/nios2-elf/5.3.0/../../../../../H-x86_64-mingw32/nios2-elf/lib/pg\libstdc++.a(new_opv.o)
                                        0x1ce (size before relaxing)
 .debug_str     0x0000000000000a06      0x1c4 c:/intelfpga_lite/18.1/nios2eds/bin/gnu/h-x86_64-mingw32/bin/../lib/gcc/nios2-elf/5.3.0/../../../../../H-x86_64-mingw32/nios2-elf/lib/pg\libstdc++.a(new_op.o)
                                        0x38a (size before relaxing)
 .debug_str     0x0000000000000bca       0xe6 c:/intelfpga_lite/18.1/nios2eds/bin/gnu/h-x86_64-mingw32/bin/../lib/gcc/nios2-elf/5.3.0/../../../../../H-x86_64-mingw32/nios2-elf/lib/pg\libstdc++.a(del_opv.o)
                                        0x180 (size before relaxing)
 .debug_str     0x0000000000000cb0      0x366 c:/intelfpga_lite/18.1/nios2eds/bin/gnu/h-x86_64-mingw32/bin/../lib/gcc/nios2-elf/5.3.0/../../../../../H-x86_64-mingw32/nios2-elf/lib/pg\libstdc++.a(new_handler.o)
                                        0x518 (size before relaxing)
 .debug_str     0x0000000000001016      0xa5a c:/intelfpga_lite/18.1/nios2eds/bin/gnu/h-x86_64-mingw32/bin/../lib/gcc/nios2-elf/5.3.0/../../../../../H-x86_64-mingw32/nios2-elf/lib/pg\libstdc++.a(eh_personality.o)
                                        0xdfc (size before relaxing)
 .debug_str     0x0000000000001a70      0x11d c:/intelfpga_lite/18.1/nios2eds/bin/gnu/h-x86_64-mingw32/bin/../lib/gcc/nios2-elf/5.3.0/../../../../../H-x86_64-mingw32/nios2-elf/lib/pg\libstdc++.a(bad_alloc.o)
                                        0x20a (size before relaxing)
 .debug_str     0x0000000000001b8d       0xb3 c:/intelfpga_lite/18.1/nios2eds/bin/gnu/h-x86_64-mingw32/bin/../lib/gcc/nios2-elf/5.3.0/../../../../../H-x86_64-mingw32/nios2-elf/lib/pg\libstdc++.a(del_op.o)
                                        0x2be (size before relaxing)
 .debug_str     0x0000000000001c40      0x24b c:/intelfpga_lite/18.1/nios2eds/bin/gnu/h-x86_64-mingw32/bin/../lib/gcc/nios2-elf/5.3.0/../../../../../H-x86_64-mingw32/nios2-elf/lib/pg\libstdc++.a(eh_throw.o)
                                        0x703 (size before relaxing)
 .debug_str     0x0000000000001e8b      0x145 c:/intelfpga_lite/18.1/nios2eds/bin/gnu/h-x86_64-mingw32/bin/../lib/gcc/nios2-elf/5.3.0/../../../../../H-x86_64-mingw32/nios2-elf/lib/pg\libstdc++.a(eh_catch.o)
                                        0x6e8 (size before relaxing)
 .debug_str     0x0000000000001fd0      0x834 c:/intelfpga_lite/18.1/nios2eds/bin/gnu/h-x86_64-mingw32/bin/../lib/gcc/nios2-elf/5.3.0/../../../../../H-x86_64-mingw32/nios2-elf/lib/pg\libstdc++.a(class_type_info.o)
                                        0x95d (size before relaxing)
 .debug_str     0x0000000000002804      0x194 c:/intelfpga_lite/18.1/nios2eds/bin/gnu/h-x86_64-mingw32/bin/../lib/gcc/nios2-elf/5.3.0/../../../../../H-x86_64-mingw32/nios2-elf/lib/pg\libstdc++.a(eh_terminate.o)
                                        0x830 (size before relaxing)
 .debug_str     0x0000000000002998       0xc5 c:/intelfpga_lite/18.1/nios2eds/bin/gnu/h-x86_64-mingw32/bin/../lib/gcc/nios2-elf/5.3.0/../../../../../H-x86_64-mingw32/nios2-elf/lib/pg\libstdc++.a(eh_unex_handler.o)
                                        0x261 (size before relaxing)
 .debug_str     0x0000000000002a5d      0x1c1 c:/intelfpga_lite/18.1/nios2eds/bin/gnu/h-x86_64-mingw32/bin/../lib/gcc/nios2-elf/5.3.0/../../../../../H-x86_64-mingw32/nios2-elf/lib/pg\libstdc++.a(eh_alloc.o)
                                        0x9a8 (size before relaxing)
 .debug_str     0x0000000000002c1e       0xb5 c:/intelfpga_lite/18.1/nios2eds/bin/gnu/h-x86_64-mingw32/bin/../lib/gcc/nios2-elf/5.3.0/../../../../../H-x86_64-mingw32/nios2-elf/lib/pg\libstdc++.a(eh_call.o)
                                        0x618 (size before relaxing)
 .debug_str     0x0000000000002cd3       0xbb c:/intelfpga_lite/18.1/nios2eds/bin/gnu/h-x86_64-mingw32/bin/../lib/gcc/nios2-elf/5.3.0/../../../../../H-x86_64-mingw32/nios2-elf/lib/pg\libstdc++.a(eh_globals.o)
                                        0x5be (size before relaxing)
 .debug_str     0x0000000000002d8e      0x363 c:/intelfpga_lite/18.1/nios2eds/bin/gnu/h-x86_64-mingw32/bin/../lib/gcc/nios2-elf/5.3.0/../../../../../H-x86_64-mingw32/nios2-elf/lib/pg\libstdc++.a(si_class_type_info.o)
                                        0x81b (size before relaxing)
 .debug_str     0x00000000000030f1      0x36f c:/intelfpga_lite/18.1/nios2eds/bin/gnu/h-x86_64-mingw32/bin/../lib/gcc/nios2-elf/5.3.0/../../../../../H-x86_64-mingw32/nios2-elf/lib/pg\libstdc++.a(eh_exception.o)
                                        0x4d8 (size before relaxing)
 .debug_str     0x0000000000003460       0xc5 c:/intelfpga_lite/18.1/nios2eds/bin/gnu/h-x86_64-mingw32/bin/../lib/gcc/nios2-elf/5.3.0/../../../../../H-x86_64-mingw32/nios2-elf/lib/pg\libstdc++.a(eh_term_handler.o)
                                        0x25e (size before relaxing)
 .debug_str     0x0000000000003525      0x27c c:/intelfpga_lite/18.1/nios2eds/bin/gnu/h-x86_64-mingw32/bin/../lib/gcc/nios2-elf/5.3.0/../../../../../H-x86_64-mingw32/nios2-elf/lib/pg\libstdc++.a(tinfo.o)
                                        0x488 (size before relaxing)
 .debug_str     0x00000000000037a1       0xd8 c:/intelfpga_lite/18.1/nios2eds/bin/gnu/h-x86_64-mingw32/bin/../lib/gcc/nios2-elf/5.3.0/../../../../../H-x86_64-mingw32/nios2-elf/lib/pg\libstdc++.a(pure.o)
                                        0x28a (size before relaxing)
 .debug_str     0x0000000000003879      0x151 c:/intelfpga_lite/18.1/nios2eds/bin/gnu/h-x86_64-mingw32/bin/../lib/gcc/nios2-elf/5.3.0/pg\libgcc.a(_fixunssfsi.o)
                                        0x1da (size before relaxing)
 .debug_str     0x00000000000039ca       0x7f c:/intelfpga_lite/18.1/nios2eds/bin/gnu/h-x86_64-mingw32/bin/../lib/gcc/nios2-elf/5.3.0/pg\libgcc.a(lib2-divmod.o)
                                        0x1c1 (size before relaxing)
 .debug_str     0x0000000000003a49       0xed c:/intelfpga_lite/18.1/nios2eds/bin/gnu/h-x86_64-mingw32/bin/../lib/gcc/nios2-elf/5.3.0/pg\libgcc.a(addsf3.o)
                                        0x272 (size before relaxing)
 .debug_str     0x0000000000003b36       0xd1 c:/intelfpga_lite/18.1/nios2eds/bin/gnu/h-x86_64-mingw32/bin/../lib/gcc/nios2-elf/5.3.0/pg\libgcc.a(divsf3.o)
                                        0x28f (size before relaxing)
 .debug_str     0x0000000000003c07       0x37 c:/intelfpga_lite/18.1/nios2eds/bin/gnu/h-x86_64-mingw32/bin/../lib/gcc/nios2-elf/5.3.0/pg\libgcc.a(eqsf2.o)
                                        0x1e2 (size before relaxing)
 .debug_str     0x0000000000003c3e       0x5b c:/intelfpga_lite/18.1/nios2eds/bin/gnu/h-x86_64-mingw32/bin/../lib/gcc/nios2-elf/5.3.0/pg\libgcc.a(gesf2.o)
                                        0x206 (size before relaxing)
 .debug_str     0x0000000000003c99       0x9b c:/intelfpga_lite/18.1/nios2eds/bin/gnu/h-x86_64-mingw32/bin/../lib/gcc/nios2-elf/5.3.0/pg\libgcc.a(mulsf3.o)
                                        0x28f (size before relaxing)
 .debug_str     0x0000000000003d34       0x39 c:/intelfpga_lite/18.1/nios2eds/bin/gnu/h-x86_64-mingw32/bin/../lib/gcc/nios2-elf/5.3.0/pg\libgcc.a(subsf3.o)
                                        0x272 (size before relaxing)
 .debug_str     0x0000000000003d6d       0x4e c:/intelfpga_lite/18.1/nios2eds/bin/gnu/h-x86_64-mingw32/bin/../lib/gcc/nios2-elf/5.3.0/pg\libgcc.a(fixsfsi.o)
                                        0x208 (size before relaxing)
 .debug_str     0x0000000000003dbb       0x6c c:/intelfpga_lite/18.1/nios2eds/bin/gnu/h-x86_64-mingw32/bin/../lib/gcc/nios2-elf/5.3.0/pg\libgcc.a(floatsisf.o)
                                        0x23d (size before relaxing)
 .debug_str     0x0000000000003e27       0x43 c:/intelfpga_lite/18.1/nios2eds/bin/gnu/h-x86_64-mingw32/bin/../lib/gcc/nios2-elf/5.3.0/pg\libgcc.a(floatunsisf.o)
                                        0x23a (size before relaxing)
 .debug_str     0x0000000000003e6a      0x16b c:/intelfpga_lite/18.1/nios2eds/bin/gnu/h-x86_64-mingw32/bin/../lib/gcc/nios2-elf/5.3.0/pg\libgcc.a(divdf3.o)
                                        0x350 (size before relaxing)
 .debug_str     0x0000000000003fd5       0x3f c:/intelfpga_lite/18.1/nios2eds/bin/gnu/h-x86_64-mingw32/bin/../lib/gcc/nios2-elf/5.3.0/pg\libgcc.a(floatsidf.o)
                                        0x231 (size before relaxing)
 .debug_str     0x0000000000004014       0x50 c:/intelfpga_lite/18.1/nios2eds/bin/gnu/h-x86_64-mingw32/bin/../lib/gcc/nios2-elf/5.3.0/pg\libgcc.a(extendsfdf2.o)
                                        0x23e (size before relaxing)
 .debug_str     0x0000000000004064       0x41 c:/intelfpga_lite/18.1/nios2eds/bin/gnu/h-x86_64-mingw32/bin/../lib/gcc/nios2-elf/5.3.0/pg\libgcc.a(truncdfsf2.o)
                                        0x248 (size before relaxing)
 .debug_str     0x00000000000040a5      0x310 c:/intelfpga_lite/18.1/nios2eds/bin/gnu/h-x86_64-mingw32/bin/../lib/gcc/nios2-elf/5.3.0/pg\libgcc.a(unwind-sjlj.o)
                                        0x693 (size before relaxing)
 .debug_str     0x00000000000043b5       0x20 c:/intelfpga_lite/18.1/nios2eds/bin/gnu/h-x86_64-mingw32/bin/../lib/gcc/nios2-elf/5.3.0/pg\libgcc.a(_clzsi2.o)
                                        0x1ef (size before relaxing)
 .debug_str     0x00000000000043d5      0x1d2 c:/intelfpga_lite/18.1/nios2eds/bin/gnu/h-x86_64-mingw32/bin/../lib/gcc/nios2-elf/5.3.0/pg\libgcc.a(_clz.o)
 .debug_str     0x00000000000043d5      0x12c c:/intelfpga_lite/18.1/nios2eds/bin/gnu/h-x86_64-mingw32/bin/../lib/gcc/nios2-elf/5.3.0/../../../../../H-x86_64-mingw32/nios2-elf/lib/pg\libc.a(lib_a-abort.o)
                                        0x1d6 (size before relaxing)
 .debug_str     0x0000000000004501      0x39d c:/intelfpga_lite/18.1/nios2eds/bin/gnu/h-x86_64-mingw32/bin/../lib/gcc/nios2-elf/5.3.0/../../../../../H-x86_64-mingw32/nios2-elf/lib/pg\libc.a(lib_a-malloc.o)
                                        0x5b8 (size before relaxing)
 .debug_str     0x000000000000489e      0x220 c:/intelfpga_lite/18.1/nios2eds/bin/gnu/h-x86_64-mingw32/bin/../lib/gcc/nios2-elf/5.3.0/../../../../../H-x86_64-mingw32/nios2-elf/lib/pg\libc.a(lib_a-mallocr.o)
                                        0x7a9 (size before relaxing)
 .debug_str     0x0000000000004abe       0xd8 c:/intelfpga_lite/18.1/nios2eds/bin/gnu/h-x86_64-mingw32/bin/../lib/gcc/nios2-elf/5.3.0/../../../../../H-x86_64-mingw32/nios2-elf/lib/pg\libc.a(lib_a-memset.o)
                                        0x1e7 (size before relaxing)
 .debug_str     0x0000000000004b96      0x118 c:/intelfpga_lite/18.1/nios2eds/bin/gnu/h-x86_64-mingw32/bin/../lib/gcc/nios2-elf/5.3.0/../../../../../H-x86_64-mingw32/nios2-elf/lib/pg\libc.a(lib_a-printf.o)
                                        0x5ea (size before relaxing)
 .debug_str     0x0000000000004cae       0x58 c:/intelfpga_lite/18.1/nios2eds/bin/gnu/h-x86_64-mingw32/bin/../lib/gcc/nios2-elf/5.3.0/../../../../../H-x86_64-mingw32/nios2-elf/lib/pg\libc.a(lib_a-putchar.o)
                                        0x5a7 (size before relaxing)
 .debug_str     0x0000000000004d06       0xaa c:/intelfpga_lite/18.1/nios2eds/bin/gnu/h-x86_64-mingw32/bin/../lib/gcc/nios2-elf/5.3.0/../../../../../H-x86_64-mingw32/nios2-elf/lib/pg\libc.a(lib_a-puts.o)
                                        0x60b (size before relaxing)
 .debug_str     0x0000000000004db0       0x3b c:/intelfpga_lite/18.1/nios2eds/bin/gnu/h-x86_64-mingw32/bin/../lib/gcc/nios2-elf/5.3.0/../../../../../H-x86_64-mingw32/nios2-elf/lib/pg\libc.a(lib_a-rand.o)
                                        0x59b (size before relaxing)
 .debug_str     0x0000000000004deb       0xcb c:/intelfpga_lite/18.1/nios2eds/bin/gnu/h-x86_64-mingw32/bin/../lib/gcc/nios2-elf/5.3.0/../../../../../H-x86_64-mingw32/nios2-elf/lib/pg\libc.a(lib_a-sbrkr.o)
                                        0x59a (size before relaxing)
 .debug_str     0x0000000000004eb6      0x12a c:/intelfpga_lite/18.1/nios2eds/bin/gnu/h-x86_64-mingw32/bin/../lib/gcc/nios2-elf/5.3.0/../../../../../H-x86_64-mingw32/nios2-elf/lib/pg\libc.a(lib_a-signal.o)
                                        0x613 (size before relaxing)
 .debug_str     0x0000000000004fe0       0x49 c:/intelfpga_lite/18.1/nios2eds/bin/gnu/h-x86_64-mingw32/bin/../lib/gcc/nios2-elf/5.3.0/../../../../../H-x86_64-mingw32/nios2-elf/lib/pg\libc.a(lib_a-signalr.o)
                                        0x59e (size before relaxing)
 .debug_str     0x0000000000005029       0x3d c:/intelfpga_lite/18.1/nios2eds/bin/gnu/h-x86_64-mingw32/bin/../lib/gcc/nios2-elf/5.3.0/../../../../../H-x86_64-mingw32/nios2-elf/lib/pg\libc.a(lib_a-strcmp.o)
                                        0x1cc (size before relaxing)
 .debug_str     0x0000000000005066       0x3d c:/intelfpga_lite/18.1/nios2eds/bin/gnu/h-x86_64-mingw32/bin/../lib/gcc/nios2-elf/5.3.0/../../../../../H-x86_64-mingw32/nios2-elf/lib/pg\libc.a(lib_a-strlen.o)
                                        0x1e6 (size before relaxing)
 .debug_str     0x00000000000050a3      0x221 c:/intelfpga_lite/18.1/nios2eds/bin/gnu/h-x86_64-mingw32/bin/../lib/gcc/nios2-elf/5.3.0/../../../../../H-x86_64-mingw32/nios2-elf/lib/pg\libc.a(lib_a-vfprintf.o)
                                        0x82c (size before relaxing)
 .debug_str     0x00000000000052c4       0x49 c:/intelfpga_lite/18.1/nios2eds/bin/gnu/h-x86_64-mingw32/bin/../lib/gcc/nios2-elf/5.3.0/../../../../../H-x86_64-mingw32/nios2-elf/lib/pg\libc.a(lib_a-wsetup.o)
                                        0x5c3 (size before relaxing)
 .debug_str     0x000000000000530d      0x160 c:/intelfpga_lite/18.1/nios2eds/bin/gnu/h-x86_64-mingw32/bin/../lib/gcc/nios2-elf/5.3.0/../../../../../H-x86_64-mingw32/nios2-elf/lib/pg\libc.a(lib_a-dtoa.o)
                                        0x6e3 (size before relaxing)
 .debug_str     0x000000000000546d       0x7f c:/intelfpga_lite/18.1/nios2eds/bin/gnu/h-x86_64-mingw32/bin/../lib/gcc/nios2-elf/5.3.0/../../../../../H-x86_64-mingw32/nios2-elf/lib/pg\libc.a(lib_a-fflush.o)
                                        0x604 (size before relaxing)
 .debug_str     0x00000000000054ec      0x115 c:/intelfpga_lite/18.1/nios2eds/bin/gnu/h-x86_64-mingw32/bin/../lib/gcc/nios2-elf/5.3.0/../../../../../H-x86_64-mingw32/nios2-elf/lib/pg\libc.a(lib_a-findfp.o)
                                        0x6ba (size before relaxing)
 .debug_str     0x0000000000005601       0x34 c:/intelfpga_lite/18.1/nios2eds/bin/gnu/h-x86_64-mingw32/bin/../lib/gcc/nios2-elf/5.3.0/../../../../../H-x86_64-mingw32/nios2-elf/lib/pg\libc.a(lib_a-freer.o)
                                        0x6f3 (size before relaxing)
 .debug_str     0x0000000000005635       0x6e c:/intelfpga_lite/18.1/nios2eds/bin/gnu/h-x86_64-mingw32/bin/../lib/gcc/nios2-elf/5.3.0/../../../../../H-x86_64-mingw32/nios2-elf/lib/pg\libc.a(lib_a-fvwrite.o)
                                        0x636 (size before relaxing)
 .debug_str     0x00000000000056a3       0x4a c:/intelfpga_lite/18.1/nios2eds/bin/gnu/h-x86_64-mingw32/bin/../lib/gcc/nios2-elf/5.3.0/../../../../../H-x86_64-mingw32/nios2-elf/lib/pg\libc.a(lib_a-fwalk.o)
                                        0x5a9 (size before relaxing)
 .debug_str     0x00000000000056ed       0x48 c:/intelfpga_lite/18.1/nios2eds/bin/gnu/h-x86_64-mingw32/bin/../lib/gcc/nios2-elf/5.3.0/../../../../../H-x86_64-mingw32/nios2-elf/lib/pg\libc.a(lib_a-impure.o)
                                        0x5a4 (size before relaxing)
 .debug_str     0x0000000000005735       0x3f c:/intelfpga_lite/18.1/nios2eds/bin/gnu/h-x86_64-mingw32/bin/../lib/gcc/nios2-elf/5.3.0/../../../../../H-x86_64-mingw32/nios2-elf/lib/pg\libc.a(lib_a-int_errno.o)
                                        0x1cc (size before relaxing)
 .debug_str     0x0000000000005774      0x291 c:/intelfpga_lite/18.1/nios2eds/bin/gnu/h-x86_64-mingw32/bin/../lib/gcc/nios2-elf/5.3.0/../../../../../H-x86_64-mingw32/nios2-elf/lib/pg\libc.a(lib_a-locale.o)
                                        0x801 (size before relaxing)
 .debug_str     0x0000000000005a05      0x124 c:/intelfpga_lite/18.1/nios2eds/bin/gnu/h-x86_64-mingw32/bin/../lib/gcc/nios2-elf/5.3.0/../../../../../H-x86_64-mingw32/nios2-elf/lib/pg\libc.a(lib_a-makebuf.o)
                                        0x6a6 (size before relaxing)
 .debug_str     0x0000000000005b29       0x4b c:/intelfpga_lite/18.1/nios2eds/bin/gnu/h-x86_64-mingw32/bin/../lib/gcc/nios2-elf/5.3.0/../../../../../H-x86_64-mingw32/nios2-elf/lib/pg\libc.a(lib_a-memchr.o)
                                        0x1ed (size before relaxing)
 .debug_str     0x0000000000005b74       0x64 c:/intelfpga_lite/18.1/nios2eds/bin/gnu/h-x86_64-mingw32/bin/../lib/gcc/nios2-elf/5.3.0/../../../../../H-x86_64-mingw32/nios2-elf/lib/pg\libc.a(lib_a-memcpy.o)
                                        0x1fa (size before relaxing)
 .debug_str     0x0000000000005bd8       0x47 c:/intelfpga_lite/18.1/nios2eds/bin/gnu/h-x86_64-mingw32/bin/../lib/gcc/nios2-elf/5.3.0/../../../../../H-x86_64-mingw32/nios2-elf/lib/pg\libc.a(lib_a-memmove.o)
                                        0x206 (size before relaxing)
 .debug_str     0x0000000000005c1f       0xa7 c:/intelfpga_lite/18.1/nios2eds/bin/gnu/h-x86_64-mingw32/bin/../lib/gcc/nios2-elf/5.3.0/../../../../../H-x86_64-mingw32/nios2-elf/lib/pg\libc.a(lib_a-mprec.o)
                                        0x69d (size before relaxing)
 .debug_str     0x0000000000005cc6       0x49 c:/intelfpga_lite/18.1/nios2eds/bin/gnu/h-x86_64-mingw32/bin/../lib/gcc/nios2-elf/5.3.0/../../../../../H-x86_64-mingw32/nios2-elf/lib/pg\libc.a(lib_a-putc.o)
                                        0x5c4 (size before relaxing)
 .debug_str     0x0000000000005d0f       0x49 c:/intelfpga_lite/18.1/nios2eds/bin/gnu/h-x86_64-mingw32/bin/../lib/gcc/nios2-elf/5.3.0/../../../../../H-x86_64-mingw32/nios2-elf/lib/pg\libc.a(lib_a-reallocr.o)
                                        0x685 (size before relaxing)
 .debug_str     0x0000000000005d58       0xca c:/intelfpga_lite/18.1/nios2eds/bin/gnu/h-x86_64-mingw32/bin/../lib/gcc/nios2-elf/5.3.0/../../../../../H-x86_64-mingw32/nios2-elf/lib/pg\libc.a(lib_a-s_fpclassify.o)
                                        0x1f1 (size before relaxing)
 .debug_str     0x0000000000005e22       0x9b c:/intelfpga_lite/18.1/nios2eds/bin/gnu/h-x86_64-mingw32/bin/../lib/gcc/nios2-elf/5.3.0/../../../../../H-x86_64-mingw32/nios2-elf/lib/pg\libc.a(lib_a-stdio.o)
                                        0x5f8 (size before relaxing)
 .debug_str     0x0000000000005ebd       0x37 c:/intelfpga_lite/18.1/nios2eds/bin/gnu/h-x86_64-mingw32/bin/../lib/gcc/nios2-elf/5.3.0/../../../../../H-x86_64-mingw32/nios2-elf/lib/pg\libc.a(lib_a-vfiprintf.o)
                                        0x780 (size before relaxing)
 .debug_str     0x0000000000005ef4       0x42 c:/intelfpga_lite/18.1/nios2eds/bin/gnu/h-x86_64-mingw32/bin/../lib/gcc/nios2-elf/5.3.0/../../../../../H-x86_64-mingw32/nios2-elf/lib/pg\libc.a(lib_a-wbuf.o)
                                        0x5c8 (size before relaxing)
 .debug_str     0x0000000000005f36       0x3c c:/intelfpga_lite/18.1/nios2eds/bin/gnu/h-x86_64-mingw32/bin/../lib/gcc/nios2-elf/5.3.0/../../../../../H-x86_64-mingw32/nios2-elf/lib/pg\libc.a(lib_a-writer.o)
                                        0x59e (size before relaxing)
 .debug_str     0x0000000000005f72       0x3c c:/intelfpga_lite/18.1/nios2eds/bin/gnu/h-x86_64-mingw32/bin/../lib/gcc/nios2-elf/5.3.0/../../../../../H-x86_64-mingw32/nios2-elf/lib/pg\libc.a(closer.o)
                                        0x58e (size before relaxing)
 .debug_str     0x0000000000005fae        0xf c:/intelfpga_lite/18.1/nios2eds/bin/gnu/h-x86_64-mingw32/bin/../lib/gcc/nios2-elf/5.3.0/../../../../../H-x86_64-mingw32/nios2-elf/lib/pg\libc.a(lib_a-callocr.o)
                                        0x5dd (size before relaxing)
 .debug_str     0x0000000000005fbd       0x4d c:/intelfpga_lite/18.1/nios2eds/bin/gnu/h-x86_64-mingw32/bin/../lib/gcc/nios2-elf/5.3.0/../../../../../H-x86_64-mingw32/nios2-elf/lib/pg\libc.a(lib_a-fclose.o)
                                        0x5f1 (size before relaxing)
 .debug_str     0x000000000000600a       0x50 c:/intelfpga_lite/18.1/nios2eds/bin/gnu/h-x86_64-mingw32/bin/../lib/gcc/nios2-elf/5.3.0/../../../../../H-x86_64-mingw32/nios2-elf/lib/pg\libc.a(lib_a-fputwc.o)
                                        0x5f5 (size before relaxing)
 .debug_str     0x000000000000605a       0x48 c:/intelfpga_lite/18.1/nios2eds/bin/gnu/h-x86_64-mingw32/bin/../lib/gcc/nios2-elf/5.3.0/../../../../../H-x86_64-mingw32/nios2-elf/lib/pg\libc.a(lib_a-fstatr.o)
                                        0x67a (size before relaxing)
 .debug_str     0x00000000000060a2       0x44 c:/intelfpga_lite/18.1/nios2eds/bin/gnu/h-x86_64-mingw32/bin/../lib/gcc/nios2-elf/5.3.0/../../../../../H-x86_64-mingw32/nios2-elf/lib/pg\libc.a(lib_a-isattyr.o)
                                        0x591 (size before relaxing)
 .debug_str     0x00000000000060e6       0x42 c:/intelfpga_lite/18.1/nios2eds/bin/gnu/h-x86_64-mingw32/bin/../lib/gcc/nios2-elf/5.3.0/../../../../../H-x86_64-mingw32/nios2-elf/lib/pg\libc.a(lib_a-lseekr.o)
                                        0x595 (size before relaxing)
 .debug_str     0x0000000000006128       0x3b c:/intelfpga_lite/18.1/nios2eds/bin/gnu/h-x86_64-mingw32/bin/../lib/gcc/nios2-elf/5.3.0/../../../../../H-x86_64-mingw32/nios2-elf/lib/pg\libc.a(lib_a-readr.o)
                                        0x59b (size before relaxing)
 .debug_str     0x0000000000006163       0x56 c:/intelfpga_lite/18.1/nios2eds/bin/gnu/h-x86_64-mingw32/bin/../lib/gcc/nios2-elf/5.3.0/../../../../../H-x86_64-mingw32/nios2-elf/lib/pg\libc.a(lib_a-wcrtomb.o)
                                        0x5db (size before relaxing)
 .debug_str     0x00000000000061b9       0x5f c:/intelfpga_lite/18.1/nios2eds/bin/gnu/h-x86_64-mingw32/bin/../lib/gcc/nios2-elf/5.3.0/../../../../../H-x86_64-mingw32/nios2-elf/lib/pg\libc.a(lib_a-wctomb_r.o)
                                        0x5e4 (size before relaxing)
 .debug_str     0x0000000000006218       0x1f c:/intelfpga_lite/18.1/nios2eds/bin/gnu/h-x86_64-mingw32/bin/../lib/gcc/nios2-elf/5.3.0/pg\libgcc.a(_muldi3.o)
                                        0x214 (size before relaxing)
 .debug_str     0x0000000000006237       0xb9 c:/intelfpga_lite/18.1/nios2eds/bin/gnu/h-x86_64-mingw32/bin/../lib/gcc/nios2-elf/5.3.0/pg\libgcc.a(_udivdi3.o)
                                        0x28b (size before relaxing)
 .debug_str     0x00000000000062f0        0xa c:/intelfpga_lite/18.1/nios2eds/bin/gnu/h-x86_64-mingw32/bin/../lib/gcc/nios2-elf/5.3.0/pg\libgcc.a(_umoddi3.o)
                                        0x28b (size before relaxing)
 .debug_str     0x00000000000062fa       0x39 c:/intelfpga_lite/18.1/nios2eds/bin/gnu/h-x86_64-mingw32/bin/../lib/gcc/nios2-elf/5.3.0/pg\libgcc.a(adddf3.o)
                                        0x298 (size before relaxing)
 .debug_str     0x0000000000006333       0x37 c:/intelfpga_lite/18.1/nios2eds/bin/gnu/h-x86_64-mingw32/bin/../lib/gcc/nios2-elf/5.3.0/pg\libgcc.a(eqdf2.o)
                                        0x1fe (size before relaxing)
 .debug_str     0x000000000000636a       0x37 c:/intelfpga_lite/18.1/nios2eds/bin/gnu/h-x86_64-mingw32/bin/../lib/gcc/nios2-elf/5.3.0/pg\libgcc.a(gedf2.o)
                                        0x222 (size before relaxing)
 .debug_str     0x00000000000063a1       0x37 c:/intelfpga_lite/18.1/nios2eds/bin/gnu/h-x86_64-mingw32/bin/../lib/gcc/nios2-elf/5.3.0/pg\libgcc.a(ledf2.o)
                                        0x222 (size before relaxing)
 .debug_str     0x00000000000063d8      0x15e c:/intelfpga_lite/18.1/nios2eds/bin/gnu/h-x86_64-mingw32/bin/../lib/gcc/nios2-elf/5.3.0/pg\libgcc.a(muldf3.o)
                                        0x3b1 (size before relaxing)
 .debug_str     0x0000000000006536       0x39 c:/intelfpga_lite/18.1/nios2eds/bin/gnu/h-x86_64-mingw32/bin/../lib/gcc/nios2-elf/5.3.0/pg\libgcc.a(subdf3.o)
                                        0x298 (size before relaxing)
 .debug_str     0x000000000000656f       0x3b c:/intelfpga_lite/18.1/nios2eds/bin/gnu/h-x86_64-mingw32/bin/../lib/gcc/nios2-elf/5.3.0/pg\libgcc.a(fixdfsi.o)
                                        0x21a (size before relaxing)
 .debug_str     0x00000000000065aa       0x43 c:/intelfpga_lite/18.1/nios2eds/bin/gnu/h-x86_64-mingw32/bin/../lib/gcc/nios2-elf/5.3.0/pg\libgcc.a(floatunsidf.o)
                                        0x22e (size before relaxing)
 .debug_str     0x00000000000065ed      0x153 ../LUTBrain_NIOS_bsp/\libhal_bsp.a(alt_close.o)
                                        0x236 (size before relaxing)
 .debug_str     0x0000000000006740       0x50 ../LUTBrain_NIOS_bsp/\libhal_bsp.a(alt_dev.o)
                                        0x321 (size before relaxing)
 .debug_str     0x0000000000006790       0x14 ../LUTBrain_NIOS_bsp/\libhal_bsp.a(alt_errno.o)
                                        0x161 (size before relaxing)
 .debug_str     0x00000000000067a4       0x38 ../LUTBrain_NIOS_bsp/\libhal_bsp.a(alt_exit.o)
                                        0x17b (size before relaxing)
 .debug_str     0x00000000000067dc       0x14 ../LUTBrain_NIOS_bsp/\libhal_bsp.a(alt_fstat.o)
                                        0x308 (size before relaxing)
 .debug_str     0x00000000000067f0       0x15 ../LUTBrain_NIOS_bsp/\libhal_bsp.a(alt_getpid.o)
                                         0xbb (size before relaxing)
 .debug_str     0x0000000000006805      0x1b9 ../LUTBrain_NIOS_bsp/\libhal_bsp.a(alt_gmon.o)
                                        0x39b (size before relaxing)
 .debug_str     0x00000000000069be       0x15 ../LUTBrain_NIOS_bsp/\libhal_bsp.a(alt_isatty.o)
                                        0x310 (size before relaxing)
 .debug_str     0x00000000000069d3       0x1a ../LUTBrain_NIOS_bsp/\libhal_bsp.a(alt_kill.o)
                                        0x180 (size before relaxing)
 .debug_str     0x00000000000069ed      0x113 ../LUTBrain_NIOS_bsp/\libhal_bsp.a(alt_load.o)
                                        0x25f (size before relaxing)
 .debug_str     0x0000000000006b00       0x14 ../LUTBrain_NIOS_bsp/\libhal_bsp.a(alt_lseek.o)
                                        0x22d (size before relaxing)
 .debug_str     0x0000000000006b14       0x78 ../LUTBrain_NIOS_bsp/\libhal_bsp.a(alt_main.o)
                                        0x204 (size before relaxing)
 .debug_str     0x0000000000006b8c       0x1a ../LUTBrain_NIOS_bsp/\libhal_bsp.a(alt_malloc_lock.o)
                                        0x51d (size before relaxing)
 .debug_str     0x0000000000006ba6       0x13 ../LUTBrain_NIOS_bsp/\libhal_bsp.a(alt_read.o)
                                        0x313 (size before relaxing)
 .debug_str     0x0000000000006bb9       0x19 ../LUTBrain_NIOS_bsp/\libhal_bsp.a(alt_release_fd.o)
                                        0x1ef (size before relaxing)
 .debug_str     0x0000000000006bd2       0x61 ../LUTBrain_NIOS_bsp/\libhal_bsp.a(alt_sbrk.o)
                                        0x1f0 (size before relaxing)
 .debug_str     0x0000000000006c33       0x59 ../LUTBrain_NIOS_bsp/\libhal_bsp.a(alt_tick.o)
                                        0x26e (size before relaxing)
 .debug_str     0x0000000000006c8c       0x14 ../LUTBrain_NIOS_bsp/\libhal_bsp.a(alt_write.o)
                                        0x314 (size before relaxing)
 .debug_str     0x0000000000006ca0      0x19d ../LUTBrain_NIOS_bsp/\libhal_bsp.a(alt_sys_init.o)
                                        0x410 (size before relaxing)
 .debug_str     0x0000000000006e3d      0x123 ../LUTBrain_NIOS_bsp/\libhal_bsp.a(altera_avalon_jtag_uart_fd.o)
                                        0x437 (size before relaxing)
 .debug_str     0x0000000000006f60       0x95 ../LUTBrain_NIOS_bsp/\libhal_bsp.a(altera_avalon_jtag_uart_init.o)
                                        0x378 (size before relaxing)
 .debug_str     0x0000000000006ff5       0x2c ../LUTBrain_NIOS_bsp/\libhal_bsp.a(altera_avalon_jtag_uart_ioctl.o)
                                        0x2af (size before relaxing)
 .debug_str     0x0000000000007021       0x2b ../LUTBrain_NIOS_bsp/\libhal_bsp.a(altera_avalon_jtag_uart_read.o)
                                        0x30b (size before relaxing)
 .debug_str     0x000000000000704c       0x2c ../LUTBrain_NIOS_bsp/\libhal_bsp.a(altera_avalon_jtag_uart_write.o)
                                        0x30c (size before relaxing)
 .debug_str     0x0000000000007078       0x54 ../LUTBrain_NIOS_bsp/\libhal_bsp.a(altera_avalon_timer_sc.o)
                                        0x284 (size before relaxing)
 .debug_str     0x00000000000070cc       0x27 ../LUTBrain_NIOS_bsp/\libhal_bsp.a(altera_avalon_timer_vars.o)
                                        0x1d5 (size before relaxing)
 .debug_str     0x00000000000070f3       0x3a ../LUTBrain_NIOS_bsp/\libhal_bsp.a(alt_alarm_start.o)
                                        0x29a (size before relaxing)
 .debug_str     0x000000000000712d       0x1f ../LUTBrain_NIOS_bsp/\libhal_bsp.a(alt_dcache_flush_all.o)
                                        0x171 (size before relaxing)
 .debug_str     0x000000000000714c       0x1f ../LUTBrain_NIOS_bsp/\libhal_bsp.a(alt_dev_llist_insert.o)
                                        0x1e8 (size before relaxing)
 .debug_str     0x000000000000716b       0x3e ../LUTBrain_NIOS_bsp/\libhal_bsp.a(alt_do_ctors.o)
                                         0xec (size before relaxing)
 .debug_str     0x00000000000071a9       0x4c ../LUTBrain_NIOS_bsp/\libhal_bsp.a(alt_do_dtors.o)
                                         0xeb (size before relaxing)
 .debug_str     0x00000000000071f5       0x30 ../LUTBrain_NIOS_bsp/\libhal_bsp.a(alt_icache_flush_all.o)
                                        0x182 (size before relaxing)
 .debug_str     0x0000000000007225       0xbe ../LUTBrain_NIOS_bsp/\libhal_bsp.a(alt_iic.o)
                                        0x26f (size before relaxing)
 .debug_str     0x00000000000072e3       0x37 ../LUTBrain_NIOS_bsp/\libhal_bsp.a(alt_iic_isr_register.o)
                                        0x229 (size before relaxing)
 .debug_str     0x000000000000731a       0x46 ../LUTBrain_NIOS_bsp/\libhal_bsp.a(alt_io_redirect.o)
                                        0x341 (size before relaxing)
 .debug_str     0x0000000000007360       0x3a ../LUTBrain_NIOS_bsp/\libhal_bsp.a(alt_irq_handler.o)
                                        0x1b3 (size before relaxing)
 .debug_str     0x000000000000739a       0x17 ../LUTBrain_NIOS_bsp/\libhal_bsp.a(alt_irq_vars.o)
                                        0x156 (size before relaxing)
 .debug_str     0x00000000000073b1       0x4f ../LUTBrain_NIOS_bsp/\libhal_bsp.a(alt_open.o)
                                        0x29c (size before relaxing)
 .debug_str     0x0000000000007400       0x20 ../LUTBrain_NIOS_bsp/\libhal_bsp.a(altera_nios2_gen2_irq.o)
                                        0x178 (size before relaxing)
 .debug_str     0x0000000000007420       0x1e ../LUTBrain_NIOS_bsp/\libhal_bsp.a(alt_find_dev.o)
                                        0x216 (size before relaxing)
 .debug_str     0x000000000000743e       0x18 ../LUTBrain_NIOS_bsp/\libhal_bsp.a(alt_find_file.o)
                                        0x224 (size before relaxing)
 .debug_str     0x0000000000007456       0x25 ../LUTBrain_NIOS_bsp/\libhal_bsp.a(alt_get_fd.o)
                                        0x238 (size before relaxing)
 .debug_str     0x000000000000747b       0x1b ../LUTBrain_NIOS_bsp/\libhal_bsp.a(alt_icache_flush.o)
                                        0x177 (size before relaxing)
 .debug_str     0x0000000000007496      0x48b ../LUTBrain_NIOS_bsp/\libhal_bsp.a(alt_instruction_exception_entry.o)
                                        0x5bc (size before relaxing)
 .debug_str     0x0000000000007921       0x81 c:/intelfpga_lite/18.1/nios2eds/bin/gnu/h-x86_64-mingw32/bin/../lib/gcc/nios2-elf/5.3.0/../../../../../H-x86_64-mingw32/nios2-elf/lib/pg\libc.a(lib_a-atexit.o)
                                        0x210 (size before relaxing)
 .debug_str     0x00000000000079a2       0x4c c:/intelfpga_lite/18.1/nios2eds/bin/gnu/h-x86_64-mingw32/bin/../lib/gcc/nios2-elf/5.3.0/../../../../../H-x86_64-mingw32/nios2-elf/lib/pg\libc.a(lib_a-exit.o)
                                        0x5ad (size before relaxing)
 .debug_str     0x00000000000079ee       0x3d c:/intelfpga_lite/18.1/nios2eds/bin/gnu/h-x86_64-mingw32/bin/../lib/gcc/nios2-elf/5.3.0/../../../../../H-x86_64-mingw32/nios2-elf/lib/pg\libc.a(lib_a-memcmp.o)
                                        0x1d3 (size before relaxing)
 .debug_str     0x0000000000007a2b       0x3f c:/intelfpga_lite/18.1/nios2eds/bin/gnu/h-x86_64-mingw32/bin/../lib/gcc/nios2-elf/5.3.0/../../../../../H-x86_64-mingw32/nios2-elf/lib/pg\libc.a(lib_a-__atexit.o)
                                        0x5e5 (size before relaxing)
 .debug_str     0x0000000000007a6a       0x60 c:/intelfpga_lite/18.1/nios2eds/bin/gnu/h-x86_64-mingw32/bin/../lib/gcc/nios2-elf/5.3.0/../../../../../H-x86_64-mingw32/nios2-elf/lib/pg\libc.a(lib_a-__call_atexit.o)
                                        0x5d1 (size before relaxing)

.debug_loc      0x0000000000000000    0x20fc8
 *(.debug_loc)
 .debug_loc     0x0000000000000000       0x39 c:/intelfpga_lite/18.1/nios2eds/bin/gnu/h-x86_64-mingw32/bin/../lib/gcc/nios2-elf/5.3.0/../../../../../H-x86_64-mingw32/nios2-elf/lib/pg\libstdc++.a(new_opv.o)
 .debug_loc     0x0000000000000039       0x6d c:/intelfpga_lite/18.1/nios2eds/bin/gnu/h-x86_64-mingw32/bin/../lib/gcc/nios2-elf/5.3.0/../../../../../H-x86_64-mingw32/nios2-elf/lib/pg\libstdc++.a(new_op.o)
 .debug_loc     0x00000000000000a6       0x21 c:/intelfpga_lite/18.1/nios2eds/bin/gnu/h-x86_64-mingw32/bin/../lib/gcc/nios2-elf/5.3.0/../../../../../H-x86_64-mingw32/nios2-elf/lib/pg\libstdc++.a(del_opv.o)
 .debug_loc     0x00000000000000c7     0x1ae3 c:/intelfpga_lite/18.1/nios2eds/bin/gnu/h-x86_64-mingw32/bin/../lib/gcc/nios2-elf/5.3.0/../../../../../H-x86_64-mingw32/nios2-elf/lib/pg\libstdc++.a(eh_personality.o)
 .debug_loc     0x0000000000001baa       0x76 c:/intelfpga_lite/18.1/nios2eds/bin/gnu/h-x86_64-mingw32/bin/../lib/gcc/nios2-elf/5.3.0/../../../../../H-x86_64-mingw32/nios2-elf/lib/pg\libstdc++.a(bad_alloc.o)
 .debug_loc     0x0000000000001c20       0x21 c:/intelfpga_lite/18.1/nios2eds/bin/gnu/h-x86_64-mingw32/bin/../lib/gcc/nios2-elf/5.3.0/../../../../../H-x86_64-mingw32/nios2-elf/lib/pg\libstdc++.a(del_op.o)
 .debug_loc     0x0000000000001c41      0x151 c:/intelfpga_lite/18.1/nios2eds/bin/gnu/h-x86_64-mingw32/bin/../lib/gcc/nios2-elf/5.3.0/../../../../../H-x86_64-mingw32/nios2-elf/lib/pg\libstdc++.a(eh_throw.o)
 .debug_loc     0x0000000000001d92      0x214 c:/intelfpga_lite/18.1/nios2eds/bin/gnu/h-x86_64-mingw32/bin/../lib/gcc/nios2-elf/5.3.0/../../../../../H-x86_64-mingw32/nios2-elf/lib/pg\libstdc++.a(eh_catch.o)
 .debug_loc     0x0000000000001fa6      0x84a c:/intelfpga_lite/18.1/nios2eds/bin/gnu/h-x86_64-mingw32/bin/../lib/gcc/nios2-elf/5.3.0/../../../../../H-x86_64-mingw32/nios2-elf/lib/pg\libstdc++.a(class_type_info.o)
 .debug_loc     0x00000000000027f0       0x4e c:/intelfpga_lite/18.1/nios2eds/bin/gnu/h-x86_64-mingw32/bin/../lib/gcc/nios2-elf/5.3.0/../../../../../H-x86_64-mingw32/nios2-elf/lib/pg\libstdc++.a(eh_terminate.o)
 .debug_loc     0x000000000000283e      0x431 c:/intelfpga_lite/18.1/nios2eds/bin/gnu/h-x86_64-mingw32/bin/../lib/gcc/nios2-elf/5.3.0/../../../../../H-x86_64-mingw32/nios2-elf/lib/pg\libstdc++.a(eh_alloc.o)
 .debug_loc     0x0000000000002c6f       0x37 c:/intelfpga_lite/18.1/nios2eds/bin/gnu/h-x86_64-mingw32/bin/../lib/gcc/nios2-elf/5.3.0/../../../../../H-x86_64-mingw32/nios2-elf/lib/pg\libstdc++.a(eh_call.o)
 .debug_loc     0x0000000000002ca6      0x7d9 c:/intelfpga_lite/18.1/nios2eds/bin/gnu/h-x86_64-mingw32/bin/../lib/gcc/nios2-elf/5.3.0/../../../../../H-x86_64-mingw32/nios2-elf/lib/pg\libstdc++.a(si_class_type_info.o)
 .debug_loc     0x000000000000347f       0x84 c:/intelfpga_lite/18.1/nios2eds/bin/gnu/h-x86_64-mingw32/bin/../lib/gcc/nios2-elf/5.3.0/../../../../../H-x86_64-mingw32/nios2-elf/lib/pg\libstdc++.a(eh_exception.o)
 .debug_loc     0x0000000000003503       0x63 c:/intelfpga_lite/18.1/nios2eds/bin/gnu/h-x86_64-mingw32/bin/../lib/gcc/nios2-elf/5.3.0/../../../../../H-x86_64-mingw32/nios2-elf/lib/pg\libstdc++.a(tinfo.o)
 .debug_loc     0x0000000000003566       0x23 c:/intelfpga_lite/18.1/nios2eds/bin/gnu/h-x86_64-mingw32/bin/../lib/gcc/nios2-elf/5.3.0/pg\libgcc.a(_fixunssfsi.o)
 .debug_loc     0x0000000000003589      0x4d9 c:/intelfpga_lite/18.1/nios2eds/bin/gnu/h-x86_64-mingw32/bin/../lib/gcc/nios2-elf/5.3.0/pg\libgcc.a(lib2-divmod.o)
 .debug_loc     0x0000000000003a62      0xae0 c:/intelfpga_lite/18.1/nios2eds/bin/gnu/h-x86_64-mingw32/bin/../lib/gcc/nios2-elf/5.3.0/pg\libgcc.a(addsf3.o)
 .debug_loc     0x0000000000004542      0x7a2 c:/intelfpga_lite/18.1/nios2eds/bin/gnu/h-x86_64-mingw32/bin/../lib/gcc/nios2-elf/5.3.0/pg\libgcc.a(divsf3.o)
 .debug_loc     0x0000000000004ce4       0x82 c:/intelfpga_lite/18.1/nios2eds/bin/gnu/h-x86_64-mingw32/bin/../lib/gcc/nios2-elf/5.3.0/pg\libgcc.a(eqsf2.o)
 .debug_loc     0x0000000000004d66      0x138 c:/intelfpga_lite/18.1/nios2eds/bin/gnu/h-x86_64-mingw32/bin/../lib/gcc/nios2-elf/5.3.0/pg\libgcc.a(gesf2.o)
 .debug_loc     0x0000000000004e9e      0x740 c:/intelfpga_lite/18.1/nios2eds/bin/gnu/h-x86_64-mingw32/bin/../lib/gcc/nios2-elf/5.3.0/pg\libgcc.a(mulsf3.o)
 .debug_loc     0x00000000000055de      0xaf4 c:/intelfpga_lite/18.1/nios2eds/bin/gnu/h-x86_64-mingw32/bin/../lib/gcc/nios2-elf/5.3.0/pg\libgcc.a(subsf3.o)
 .debug_loc     0x00000000000060d2       0xfb c:/intelfpga_lite/18.1/nios2eds/bin/gnu/h-x86_64-mingw32/bin/../lib/gcc/nios2-elf/5.3.0/pg\libgcc.a(fixsfsi.o)
 .debug_loc     0x00000000000061cd      0x187 c:/intelfpga_lite/18.1/nios2eds/bin/gnu/h-x86_64-mingw32/bin/../lib/gcc/nios2-elf/5.3.0/pg\libgcc.a(floatsisf.o)
 .debug_loc     0x0000000000006354      0x1b2 c:/intelfpga_lite/18.1/nios2eds/bin/gnu/h-x86_64-mingw32/bin/../lib/gcc/nios2-elf/5.3.0/pg\libgcc.a(floatunsisf.o)
 .debug_loc     0x0000000000006506     0x1fc6 c:/intelfpga_lite/18.1/nios2eds/bin/gnu/h-x86_64-mingw32/bin/../lib/gcc/nios2-elf/5.3.0/pg\libgcc.a(divdf3.o)
 .debug_loc     0x00000000000084cc      0x175 c:/intelfpga_lite/18.1/nios2eds/bin/gnu/h-x86_64-mingw32/bin/../lib/gcc/nios2-elf/5.3.0/pg\libgcc.a(floatsidf.o)
 .debug_loc     0x0000000000008641      0x26d c:/intelfpga_lite/18.1/nios2eds/bin/gnu/h-x86_64-mingw32/bin/../lib/gcc/nios2-elf/5.3.0/pg\libgcc.a(extendsfdf2.o)
 .debug_loc     0x00000000000088ae      0x359 c:/intelfpga_lite/18.1/nios2eds/bin/gnu/h-x86_64-mingw32/bin/../lib/gcc/nios2-elf/5.3.0/pg\libgcc.a(truncdfsf2.o)
 .debug_loc     0x0000000000008c07      0x861 c:/intelfpga_lite/18.1/nios2eds/bin/gnu/h-x86_64-mingw32/bin/../lib/gcc/nios2-elf/5.3.0/pg\libgcc.a(unwind-sjlj.o)
 .debug_loc     0x0000000000009468       0x6b c:/intelfpga_lite/18.1/nios2eds/bin/gnu/h-x86_64-mingw32/bin/../lib/gcc/nios2-elf/5.3.0/pg\libgcc.a(_clzsi2.o)
 .debug_loc     0x00000000000094d3       0x58 c:/intelfpga_lite/18.1/nios2eds/bin/gnu/h-x86_64-mingw32/bin/../lib/gcc/nios2-elf/5.3.0/../../../../../H-x86_64-mingw32/nios2-elf/lib/pg\libc.a(lib_a-malloc.o)
 .debug_loc     0x000000000000952b      0xb1b c:/intelfpga_lite/18.1/nios2eds/bin/gnu/h-x86_64-mingw32/bin/../lib/gcc/nios2-elf/5.3.0/../../../../../H-x86_64-mingw32/nios2-elf/lib/pg\libc.a(lib_a-mallocr.o)
 .debug_loc     0x000000000000a046      0x19b c:/intelfpga_lite/18.1/nios2eds/bin/gnu/h-x86_64-mingw32/bin/../lib/gcc/nios2-elf/5.3.0/../../../../../H-x86_64-mingw32/nios2-elf/lib/pg\libc.a(lib_a-memset.o)
 .debug_loc     0x000000000000a1e1       0xd3 c:/intelfpga_lite/18.1/nios2eds/bin/gnu/h-x86_64-mingw32/bin/../lib/gcc/nios2-elf/5.3.0/../../../../../H-x86_64-mingw32/nios2-elf/lib/pg\libc.a(lib_a-printf.o)
 .debug_loc     0x000000000000a2b4       0x81 c:/intelfpga_lite/18.1/nios2eds/bin/gnu/h-x86_64-mingw32/bin/../lib/gcc/nios2-elf/5.3.0/../../../../../H-x86_64-mingw32/nios2-elf/lib/pg\libc.a(lib_a-putchar.o)
 .debug_loc     0x000000000000a335      0x117 c:/intelfpga_lite/18.1/nios2eds/bin/gnu/h-x86_64-mingw32/bin/../lib/gcc/nios2-elf/5.3.0/../../../../../H-x86_64-mingw32/nios2-elf/lib/pg\libc.a(lib_a-puts.o)
 .debug_loc     0x000000000000a44c       0x13 c:/intelfpga_lite/18.1/nios2eds/bin/gnu/h-x86_64-mingw32/bin/../lib/gcc/nios2-elf/5.3.0/../../../../../H-x86_64-mingw32/nios2-elf/lib/pg\libc.a(lib_a-rand.o)
 .debug_loc     0x000000000000a45f       0x58 c:/intelfpga_lite/18.1/nios2eds/bin/gnu/h-x86_64-mingw32/bin/../lib/gcc/nios2-elf/5.3.0/../../../../../H-x86_64-mingw32/nios2-elf/lib/pg\libc.a(lib_a-sbrkr.o)
 .debug_loc     0x000000000000a4b7      0x407 c:/intelfpga_lite/18.1/nios2eds/bin/gnu/h-x86_64-mingw32/bin/../lib/gcc/nios2-elf/5.3.0/../../../../../H-x86_64-mingw32/nios2-elf/lib/pg\libc.a(lib_a-signal.o)
 .debug_loc     0x000000000000a8be       0xa5 c:/intelfpga_lite/18.1/nios2eds/bin/gnu/h-x86_64-mingw32/bin/../lib/gcc/nios2-elf/5.3.0/../../../../../H-x86_64-mingw32/nios2-elf/lib/pg\libc.a(lib_a-signalr.o)
 .debug_loc     0x000000000000a963       0xc6 c:/intelfpga_lite/18.1/nios2eds/bin/gnu/h-x86_64-mingw32/bin/../lib/gcc/nios2-elf/5.3.0/../../../../../H-x86_64-mingw32/nios2-elf/lib/pg\libc.a(lib_a-strcmp.o)
 .debug_loc     0x000000000000aa29       0x47 c:/intelfpga_lite/18.1/nios2eds/bin/gnu/h-x86_64-mingw32/bin/../lib/gcc/nios2-elf/5.3.0/../../../../../H-x86_64-mingw32/nios2-elf/lib/pg\libc.a(lib_a-strlen.o)
 .debug_loc     0x000000000000aa70     0x30cf c:/intelfpga_lite/18.1/nios2eds/bin/gnu/h-x86_64-mingw32/bin/../lib/gcc/nios2-elf/5.3.0/../../../../../H-x86_64-mingw32/nios2-elf/lib/pg\libc.a(lib_a-vfprintf.o)
 .debug_loc     0x000000000000db3f       0xa2 c:/intelfpga_lite/18.1/nios2eds/bin/gnu/h-x86_64-mingw32/bin/../lib/gcc/nios2-elf/5.3.0/../../../../../H-x86_64-mingw32/nios2-elf/lib/pg\libc.a(lib_a-wsetup.o)
 .debug_loc     0x000000000000dbe1     0x2855 c:/intelfpga_lite/18.1/nios2eds/bin/gnu/h-x86_64-mingw32/bin/../lib/gcc/nios2-elf/5.3.0/../../../../../H-x86_64-mingw32/nios2-elf/lib/pg\libc.a(lib_a-dtoa.o)
 .debug_loc     0x0000000000010436      0x36f c:/intelfpga_lite/18.1/nios2eds/bin/gnu/h-x86_64-mingw32/bin/../lib/gcc/nios2-elf/5.3.0/../../../../../H-x86_64-mingw32/nios2-elf/lib/pg\libc.a(lib_a-fflush.o)
 .debug_loc     0x00000000000107a5      0x2ee c:/intelfpga_lite/18.1/nios2eds/bin/gnu/h-x86_64-mingw32/bin/../lib/gcc/nios2-elf/5.3.0/../../../../../H-x86_64-mingw32/nios2-elf/lib/pg\libc.a(lib_a-findfp.o)
 .debug_loc     0x0000000000010a93      0x4e7 c:/intelfpga_lite/18.1/nios2eds/bin/gnu/h-x86_64-mingw32/bin/../lib/gcc/nios2-elf/5.3.0/../../../../../H-x86_64-mingw32/nios2-elf/lib/pg\libc.a(lib_a-freer.o)
 .debug_loc     0x0000000000010f7a      0x5d7 c:/intelfpga_lite/18.1/nios2eds/bin/gnu/h-x86_64-mingw32/bin/../lib/gcc/nios2-elf/5.3.0/../../../../../H-x86_64-mingw32/nios2-elf/lib/pg\libc.a(lib_a-fvwrite.o)
 .debug_loc     0x0000000000011551      0x25b c:/intelfpga_lite/18.1/nios2eds/bin/gnu/h-x86_64-mingw32/bin/../lib/gcc/nios2-elf/5.3.0/../../../../../H-x86_64-mingw32/nios2-elf/lib/pg\libc.a(lib_a-fwalk.o)
 .debug_loc     0x00000000000117ac      0x131 c:/intelfpga_lite/18.1/nios2eds/bin/gnu/h-x86_64-mingw32/bin/../lib/gcc/nios2-elf/5.3.0/../../../../../H-x86_64-mingw32/nios2-elf/lib/pg\libc.a(lib_a-locale.o)
 .debug_loc     0x00000000000118dd      0x122 c:/intelfpga_lite/18.1/nios2eds/bin/gnu/h-x86_64-mingw32/bin/../lib/gcc/nios2-elf/5.3.0/../../../../../H-x86_64-mingw32/nios2-elf/lib/pg\libc.a(lib_a-makebuf.o)
 .debug_loc     0x00000000000119ff      0x196 c:/intelfpga_lite/18.1/nios2eds/bin/gnu/h-x86_64-mingw32/bin/../lib/gcc/nios2-elf/5.3.0/../../../../../H-x86_64-mingw32/nios2-elf/lib/pg\libc.a(lib_a-memchr.o)
 .debug_loc     0x0000000000011b95      0x266 c:/intelfpga_lite/18.1/nios2eds/bin/gnu/h-x86_64-mingw32/bin/../lib/gcc/nios2-elf/5.3.0/../../../../../H-x86_64-mingw32/nios2-elf/lib/pg\libc.a(lib_a-memcpy.o)
 .debug_loc     0x0000000000011dfb      0x2e7 c:/intelfpga_lite/18.1/nios2eds/bin/gnu/h-x86_64-mingw32/bin/../lib/gcc/nios2-elf/5.3.0/../../../../../H-x86_64-mingw32/nios2-elf/lib/pg\libc.a(lib_a-memmove.o)
 .debug_loc     0x00000000000120e2     0x1bee c:/intelfpga_lite/18.1/nios2eds/bin/gnu/h-x86_64-mingw32/bin/../lib/gcc/nios2-elf/5.3.0/../../../../../H-x86_64-mingw32/nios2-elf/lib/pg\libc.a(lib_a-mprec.o)
 .debug_loc     0x0000000000013cd0      0x224 c:/intelfpga_lite/18.1/nios2eds/bin/gnu/h-x86_64-mingw32/bin/../lib/gcc/nios2-elf/5.3.0/../../../../../H-x86_64-mingw32/nios2-elf/lib/pg\libc.a(lib_a-putc.o)
 .debug_loc     0x0000000000013ef4      0xde4 c:/intelfpga_lite/18.1/nios2eds/bin/gnu/h-x86_64-mingw32/bin/../lib/gcc/nios2-elf/5.3.0/../../../../../H-x86_64-mingw32/nios2-elf/lib/pg\libc.a(lib_a-reallocr.o)
 .debug_loc     0x0000000000014cd8       0x2f c:/intelfpga_lite/18.1/nios2eds/bin/gnu/h-x86_64-mingw32/bin/../lib/gcc/nios2-elf/5.3.0/../../../../../H-x86_64-mingw32/nios2-elf/lib/pg\libc.a(lib_a-s_fpclassify.o)
 .debug_loc     0x0000000000014d07      0x33a c:/intelfpga_lite/18.1/nios2eds/bin/gnu/h-x86_64-mingw32/bin/../lib/gcc/nios2-elf/5.3.0/../../../../../H-x86_64-mingw32/nios2-elf/lib/pg\libc.a(lib_a-stdio.o)
 .debug_loc     0x0000000000015041     0x2739 c:/intelfpga_lite/18.1/nios2eds/bin/gnu/h-x86_64-mingw32/bin/../lib/gcc/nios2-elf/5.3.0/../../../../../H-x86_64-mingw32/nios2-elf/lib/pg\libc.a(lib_a-vfiprintf.o)
 .debug_loc     0x000000000001777a      0x1b2 c:/intelfpga_lite/18.1/nios2eds/bin/gnu/h-x86_64-mingw32/bin/../lib/gcc/nios2-elf/5.3.0/../../../../../H-x86_64-mingw32/nios2-elf/lib/pg\libc.a(lib_a-wbuf.o)
 .debug_loc     0x000000000001792c       0xb0 c:/intelfpga_lite/18.1/nios2eds/bin/gnu/h-x86_64-mingw32/bin/../lib/gcc/nios2-elf/5.3.0/../../../../../H-x86_64-mingw32/nios2-elf/lib/pg\libc.a(lib_a-writer.o)
 .debug_loc     0x00000000000179dc       0x58 c:/intelfpga_lite/18.1/nios2eds/bin/gnu/h-x86_64-mingw32/bin/../lib/gcc/nios2-elf/5.3.0/../../../../../H-x86_64-mingw32/nios2-elf/lib/pg\libc.a(closer.o)
 .debug_loc     0x0000000000017a34      0x210 c:/intelfpga_lite/18.1/nios2eds/bin/gnu/h-x86_64-mingw32/bin/../lib/gcc/nios2-elf/5.3.0/../../../../../H-x86_64-mingw32/nios2-elf/lib/pg\libc.a(lib_a-callocr.o)
 .debug_loc     0x0000000000017c44      0x199 c:/intelfpga_lite/18.1/nios2eds/bin/gnu/h-x86_64-mingw32/bin/../lib/gcc/nios2-elf/5.3.0/../../../../../H-x86_64-mingw32/nios2-elf/lib/pg\libc.a(lib_a-fclose.o)
 .debug_loc     0x0000000000017ddd      0x2a1 c:/intelfpga_lite/18.1/nios2eds/bin/gnu/h-x86_64-mingw32/bin/../lib/gcc/nios2-elf/5.3.0/../../../../../H-x86_64-mingw32/nios2-elf/lib/pg\libc.a(lib_a-fputwc.o)
 .debug_loc     0x000000000001807e       0x84 c:/intelfpga_lite/18.1/nios2eds/bin/gnu/h-x86_64-mingw32/bin/../lib/gcc/nios2-elf/5.3.0/../../../../../H-x86_64-mingw32/nios2-elf/lib/pg\libc.a(lib_a-fstatr.o)
 .debug_loc     0x0000000000018102       0x58 c:/intelfpga_lite/18.1/nios2eds/bin/gnu/h-x86_64-mingw32/bin/../lib/gcc/nios2-elf/5.3.0/../../../../../H-x86_64-mingw32/nios2-elf/lib/pg\libc.a(lib_a-isattyr.o)
 .debug_loc     0x000000000001815a       0xb0 c:/intelfpga_lite/18.1/nios2eds/bin/gnu/h-x86_64-mingw32/bin/../lib/gcc/nios2-elf/5.3.0/../../../../../H-x86_64-mingw32/nios2-elf/lib/pg\libc.a(lib_a-lseekr.o)
 .debug_loc     0x000000000001820a       0xb0 c:/intelfpga_lite/18.1/nios2eds/bin/gnu/h-x86_64-mingw32/bin/../lib/gcc/nios2-elf/5.3.0/../../../../../H-x86_64-mingw32/nios2-elf/lib/pg\libc.a(lib_a-readr.o)
 .debug_loc     0x00000000000182ba      0x24e c:/intelfpga_lite/18.1/nios2eds/bin/gnu/h-x86_64-mingw32/bin/../lib/gcc/nios2-elf/5.3.0/../../../../../H-x86_64-mingw32/nios2-elf/lib/pg\libc.a(lib_a-wcrtomb.o)
 .debug_loc     0x0000000000018508       0x8f c:/intelfpga_lite/18.1/nios2eds/bin/gnu/h-x86_64-mingw32/bin/../lib/gcc/nios2-elf/5.3.0/../../../../../H-x86_64-mingw32/nios2-elf/lib/pg\libc.a(lib_a-wctomb_r.o)
 .debug_loc     0x0000000000018597      0x12d c:/intelfpga_lite/18.1/nios2eds/bin/gnu/h-x86_64-mingw32/bin/../lib/gcc/nios2-elf/5.3.0/pg\libgcc.a(_muldi3.o)
 .debug_loc     0x00000000000186c4     0x10ca c:/intelfpga_lite/18.1/nios2eds/bin/gnu/h-x86_64-mingw32/bin/../lib/gcc/nios2-elf/5.3.0/pg\libgcc.a(_udivdi3.o)
 .debug_loc     0x000000000001978e     0x10ad c:/intelfpga_lite/18.1/nios2eds/bin/gnu/h-x86_64-mingw32/bin/../lib/gcc/nios2-elf/5.3.0/pg\libgcc.a(_umoddi3.o)
 .debug_loc     0x000000000001a83b     0x16f9 c:/intelfpga_lite/18.1/nios2eds/bin/gnu/h-x86_64-mingw32/bin/../lib/gcc/nios2-elf/5.3.0/pg\libgcc.a(adddf3.o)
 .debug_loc     0x000000000001bf34       0x3c c:/intelfpga_lite/18.1/nios2eds/bin/gnu/h-x86_64-mingw32/bin/../lib/gcc/nios2-elf/5.3.0/pg\libgcc.a(eqdf2.o)
 .debug_loc     0x000000000001bf70       0xf2 c:/intelfpga_lite/18.1/nios2eds/bin/gnu/h-x86_64-mingw32/bin/../lib/gcc/nios2-elf/5.3.0/pg\libgcc.a(gedf2.o)
 .debug_loc     0x000000000001c062      0x150 c:/intelfpga_lite/18.1/nios2eds/bin/gnu/h-x86_64-mingw32/bin/../lib/gcc/nios2-elf/5.3.0/pg\libgcc.a(ledf2.o)
 .debug_loc     0x000000000001c1b2     0x100d c:/intelfpga_lite/18.1/nios2eds/bin/gnu/h-x86_64-mingw32/bin/../lib/gcc/nios2-elf/5.3.0/pg\libgcc.a(muldf3.o)
 .debug_loc     0x000000000001d1bf     0x1627 c:/intelfpga_lite/18.1/nios2eds/bin/gnu/h-x86_64-mingw32/bin/../lib/gcc/nios2-elf/5.3.0/pg\libgcc.a(subdf3.o)
 .debug_loc     0x000000000001e7e6      0x13e c:/intelfpga_lite/18.1/nios2eds/bin/gnu/h-x86_64-mingw32/bin/../lib/gcc/nios2-elf/5.3.0/pg\libgcc.a(fixdfsi.o)
 .debug_loc     0x000000000001e924      0x19e c:/intelfpga_lite/18.1/nios2eds/bin/gnu/h-x86_64-mingw32/bin/../lib/gcc/nios2-elf/5.3.0/pg\libgcc.a(floatunsidf.o)
 .debug_loc     0x000000000001eac2       0xdd ../LUTBrain_NIOS_bsp/\libhal_bsp.a(alt_close.o)
 .debug_loc     0x000000000001eb9f       0x3c ../LUTBrain_NIOS_bsp/\libhal_bsp.a(alt_exit.o)
 .debug_loc     0x000000000001ebdb       0x84 ../LUTBrain_NIOS_bsp/\libhal_bsp.a(alt_fstat.o)
 .debug_loc     0x000000000001ec5f      0x282 ../LUTBrain_NIOS_bsp/\libhal_bsp.a(alt_gmon.o)
 .debug_loc     0x000000000001eee1       0x45 ../LUTBrain_NIOS_bsp/\libhal_bsp.a(alt_isatty.o)
 .debug_loc     0x000000000001ef26       0xff ../LUTBrain_NIOS_bsp/\libhal_bsp.a(alt_kill.o)
 .debug_loc     0x000000000001f025      0x13f ../LUTBrain_NIOS_bsp/\libhal_bsp.a(alt_lseek.o)
 .debug_loc     0x000000000001f164       0x1e ../LUTBrain_NIOS_bsp/\libhal_bsp.a(alt_main.o)
 .debug_loc     0x000000000001f182      0x17a ../LUTBrain_NIOS_bsp/\libhal_bsp.a(alt_read.o)
 .debug_loc     0x000000000001f2fc       0x21 ../LUTBrain_NIOS_bsp/\libhal_bsp.a(alt_release_fd.o)
 .debug_loc     0x000000000001f31d       0x6d ../LUTBrain_NIOS_bsp/\libhal_bsp.a(alt_sbrk.o)
 .debug_loc     0x000000000001f38a       0xdd ../LUTBrain_NIOS_bsp/\libhal_bsp.a(alt_tick.o)
 .debug_loc     0x000000000001f467      0x17a ../LUTBrain_NIOS_bsp/\libhal_bsp.a(alt_write.o)
 .debug_loc     0x000000000001f5e1       0x21 ../LUTBrain_NIOS_bsp/\libhal_bsp.a(alt_sys_init.o)
 .debug_loc     0x000000000001f602      0x1d3 ../LUTBrain_NIOS_bsp/\libhal_bsp.a(altera_avalon_jtag_uart_fd.o)
 .debug_loc     0x000000000001f7d5      0x164 ../LUTBrain_NIOS_bsp/\libhal_bsp.a(altera_avalon_jtag_uart_init.o)
 .debug_loc     0x000000000001f939       0xb7 ../LUTBrain_NIOS_bsp/\libhal_bsp.a(altera_avalon_jtag_uart_ioctl.o)
 .debug_loc     0x000000000001f9f0      0x205 ../LUTBrain_NIOS_bsp/\libhal_bsp.a(altera_avalon_jtag_uart_read.o)
 .debug_loc     0x000000000001fbf5      0x1ec ../LUTBrain_NIOS_bsp/\libhal_bsp.a(altera_avalon_jtag_uart_write.o)
 .debug_loc     0x000000000001fde1       0xec ../LUTBrain_NIOS_bsp/\libhal_bsp.a(altera_avalon_timer_sc.o)
 .debug_loc     0x000000000001fecd       0xc9 ../LUTBrain_NIOS_bsp/\libhal_bsp.a(alt_alarm_start.o)
 .debug_loc     0x000000000001ff96       0x1f ../LUTBrain_NIOS_bsp/\libhal_bsp.a(alt_dcache_flush_all.o)
 .debug_loc     0x000000000001ffb5       0x7e ../LUTBrain_NIOS_bsp/\libhal_bsp.a(alt_dev_llist_insert.o)
 .debug_loc     0x0000000000020033       0x2b ../LUTBrain_NIOS_bsp/\libhal_bsp.a(alt_do_ctors.o)
 .debug_loc     0x000000000002005e       0x2b ../LUTBrain_NIOS_bsp/\libhal_bsp.a(alt_do_dtors.o)
 .debug_loc     0x0000000000020089      0x170 ../LUTBrain_NIOS_bsp/\libhal_bsp.a(alt_iic.o)
 .debug_loc     0x00000000000201f9      0x193 ../LUTBrain_NIOS_bsp/\libhal_bsp.a(alt_iic_isr_register.o)
 .debug_loc     0x000000000002038c      0x1d2 ../LUTBrain_NIOS_bsp/\libhal_bsp.a(alt_io_redirect.o)
 .debug_loc     0x000000000002055e       0x51 ../LUTBrain_NIOS_bsp/\libhal_bsp.a(alt_irq_handler.o)
 .debug_loc     0x00000000000205af      0x2ec ../LUTBrain_NIOS_bsp/\libhal_bsp.a(alt_open.o)
 .debug_loc     0x000000000002089b       0x7e ../LUTBrain_NIOS_bsp/\libhal_bsp.a(alt_find_dev.o)
 .debug_loc     0x0000000000020919       0x94 ../LUTBrain_NIOS_bsp/\libhal_bsp.a(alt_find_file.o)
 .debug_loc     0x00000000000209ad       0x57 ../LUTBrain_NIOS_bsp/\libhal_bsp.a(alt_get_fd.o)
 .debug_loc     0x0000000000020a04       0x52 ../LUTBrain_NIOS_bsp/\libhal_bsp.a(alt_icache_flush.o)
 .debug_loc     0x0000000000020a56       0xaf ../LUTBrain_NIOS_bsp/\libhal_bsp.a(alt_instruction_exception_entry.o)
 .debug_loc     0x0000000000020b05       0x2c c:/intelfpga_lite/18.1/nios2eds/bin/gnu/h-x86_64-mingw32/bin/../lib/gcc/nios2-elf/5.3.0/../../../../../H-x86_64-mingw32/nios2-elf/lib/pg\libc.a(lib_a-atexit.o)
 .debug_loc     0x0000000000020b31       0x1e c:/intelfpga_lite/18.1/nios2eds/bin/gnu/h-x86_64-mingw32/bin/../lib/gcc/nios2-elf/5.3.0/../../../../../H-x86_64-mingw32/nios2-elf/lib/pg\libc.a(lib_a-exit.o)
 .debug_loc     0x0000000000020b4f      0x126 c:/intelfpga_lite/18.1/nios2eds/bin/gnu/h-x86_64-mingw32/bin/../lib/gcc/nios2-elf/5.3.0/../../../../../H-x86_64-mingw32/nios2-elf/lib/pg\libc.a(lib_a-memcmp.o)
 .debug_loc     0x0000000000020c75      0x185 c:/intelfpga_lite/18.1/nios2eds/bin/gnu/h-x86_64-mingw32/bin/../lib/gcc/nios2-elf/5.3.0/../../../../../H-x86_64-mingw32/nios2-elf/lib/pg\libc.a(lib_a-__atexit.o)
 .debug_loc     0x0000000000020dfa      0x1ce c:/intelfpga_lite/18.1/nios2eds/bin/gnu/h-x86_64-mingw32/bin/../lib/gcc/nios2-elf/5.3.0/../../../../../H-x86_64-mingw32/nios2-elf/lib/pg\libc.a(lib_a-__call_atexit.o)

.debug_macinfo
 *(.debug_macinfo)

.debug_weaknames
 *(.debug_weaknames)

.debug_funcnames
 *(.debug_funcnames)

.debug_typenames
 *(.debug_typenames)

.debug_varnames
 *(.debug_varnames)

.debug_alt_sim_info
                0x0000000000000000       0x30
 *(.debug_alt_sim_info)
 .debug_alt_sim_info
                0x0000000000000000       0x30 ../LUTBrain_NIOS_bsp//obj/HAL/src/crt0.o
                0x0000000004000000                __alt_data_end = 0x4000000
                0x0000000004000000                PROVIDE (__alt_stack_pointer, __alt_data_end)
                [!provide]                        PROVIDE (__alt_stack_limit, __alt_stack_base)
                0x000000000004d490                PROVIDE (__alt_heap_start, end)
                0x0000000004000000                PROVIDE (__alt_heap_limit, 0x4000000)
OUTPUT(LUTBrain_NIOS.elf elf32-littlenios2)

.debug_ranges   0x0000000000000000     0x28c8
 .debug_ranges  0x0000000000000000       0x20 ../LUTBrain_NIOS_bsp//obj/HAL/src/crt0.o
 .debug_ranges  0x0000000000000020       0x30 obj/default/Image.o
 .debug_ranges  0x0000000000000050       0x20 obj/default/main.o
 .debug_ranges  0x0000000000000070       0x10 c:/intelfpga_lite/18.1/nios2eds/bin/gnu/h-x86_64-mingw32/bin/../lib/gcc/nios2-elf/5.3.0/../../../../../H-x86_64-mingw32/nios2-elf/lib/pg\libstdc++.a(new_opv.o)
 .debug_ranges  0x0000000000000080       0x48 c:/intelfpga_lite/18.1/nios2eds/bin/gnu/h-x86_64-mingw32/bin/../lib/gcc/nios2-elf/5.3.0/../../../../../H-x86_64-mingw32/nios2-elf/lib/pg\libstdc++.a(new_op.o)
 .debug_ranges  0x00000000000000c8       0x10 c:/intelfpga_lite/18.1/nios2eds/bin/gnu/h-x86_64-mingw32/bin/../lib/gcc/nios2-elf/5.3.0/../../../../../H-x86_64-mingw32/nios2-elf/lib/pg\libstdc++.a(del_opv.o)
 .debug_ranges  0x00000000000000d8       0x18 c:/intelfpga_lite/18.1/nios2eds/bin/gnu/h-x86_64-mingw32/bin/../lib/gcc/nios2-elf/5.3.0/../../../../../H-x86_64-mingw32/nios2-elf/lib/pg\libstdc++.a(new_handler.o)
 .debug_ranges  0x00000000000000f0      0x190 c:/intelfpga_lite/18.1/nios2eds/bin/gnu/h-x86_64-mingw32/bin/../lib/gcc/nios2-elf/5.3.0/../../../../../H-x86_64-mingw32/nios2-elf/lib/pg\libstdc++.a(eh_personality.o)
 .debug_ranges  0x0000000000000280       0x38 c:/intelfpga_lite/18.1/nios2eds/bin/gnu/h-x86_64-mingw32/bin/../lib/gcc/nios2-elf/5.3.0/../../../../../H-x86_64-mingw32/nios2-elf/lib/pg\libstdc++.a(bad_alloc.o)
 .debug_ranges  0x00000000000002b8       0x10 c:/intelfpga_lite/18.1/nios2eds/bin/gnu/h-x86_64-mingw32/bin/../lib/gcc/nios2-elf/5.3.0/../../../../../H-x86_64-mingw32/nios2-elf/lib/pg\libstdc++.a(del_op.o)
 .debug_ranges  0x00000000000002c8       0x20 c:/intelfpga_lite/18.1/nios2eds/bin/gnu/h-x86_64-mingw32/bin/../lib/gcc/nios2-elf/5.3.0/../../../../../H-x86_64-mingw32/nios2-elf/lib/pg\libstdc++.a(eh_throw.o)
 .debug_ranges  0x00000000000002e8       0x28 c:/intelfpga_lite/18.1/nios2eds/bin/gnu/h-x86_64-mingw32/bin/../lib/gcc/nios2-elf/5.3.0/../../../../../H-x86_64-mingw32/nios2-elf/lib/pg\libstdc++.a(eh_catch.o)
 .debug_ranges  0x0000000000000310       0xb8 c:/intelfpga_lite/18.1/nios2eds/bin/gnu/h-x86_64-mingw32/bin/../lib/gcc/nios2-elf/5.3.0/../../../../../H-x86_64-mingw32/nios2-elf/lib/pg\libstdc++.a(class_type_info.o)
 .debug_ranges  0x00000000000003c8       0x48 c:/intelfpga_lite/18.1/nios2eds/bin/gnu/h-x86_64-mingw32/bin/../lib/gcc/nios2-elf/5.3.0/../../../../../H-x86_64-mingw32/nios2-elf/lib/pg\libstdc++.a(eh_terminate.o)
 .debug_ranges  0x0000000000000410       0x70 c:/intelfpga_lite/18.1/nios2eds/bin/gnu/h-x86_64-mingw32/bin/../lib/gcc/nios2-elf/5.3.0/../../../../../H-x86_64-mingw32/nios2-elf/lib/pg\libstdc++.a(eh_alloc.o)
 .debug_ranges  0x0000000000000480       0x10 c:/intelfpga_lite/18.1/nios2eds/bin/gnu/h-x86_64-mingw32/bin/../lib/gcc/nios2-elf/5.3.0/../../../../../H-x86_64-mingw32/nios2-elf/lib/pg\libstdc++.a(eh_call.o)
 .debug_ranges  0x0000000000000490       0x10 c:/intelfpga_lite/18.1/nios2eds/bin/gnu/h-x86_64-mingw32/bin/../lib/gcc/nios2-elf/5.3.0/../../../../../H-x86_64-mingw32/nios2-elf/lib/pg\libstdc++.a(eh_globals.o)
 .debug_ranges  0x00000000000004a0       0x78 c:/intelfpga_lite/18.1/nios2eds/bin/gnu/h-x86_64-mingw32/bin/../lib/gcc/nios2-elf/5.3.0/../../../../../H-x86_64-mingw32/nios2-elf/lib/pg\libstdc++.a(si_class_type_info.o)
 .debug_ranges  0x0000000000000518       0x58 c:/intelfpga_lite/18.1/nios2eds/bin/gnu/h-x86_64-mingw32/bin/../lib/gcc/nios2-elf/5.3.0/../../../../../H-x86_64-mingw32/nios2-elf/lib/pg\libstdc++.a(eh_exception.o)
 .debug_ranges  0x0000000000000570       0x50 c:/intelfpga_lite/18.1/nios2eds/bin/gnu/h-x86_64-mingw32/bin/../lib/gcc/nios2-elf/5.3.0/../../../../../H-x86_64-mingw32/nios2-elf/lib/pg\libstdc++.a(tinfo.o)
 .debug_ranges  0x00000000000005c0       0x18 c:/intelfpga_lite/18.1/nios2eds/bin/gnu/h-x86_64-mingw32/bin/../lib/gcc/nios2-elf/5.3.0/../../../../../H-x86_64-mingw32/nios2-elf/lib/pg\libstdc++.a(pure.o)
 .debug_ranges  0x00000000000005d8       0x68 c:/intelfpga_lite/18.1/nios2eds/bin/gnu/h-x86_64-mingw32/bin/../lib/gcc/nios2-elf/5.3.0/pg\libgcc.a(lib2-divmod.o)
 .debug_ranges  0x0000000000000640      0x180 c:/intelfpga_lite/18.1/nios2eds/bin/gnu/h-x86_64-mingw32/bin/../lib/gcc/nios2-elf/5.3.0/pg\libgcc.a(addsf3.o)
 .debug_ranges  0x00000000000007c0       0x30 c:/intelfpga_lite/18.1/nios2eds/bin/gnu/h-x86_64-mingw32/bin/../lib/gcc/nios2-elf/5.3.0/pg\libgcc.a(divsf3.o)
 .debug_ranges  0x00000000000007f0       0x48 c:/intelfpga_lite/18.1/nios2eds/bin/gnu/h-x86_64-mingw32/bin/../lib/gcc/nios2-elf/5.3.0/pg\libgcc.a(eqsf2.o)
 .debug_ranges  0x0000000000000838       0x88 c:/intelfpga_lite/18.1/nios2eds/bin/gnu/h-x86_64-mingw32/bin/../lib/gcc/nios2-elf/5.3.0/pg\libgcc.a(gesf2.o)
 .debug_ranges  0x00000000000008c0       0x38 c:/intelfpga_lite/18.1/nios2eds/bin/gnu/h-x86_64-mingw32/bin/../lib/gcc/nios2-elf/5.3.0/pg\libgcc.a(mulsf3.o)
 .debug_ranges  0x00000000000008f8      0x168 c:/intelfpga_lite/18.1/nios2eds/bin/gnu/h-x86_64-mingw32/bin/../lib/gcc/nios2-elf/5.3.0/pg\libgcc.a(subsf3.o)
 .debug_ranges  0x0000000000000a60       0x30 c:/intelfpga_lite/18.1/nios2eds/bin/gnu/h-x86_64-mingw32/bin/../lib/gcc/nios2-elf/5.3.0/pg\libgcc.a(fixsfsi.o)
 .debug_ranges  0x0000000000000a90       0x38 c:/intelfpga_lite/18.1/nios2eds/bin/gnu/h-x86_64-mingw32/bin/../lib/gcc/nios2-elf/5.3.0/pg\libgcc.a(floatsisf.o)
 .debug_ranges  0x0000000000000ac8       0x38 c:/intelfpga_lite/18.1/nios2eds/bin/gnu/h-x86_64-mingw32/bin/../lib/gcc/nios2-elf/5.3.0/pg\libgcc.a(floatunsisf.o)
 .debug_ranges  0x0000000000000b00      0x108 c:/intelfpga_lite/18.1/nios2eds/bin/gnu/h-x86_64-mingw32/bin/../lib/gcc/nios2-elf/5.3.0/pg\libgcc.a(divdf3.o)
 .debug_ranges  0x0000000000000c08       0x20 c:/intelfpga_lite/18.1/nios2eds/bin/gnu/h-x86_64-mingw32/bin/../lib/gcc/nios2-elf/5.3.0/pg\libgcc.a(floatsidf.o)
 .debug_ranges  0x0000000000000c28       0x30 c:/intelfpga_lite/18.1/nios2eds/bin/gnu/h-x86_64-mingw32/bin/../lib/gcc/nios2-elf/5.3.0/pg\libgcc.a(extendsfdf2.o)
 .debug_ranges  0x0000000000000c58       0x38 c:/intelfpga_lite/18.1/nios2eds/bin/gnu/h-x86_64-mingw32/bin/../lib/gcc/nios2-elf/5.3.0/pg\libgcc.a(truncdfsf2.o)
 .debug_ranges  0x0000000000000c90      0x138 c:/intelfpga_lite/18.1/nios2eds/bin/gnu/h-x86_64-mingw32/bin/../lib/gcc/nios2-elf/5.3.0/pg\libgcc.a(unwind-sjlj.o)
 .debug_ranges  0x0000000000000dc8       0x18 c:/intelfpga_lite/18.1/nios2eds/bin/gnu/h-x86_64-mingw32/bin/../lib/gcc/nios2-elf/5.3.0/pg\libgcc.a(_clzsi2.o)
 .debug_ranges  0x0000000000000de0       0x10 c:/intelfpga_lite/18.1/nios2eds/bin/gnu/h-x86_64-mingw32/bin/../lib/gcc/nios2-elf/5.3.0/../../../../../H-x86_64-mingw32/nios2-elf/lib/pg\libc.a(lib_a-abort.o)
 .debug_ranges  0x0000000000000df0       0x18 c:/intelfpga_lite/18.1/nios2eds/bin/gnu/h-x86_64-mingw32/bin/../lib/gcc/nios2-elf/5.3.0/../../../../../H-x86_64-mingw32/nios2-elf/lib/pg\libc.a(lib_a-malloc.o)
 .debug_ranges  0x0000000000000e08       0x48 c:/intelfpga_lite/18.1/nios2eds/bin/gnu/h-x86_64-mingw32/bin/../lib/gcc/nios2-elf/5.3.0/../../../../../H-x86_64-mingw32/nios2-elf/lib/pg\libc.a(lib_a-mallocr.o)
 .debug_ranges  0x0000000000000e50       0x10 c:/intelfpga_lite/18.1/nios2eds/bin/gnu/h-x86_64-mingw32/bin/../lib/gcc/nios2-elf/5.3.0/../../../../../H-x86_64-mingw32/nios2-elf/lib/pg\libc.a(lib_a-memset.o)
 .debug_ranges  0x0000000000000e60       0x18 c:/intelfpga_lite/18.1/nios2eds/bin/gnu/h-x86_64-mingw32/bin/../lib/gcc/nios2-elf/5.3.0/../../../../../H-x86_64-mingw32/nios2-elf/lib/pg\libc.a(lib_a-printf.o)
 .debug_ranges  0x0000000000000e78       0x18 c:/intelfpga_lite/18.1/nios2eds/bin/gnu/h-x86_64-mingw32/bin/../lib/gcc/nios2-elf/5.3.0/../../../../../H-x86_64-mingw32/nios2-elf/lib/pg\libc.a(lib_a-putchar.o)
 .debug_ranges  0x0000000000000e90       0x30 c:/intelfpga_lite/18.1/nios2eds/bin/gnu/h-x86_64-mingw32/bin/../lib/gcc/nios2-elf/5.3.0/../../../../../H-x86_64-mingw32/nios2-elf/lib/pg\libc.a(lib_a-puts.o)
 .debug_ranges  0x0000000000000ec0       0x18 c:/intelfpga_lite/18.1/nios2eds/bin/gnu/h-x86_64-mingw32/bin/../lib/gcc/nios2-elf/5.3.0/../../../../../H-x86_64-mingw32/nios2-elf/lib/pg\libc.a(lib_a-rand.o)
 .debug_ranges  0x0000000000000ed8       0x10 c:/intelfpga_lite/18.1/nios2eds/bin/gnu/h-x86_64-mingw32/bin/../lib/gcc/nios2-elf/5.3.0/../../../../../H-x86_64-mingw32/nios2-elf/lib/pg\libc.a(lib_a-sbrkr.o)
 .debug_ranges  0x0000000000000ee8       0x60 c:/intelfpga_lite/18.1/nios2eds/bin/gnu/h-x86_64-mingw32/bin/../lib/gcc/nios2-elf/5.3.0/../../../../../H-x86_64-mingw32/nios2-elf/lib/pg\libc.a(lib_a-signal.o)
 .debug_ranges  0x0000000000000f48       0x38 c:/intelfpga_lite/18.1/nios2eds/bin/gnu/h-x86_64-mingw32/bin/../lib/gcc/nios2-elf/5.3.0/../../../../../H-x86_64-mingw32/nios2-elf/lib/pg\libc.a(lib_a-signalr.o)
 .debug_ranges  0x0000000000000f80       0x10 c:/intelfpga_lite/18.1/nios2eds/bin/gnu/h-x86_64-mingw32/bin/../lib/gcc/nios2-elf/5.3.0/../../../../../H-x86_64-mingw32/nios2-elf/lib/pg\libc.a(lib_a-strcmp.o)
 .debug_ranges  0x0000000000000f90       0x10 c:/intelfpga_lite/18.1/nios2eds/bin/gnu/h-x86_64-mingw32/bin/../lib/gcc/nios2-elf/5.3.0/../../../../../H-x86_64-mingw32/nios2-elf/lib/pg\libc.a(lib_a-strlen.o)
 .debug_ranges  0x0000000000000fa0      0x178 c:/intelfpga_lite/18.1/nios2eds/bin/gnu/h-x86_64-mingw32/bin/../lib/gcc/nios2-elf/5.3.0/../../../../../H-x86_64-mingw32/nios2-elf/lib/pg\libc.a(lib_a-vfprintf.o)
 .debug_ranges  0x0000000000001118       0x38 c:/intelfpga_lite/18.1/nios2eds/bin/gnu/h-x86_64-mingw32/bin/../lib/gcc/nios2-elf/5.3.0/../../../../../H-x86_64-mingw32/nios2-elf/lib/pg\libc.a(lib_a-wsetup.o)
 .debug_ranges  0x0000000000001150       0x18 c:/intelfpga_lite/18.1/nios2eds/bin/gnu/h-x86_64-mingw32/bin/../lib/gcc/nios2-elf/5.3.0/../../../../../H-x86_64-mingw32/nios2-elf/lib/pg\libc.a(lib_a-dtoa.o)
 .debug_ranges  0x0000000000001168       0x58 c:/intelfpga_lite/18.1/nios2eds/bin/gnu/h-x86_64-mingw32/bin/../lib/gcc/nios2-elf/5.3.0/../../../../../H-x86_64-mingw32/nios2-elf/lib/pg\libc.a(lib_a-fflush.o)
 .debug_ranges  0x00000000000011c0       0xc8 c:/intelfpga_lite/18.1/nios2eds/bin/gnu/h-x86_64-mingw32/bin/../lib/gcc/nios2-elf/5.3.0/../../../../../H-x86_64-mingw32/nios2-elf/lib/pg\libc.a(lib_a-findfp.o)
 .debug_ranges  0x0000000000001288       0x18 c:/intelfpga_lite/18.1/nios2eds/bin/gnu/h-x86_64-mingw32/bin/../lib/gcc/nios2-elf/5.3.0/../../../../../H-x86_64-mingw32/nios2-elf/lib/pg\libc.a(lib_a-freer.o)
 .debug_ranges  0x00000000000012a0       0x30 c:/intelfpga_lite/18.1/nios2eds/bin/gnu/h-x86_64-mingw32/bin/../lib/gcc/nios2-elf/5.3.0/../../../../../H-x86_64-mingw32/nios2-elf/lib/pg\libc.a(lib_a-fvwrite.o)
 .debug_ranges  0x00000000000012d0       0x18 c:/intelfpga_lite/18.1/nios2eds/bin/gnu/h-x86_64-mingw32/bin/../lib/gcc/nios2-elf/5.3.0/../../../../../H-x86_64-mingw32/nios2-elf/lib/pg\libc.a(lib_a-fwalk.o)
 .debug_ranges  0x00000000000012e8       0x60 c:/intelfpga_lite/18.1/nios2eds/bin/gnu/h-x86_64-mingw32/bin/../lib/gcc/nios2-elf/5.3.0/../../../../../H-x86_64-mingw32/nios2-elf/lib/pg\libc.a(lib_a-locale.o)
 .debug_ranges  0x0000000000001348       0x10 c:/intelfpga_lite/18.1/nios2eds/bin/gnu/h-x86_64-mingw32/bin/../lib/gcc/nios2-elf/5.3.0/../../../../../H-x86_64-mingw32/nios2-elf/lib/pg\libc.a(lib_a-makebuf.o)
 .debug_ranges  0x0000000000001358       0x10 c:/intelfpga_lite/18.1/nios2eds/bin/gnu/h-x86_64-mingw32/bin/../lib/gcc/nios2-elf/5.3.0/../../../../../H-x86_64-mingw32/nios2-elf/lib/pg\libc.a(lib_a-memchr.o)
 .debug_ranges  0x0000000000001368       0x10 c:/intelfpga_lite/18.1/nios2eds/bin/gnu/h-x86_64-mingw32/bin/../lib/gcc/nios2-elf/5.3.0/../../../../../H-x86_64-mingw32/nios2-elf/lib/pg\libc.a(lib_a-memcpy.o)
 .debug_ranges  0x0000000000001378       0x10 c:/intelfpga_lite/18.1/nios2eds/bin/gnu/h-x86_64-mingw32/bin/../lib/gcc/nios2-elf/5.3.0/../../../../../H-x86_64-mingw32/nios2-elf/lib/pg\libc.a(lib_a-memmove.o)
 .debug_ranges  0x0000000000001388       0xe0 c:/intelfpga_lite/18.1/nios2eds/bin/gnu/h-x86_64-mingw32/bin/../lib/gcc/nios2-elf/5.3.0/../../../../../H-x86_64-mingw32/nios2-elf/lib/pg\libc.a(lib_a-mprec.o)
 .debug_ranges  0x0000000000001468       0x48 c:/intelfpga_lite/18.1/nios2eds/bin/gnu/h-x86_64-mingw32/bin/../lib/gcc/nios2-elf/5.3.0/../../../../../H-x86_64-mingw32/nios2-elf/lib/pg\libc.a(lib_a-putc.o)
 .debug_ranges  0x00000000000014b0      0x148 c:/intelfpga_lite/18.1/nios2eds/bin/gnu/h-x86_64-mingw32/bin/../lib/gcc/nios2-elf/5.3.0/../../../../../H-x86_64-mingw32/nios2-elf/lib/pg\libc.a(lib_a-reallocr.o)
 .debug_ranges  0x00000000000015f8       0x10 c:/intelfpga_lite/18.1/nios2eds/bin/gnu/h-x86_64-mingw32/bin/../lib/gcc/nios2-elf/5.3.0/../../../../../H-x86_64-mingw32/nios2-elf/lib/pg\libc.a(lib_a-s_fpclassify.o)
 .debug_ranges  0x0000000000001608       0x30 c:/intelfpga_lite/18.1/nios2eds/bin/gnu/h-x86_64-mingw32/bin/../lib/gcc/nios2-elf/5.3.0/../../../../../H-x86_64-mingw32/nios2-elf/lib/pg\libc.a(lib_a-stdio.o)
 .debug_ranges  0x0000000000001638      0x1b8 c:/intelfpga_lite/18.1/nios2eds/bin/gnu/h-x86_64-mingw32/bin/../lib/gcc/nios2-elf/5.3.0/../../../../../H-x86_64-mingw32/nios2-elf/lib/pg\libc.a(lib_a-vfiprintf.o)
 .debug_ranges  0x00000000000017f0       0x30 c:/intelfpga_lite/18.1/nios2eds/bin/gnu/h-x86_64-mingw32/bin/../lib/gcc/nios2-elf/5.3.0/../../../../../H-x86_64-mingw32/nios2-elf/lib/pg\libc.a(lib_a-wbuf.o)
 .debug_ranges  0x0000000000001820       0x10 c:/intelfpga_lite/18.1/nios2eds/bin/gnu/h-x86_64-mingw32/bin/../lib/gcc/nios2-elf/5.3.0/../../../../../H-x86_64-mingw32/nios2-elf/lib/pg\libc.a(lib_a-writer.o)
 .debug_ranges  0x0000000000001830       0x10 c:/intelfpga_lite/18.1/nios2eds/bin/gnu/h-x86_64-mingw32/bin/../lib/gcc/nios2-elf/5.3.0/../../../../../H-x86_64-mingw32/nios2-elf/lib/pg\libc.a(closer.o)
 .debug_ranges  0x0000000000001840       0x48 c:/intelfpga_lite/18.1/nios2eds/bin/gnu/h-x86_64-mingw32/bin/../lib/gcc/nios2-elf/5.3.0/../../../../../H-x86_64-mingw32/nios2-elf/lib/pg\libc.a(lib_a-callocr.o)
 .debug_ranges  0x0000000000001888       0x48 c:/intelfpga_lite/18.1/nios2eds/bin/gnu/h-x86_64-mingw32/bin/../lib/gcc/nios2-elf/5.3.0/../../../../../H-x86_64-mingw32/nios2-elf/lib/pg\libc.a(lib_a-fclose.o)
 .debug_ranges  0x00000000000018d0       0x50 c:/intelfpga_lite/18.1/nios2eds/bin/gnu/h-x86_64-mingw32/bin/../lib/gcc/nios2-elf/5.3.0/../../../../../H-x86_64-mingw32/nios2-elf/lib/pg\libc.a(lib_a-fputwc.o)
 .debug_ranges  0x0000000000001920       0x10 c:/intelfpga_lite/18.1/nios2eds/bin/gnu/h-x86_64-mingw32/bin/../lib/gcc/nios2-elf/5.3.0/../../../../../H-x86_64-mingw32/nios2-elf/lib/pg\libc.a(lib_a-fstatr.o)
 .debug_ranges  0x0000000000001930       0x10 c:/intelfpga_lite/18.1/nios2eds/bin/gnu/h-x86_64-mingw32/bin/../lib/gcc/nios2-elf/5.3.0/../../../../../H-x86_64-mingw32/nios2-elf/lib/pg\libc.a(lib_a-isattyr.o)
 .debug_ranges  0x0000000000001940       0x10 c:/intelfpga_lite/18.1/nios2eds/bin/gnu/h-x86_64-mingw32/bin/../lib/gcc/nios2-elf/5.3.0/../../../../../H-x86_64-mingw32/nios2-elf/lib/pg\libc.a(lib_a-lseekr.o)
 .debug_ranges  0x0000000000001950       0x10 c:/intelfpga_lite/18.1/nios2eds/bin/gnu/h-x86_64-mingw32/bin/../lib/gcc/nios2-elf/5.3.0/../../../../../H-x86_64-mingw32/nios2-elf/lib/pg\libc.a(lib_a-readr.o)
 .debug_ranges  0x0000000000001960       0x18 c:/intelfpga_lite/18.1/nios2eds/bin/gnu/h-x86_64-mingw32/bin/../lib/gcc/nios2-elf/5.3.0/../../../../../H-x86_64-mingw32/nios2-elf/lib/pg\libc.a(lib_a-wcrtomb.o)
 .debug_ranges  0x0000000000001978       0x18 c:/intelfpga_lite/18.1/nios2eds/bin/gnu/h-x86_64-mingw32/bin/../lib/gcc/nios2-elf/5.3.0/../../../../../H-x86_64-mingw32/nios2-elf/lib/pg\libc.a(lib_a-wctomb_r.o)
 .debug_ranges  0x0000000000001990       0x18 c:/intelfpga_lite/18.1/nios2eds/bin/gnu/h-x86_64-mingw32/bin/../lib/gcc/nios2-elf/5.3.0/pg\libgcc.a(_muldi3.o)
 .debug_ranges  0x00000000000019a8      0x158 c:/intelfpga_lite/18.1/nios2eds/bin/gnu/h-x86_64-mingw32/bin/../lib/gcc/nios2-elf/5.3.0/pg\libgcc.a(_udivdi3.o)
 .debug_ranges  0x0000000000001b00      0x160 c:/intelfpga_lite/18.1/nios2eds/bin/gnu/h-x86_64-mingw32/bin/../lib/gcc/nios2-elf/5.3.0/pg\libgcc.a(_umoddi3.o)
 .debug_ranges  0x0000000000001c60      0x240 c:/intelfpga_lite/18.1/nios2eds/bin/gnu/h-x86_64-mingw32/bin/../lib/gcc/nios2-elf/5.3.0/pg\libgcc.a(adddf3.o)
 .debug_ranges  0x0000000000001ea0       0x48 c:/intelfpga_lite/18.1/nios2eds/bin/gnu/h-x86_64-mingw32/bin/../lib/gcc/nios2-elf/5.3.0/pg\libgcc.a(eqdf2.o)
 .debug_ranges  0x0000000000001ee8       0x88 c:/intelfpga_lite/18.1/nios2eds/bin/gnu/h-x86_64-mingw32/bin/../lib/gcc/nios2-elf/5.3.0/pg\libgcc.a(gedf2.o)
 .debug_ranges  0x0000000000001f70       0xa0 c:/intelfpga_lite/18.1/nios2eds/bin/gnu/h-x86_64-mingw32/bin/../lib/gcc/nios2-elf/5.3.0/pg\libgcc.a(ledf2.o)
 .debug_ranges  0x0000000000002010      0x1c0 c:/intelfpga_lite/18.1/nios2eds/bin/gnu/h-x86_64-mingw32/bin/../lib/gcc/nios2-elf/5.3.0/pg\libgcc.a(muldf3.o)
 .debug_ranges  0x00000000000021d0      0x260 c:/intelfpga_lite/18.1/nios2eds/bin/gnu/h-x86_64-mingw32/bin/../lib/gcc/nios2-elf/5.3.0/pg\libgcc.a(subdf3.o)
 .debug_ranges  0x0000000000002430       0x30 c:/intelfpga_lite/18.1/nios2eds/bin/gnu/h-x86_64-mingw32/bin/../lib/gcc/nios2-elf/5.3.0/pg\libgcc.a(fixdfsi.o)
 .debug_ranges  0x0000000000002460       0x18 c:/intelfpga_lite/18.1/nios2eds/bin/gnu/h-x86_64-mingw32/bin/../lib/gcc/nios2-elf/5.3.0/pg\libgcc.a(floatunsidf.o)
 .debug_ranges  0x0000000000002478       0x30 ../LUTBrain_NIOS_bsp/\libhal_bsp.a(alt_close.o)
 .debug_ranges  0x00000000000024a8       0x20 ../LUTBrain_NIOS_bsp/\libhal_bsp.a(alt_fstat.o)
 .debug_ranges  0x00000000000024c8       0x80 ../LUTBrain_NIOS_bsp/\libhal_bsp.a(alt_gmon.o)
 .debug_ranges  0x0000000000002548       0x18 ../LUTBrain_NIOS_bsp/\libhal_bsp.a(alt_isatty.o)
 .debug_ranges  0x0000000000002560       0x18 ../LUTBrain_NIOS_bsp/\libhal_bsp.a(alt_kill.o)
 .debug_ranges  0x0000000000002578       0x18 ../LUTBrain_NIOS_bsp/\libhal_bsp.a(alt_lseek.o)
 .debug_ranges  0x0000000000002590       0x48 ../LUTBrain_NIOS_bsp/\libhal_bsp.a(alt_read.o)
 .debug_ranges  0x00000000000025d8       0x30 ../LUTBrain_NIOS_bsp/\libhal_bsp.a(alt_tick.o)
 .debug_ranges  0x0000000000002608       0x48 ../LUTBrain_NIOS_bsp/\libhal_bsp.a(alt_write.o)
 .debug_ranges  0x0000000000002650       0x18 ../LUTBrain_NIOS_bsp/\libhal_bsp.a(alt_sys_init.o)
 .debug_ranges  0x0000000000002668       0x50 ../LUTBrain_NIOS_bsp/\libhal_bsp.a(altera_avalon_jtag_uart_init.o)
 .debug_ranges  0x00000000000026b8       0x30 ../LUTBrain_NIOS_bsp/\libhal_bsp.a(altera_avalon_jtag_uart_read.o)
 .debug_ranges  0x00000000000026e8       0x48 ../LUTBrain_NIOS_bsp/\libhal_bsp.a(altera_avalon_jtag_uart_write.o)
 .debug_ranges  0x0000000000002730       0x18 ../LUTBrain_NIOS_bsp/\libhal_bsp.a(altera_avalon_timer_sc.o)
 .debug_ranges  0x0000000000002748       0x38 ../LUTBrain_NIOS_bsp/\libhal_bsp.a(alt_dev_llist_insert.o)
 .debug_ranges  0x0000000000002780       0x18 ../LUTBrain_NIOS_bsp/\libhal_bsp.a(alt_io_redirect.o)
 .debug_ranges  0x0000000000002798       0x28 ../LUTBrain_NIOS_bsp/\libhal_bsp.a(alt_irq_entry.o)
 .debug_ranges  0x00000000000027c0       0x10 ../LUTBrain_NIOS_bsp/\libhal_bsp.a(alt_irq_handler.o)
 .debug_ranges  0x00000000000027d0       0x40 ../LUTBrain_NIOS_bsp/\libhal_bsp.a(alt_open.o)
 .debug_ranges  0x0000000000002810       0x30 ../LUTBrain_NIOS_bsp/\libhal_bsp.a(alt_exception_entry.o)
 .debug_ranges  0x0000000000002840       0x18 ../LUTBrain_NIOS_bsp/\libhal_bsp.a(alt_instruction_exception_entry.o)
 .debug_ranges  0x0000000000002858       0x10 c:/intelfpga_lite/18.1/nios2eds/bin/gnu/h-x86_64-mingw32/bin/../lib/gcc/nios2-elf/5.3.0/../../../../../H-x86_64-mingw32/nios2-elf/lib/pg\libc.a(lib_a-atexit.o)
 .debug_ranges  0x0000000000002868       0x10 c:/intelfpga_lite/18.1/nios2eds/bin/gnu/h-x86_64-mingw32/bin/../lib/gcc/nios2-elf/5.3.0/../../../../../H-x86_64-mingw32/nios2-elf/lib/pg\libc.a(lib_a-exit.o)
 .debug_ranges  0x0000000000002878       0x10 c:/intelfpga_lite/18.1/nios2eds/bin/gnu/h-x86_64-mingw32/bin/../lib/gcc/nios2-elf/5.3.0/../../../../../H-x86_64-mingw32/nios2-elf/lib/pg\libc.a(lib_a-memcmp.o)
 .debug_ranges  0x0000000000002888       0x10 c:/intelfpga_lite/18.1/nios2eds/bin/gnu/h-x86_64-mingw32/bin/../lib/gcc/nios2-elf/5.3.0/../../../../../H-x86_64-mingw32/nios2-elf/lib/pg\libc.a(lib_a-__atexit.o)
 .debug_ranges  0x0000000000002898       0x30 c:/intelfpga_lite/18.1/nios2eds/bin/gnu/h-x86_64-mingw32/bin/../lib/gcc/nios2-elf/5.3.0/../../../../../H-x86_64-mingw32/nios2-elf/lib/pg\libc.a(lib_a-__call_atexit.o)
