
LUTBrain_NIOS.elf:     file format elf32-littlenios2
LUTBrain_NIOS.elf
architecture: nios2:r1, flags 0x00000112:
EXEC_P, HAS_SYMS, D_PAGED
start address 0x040201a4

Program Header:
    LOAD off    0x00001000 vaddr 0x04020000 paddr 0x04020000 align 2**12
         filesz 0x00000020 memsz 0x00000020 flags r-x
    LOAD off    0x00001020 vaddr 0x04020020 paddr 0x04020020 align 2**12
         filesz 0x00015eb0 memsz 0x00015eb0 flags r-x
    LOAD off    0x00017000 vaddr 0x00000000 paddr 0x04035ed0 align 2**12
         filesz 0x000021dc memsz 0x0004d490 flags rw-

Sections:
Idx Name          Size      VMA       LMA       File off  Algn
  0 .entry        00000020  04020000  04020000  00001000  2**5
                  CONTENTS, ALLOC, LOAD, READONLY, CODE
  1 .exceptions   00000184  04020020  04020020  00001020  2**2
                  CONTENTS, ALLOC, LOAD, READONLY, CODE
  2 .text         00015d2c  040201a4  040201a4  000011a4  2**2
                  CONTENTS, ALLOC, LOAD, READONLY, CODE
  3 .rodata       00000688  00000000  04035ed0  00017000  2**2
                  CONTENTS, ALLOC, LOAD, READONLY, DATA
  4 .rwdata       00001b54  00000688  04036558  00017688  2**2
                  CONTENTS, ALLOC, LOAD, DATA, SMALL_DATA
  5 .bss          0004b2b4  000021dc  040380ac  000191dc  2**2
                  ALLOC, SMALL_DATA
  6 .sdram        00000000  0004d490  0004d490  000191dc  2**0
                  CONTENTS
  7 .onchip_memory2 00000000  040380ac  040380ac  000191dc  2**0
                  CONTENTS
  8 .comment      00000023  00000000  00000000  000191dc  2**0
                  CONTENTS, READONLY
  9 .debug_aranges 00001708  00000000  00000000  00019200  2**3
                  CONTENTS, READONLY, DEBUGGING
 10 .debug_info   00034de9  00000000  00000000  0001a908  2**0
                  CONTENTS, READONLY, DEBUGGING
 11 .debug_abbrev 0000f1e0  00000000  00000000  0004f6f1  2**0
                  CONTENTS, READONLY, DEBUGGING
 12 .debug_line   00011bb8  00000000  00000000  0005e8d1  2**0
                  CONTENTS, READONLY, DEBUGGING
 13 .debug_frame  00003474  00000000  00000000  0007048c  2**2
                  CONTENTS, READONLY, DEBUGGING
 14 .debug_str    00007ad5  00000000  00000000  00073900  2**0
                  CONTENTS, READONLY, DEBUGGING
 15 .debug_loc    00020fc8  00000000  00000000  0007b3d5  2**0
                  CONTENTS, READONLY, DEBUGGING
 16 .debug_alt_sim_info 00000030  00000000  00000000  0009c3a0  2**2
                  CONTENTS, READONLY, DEBUGGING
 17 .debug_ranges 000028e0  00000000  00000000  0009c3d0  2**3
                  CONTENTS, READONLY, DEBUGGING
 18 .thread_model 00000003  00000000  00000000  000a4831  2**0
                  CONTENTS, READONLY
 19 .cpu          0000000c  00000000  00000000  000a4834  2**0
                  CONTENTS, READONLY
 20 .qsys         00000001  00000000  00000000  000a4840  2**0
                  CONTENTS, READONLY
 21 .simulation_enabled 00000001  00000000  00000000  000a4841  2**0
                  CONTENTS, READONLY
 22 .sysid_hash   00000004  00000000  00000000  000a4842  2**0
                  CONTENTS, READONLY
 23 .sysid_base   00000004  00000000  00000000  000a4846  2**0
                  CONTENTS, READONLY
 24 .sysid_time   00000004  00000000  00000000  000a484a  2**0
                  CONTENTS, READONLY
 25 .profiling_enabled 00000001  00000000  00000000  000a484e  2**0
                  CONTENTS, READONLY
 26 .stderr_dev   00000009  00000000  00000000  000a484f  2**0
                  CONTENTS, READONLY
 27 .stdin_dev    00000009  00000000  00000000  000a4858  2**0
                  CONTENTS, READONLY
 28 .stdout_dev   00000009  00000000  00000000  000a4861  2**0
                  CONTENTS, READONLY
 29 .sopc_system_name 00000012  00000000  00000000  000a486a  2**0
                  CONTENTS, READONLY
 30 .quartus_project_dir 0000003a  00000000  00000000  000a487c  2**0
                  CONTENTS, READONLY
 31 .jdi          000062d5  00000000  00000000  000a48b6  2**0
                  CONTENTS, READONLY
 32 .sopcinfo     00088c37  00000000  00000000  000aab8b  2**0
                  CONTENTS, READONLY
SYMBOL TABLE:
04020000 l    d  .entry	00000000 .entry
04020020 l    d  .exceptions	00000000 .exceptions
040201a4 l    d  .text	00000000 .text
00000000 l    d  .rodata	00000000 .rodata
00000688 l    d  .rwdata	00000000 .rwdata
000021dc l    d  .bss	00000000 .bss
0004d490 l    d  .sdram	00000000 .sdram
040380ac l    d  .onchip_memory2	00000000 .onchip_memory2
00000000 l    d  .comment	00000000 .comment
00000000 l    d  .debug_aranges	00000000 .debug_aranges
00000000 l    d  .debug_info	00000000 .debug_info
00000000 l    d  .debug_abbrev	00000000 .debug_abbrev
00000000 l    d  .debug_line	00000000 .debug_line
00000000 l    d  .debug_frame	00000000 .debug_frame
00000000 l    d  .debug_str	00000000 .debug_str
00000000 l    d  .debug_loc	00000000 .debug_loc
00000000 l    d  .debug_alt_sim_info	00000000 .debug_alt_sim_info
00000000 l    d  .debug_ranges	00000000 .debug_ranges
00000000 l    df *ABS*	00000000 ../LUTBrain_NIOS_bsp//obj/HAL/src/crt0.o
040201ec l       .text	00000000 alt_after_alt_main
00000000 l    df *ABS*	00000000 alt_irq_handler.c
00000000 l    df *ABS*	00000000 alt_instruction_exception_entry.c
00000000 l    df *ABS*	00000000 Image.cpp
00000000 l    df *ABS*	00000000 NN.cpp
00000000 l    df *ABS*	00000000 NNLayer.cpp
00000000 l    df *ABS*	00000000 VGA.cpp
00000000 l    df *ABS*	00000000 main.cpp
00000000 l    df *ABS*	00000000 new_opv.cc
00000000 l    df *ABS*	00000000 new_op.cc
00000000 l    df *ABS*	00000000 del_opv.cc
00000000 l    df *ABS*	00000000 new_handler.cc
000021e4 l     O .bss	00000004 _ZN12_GLOBAL__N_113__new_handlerE
00000000 l    df *ABS*	00000000 eh_personality.cc
04022a40 l     F .text	000000b0 _ZL21size_of_encoded_valueh
04022af0 l     F .text	00000218 _ZL28read_encoded_value_with_basehjPKhPj
04022d08 l     F .text	00000060 _ZL15get_ttype_entryP16lsda_header_infom
04022d68 l     F .text	00000098 _ZL21base_of_encoded_valuehP15_Unwind_Context
04022e00 l     F .text	00000140 _ZL17parse_lsda_headerP15_Unwind_ContextPKhP16lsda_header_info
04022f40 l     F .text	00000094 _ZL16get_adjusted_ptrPKSt9type_infoS1_PPv.constprop.3
04022fd4 l     F .text	000001cc _ZL28check_compact_exception_specPKSt9type_infoPvPKhij
040231a0 l     F .text	000000b4 _ZL20check_exception_specP16lsda_header_infoPKSt9type_infoPvl
00000000 l    df *ABS*	00000000 bad_alloc.cc
00000000 l    df *ABS*	00000000 del_op.cc
00000000 l    df *ABS*	00000000 eh_throw.cc
04023b20 l     F .text	00000050 _ZL23__gxx_exception_cleanup19_Unwind_Reason_CodeP17_Unwind_Exception
00000000 l    df *ABS*	00000000 eh_catch.cc
00000000 l    df *ABS*	00000000 class_type_info.cc
00000000 l    df *ABS*	00000000 eh_terminate.cc
00000000 l    df *ABS*	00000000 eh_unex_handler.cc
00000000 l    df *ABS*	00000000 eh_alloc.cc
04024320 l     F .text	000000c4 _ZN12_GLOBAL__N_14pool4freeEPv.constprop.4
0004d240 l     O .bss	00000010 _ZN12_GLOBAL__N_114emergency_poolE
040243e4 l     F .text	000000b0 _ZN12_GLOBAL__N_14pool8allocateEj.constprop.5
040245cc l     F .text	00000068 _GLOBAL__sub_I___cxa_allocate_exception
00000000 l    df *ABS*	00000000 eh_call.cc
00000000 l    df *ABS*	00000000 eh_globals.cc
000021e8 l     O .bss	00000008 _ZL10eh_globals
00000000 l    df *ABS*	00000000 si_class_type_info.cc
00000000 l    df *ABS*	00000000 eh_exception.cc
00000000 l    df *ABS*	00000000 eh_term_handler.cc
00000000 l    df *ABS*	00000000 tinfo.cc
00000000 l    df *ABS*	00000000 pure.cc
00000000 l    df *ABS*	00000000 libgcc2.c
00000000 l    df *ABS*	00000000 lib2-divmod.c
00000000 l    df *ABS*	00000000 addsf3.c
00000000 l    df *ABS*	00000000 divsf3.c
00000000 l    df *ABS*	00000000 eqsf2.c
00000000 l    df *ABS*	00000000 gesf2.c
00000000 l    df *ABS*	00000000 mulsf3.c
00000000 l    df *ABS*	00000000 subsf3.c
00000000 l    df *ABS*	00000000 fixsfsi.c
00000000 l    df *ABS*	00000000 floatsisf.c
00000000 l    df *ABS*	00000000 floatunsisf.c
00000000 l    df *ABS*	00000000 divdf3.c
00000000 l    df *ABS*	00000000 floatsidf.c
00000000 l    df *ABS*	00000000 extendsfdf2.c
00000000 l    df *ABS*	00000000 truncdfsf2.c
00000000 l    df *ABS*	00000000 unwind-sjlj.c
04027064 l     F .text	00000124 _Unwind_ForcedUnwind_Phase2
000021f0 l     O .bss	00000004 fc_static
04027188 l     F .text	000000cc _Unwind_RaiseException_Phase2
04027254 l     F .text	0000003c uw_install_context.isra.1
00000000 l    df *ABS*	00000000 libgcc2.c
00000000 l    df *ABS*	00000000 libgcc2.c
00000000 l    df *ABS*	00000000 abort.c
00000000 l    df *ABS*	00000000 malloc.c
00000000 l    df *ABS*	00000000 mallocr.c
00000000 l    df *ABS*	00000000 memset.c
00000000 l    df *ABS*	00000000 printf.c
00000000 l    df *ABS*	00000000 putchar.c
00000000 l    df *ABS*	00000000 puts.c
00000000 l    df *ABS*	00000000 rand.c
00000000 l    df *ABS*	00000000 sbrkr.c
00000000 l    df *ABS*	00000000 signal.c
00000000 l    df *ABS*	00000000 signalr.c
00000000 l    df *ABS*	00000000 strcmp.c
00000000 l    df *ABS*	00000000 strlen.c
00000000 l    df *ABS*	00000000 vfprintf.c
000004e6 l     O .rodata	00000010 zeroes.4404
0402aa70 l     F .text	000000c8 __sbprintf
000004f6 l     O .rodata	00000010 blanks.4403
00000000 l    df *ABS*	00000000 wsetup.c
00000000 l    df *ABS*	00000000 dtoa.c
0402ac98 l     F .text	0000020c quorem
00000000 l    df *ABS*	00000000 fflush.c
00000000 l    df *ABS*	00000000 findfp.c
0402c804 l     F .text	00000014 __fp_unlock
0402c830 l     F .text	000001a8 __sinit.part.1
0402c9d8 l     F .text	00000014 __fp_lock
00000000 l    df *ABS*	00000000 mallocr.c
00000000 l    df *ABS*	00000000 fvwrite.c
00000000 l    df *ABS*	00000000 fwalk.c
00000000 l    df *ABS*	00000000 impure.c
00000a90 l     O .rwdata	00000424 impure_data
00000000 l    df *ABS*	00000000 int_errno.c
00000000 l    df *ABS*	00000000 locale.c
00000ed4 l     O .rwdata	00000020 lc_ctype_charset
00000eb4 l     O .rwdata	00000020 lc_message_charset
00000ef4 l     O .rwdata	00000038 lconv
00000000 l    df *ABS*	00000000 makebuf.c
00000000 l    df *ABS*	00000000 memchr.c
00000000 l    df *ABS*	00000000 memcpy.c
00000000 l    df *ABS*	00000000 memmove.c
00000000 l    df *ABS*	00000000 mprec.c
00000528 l     O .rodata	0000000c p05.2768
00000000 l    df *ABS*	00000000 putc.c
00000000 l    df *ABS*	00000000 mallocr.c
00000000 l    df *ABS*	00000000 s_fpclassify.c
00000000 l    df *ABS*	00000000 stdio.c
00000000 l    df *ABS*	00000000 vfprintf.c
0402f76c l     F .text	00000108 __sprint_r.part.0
0000065c l     O .rodata	00000010 blanks.4348
0000064c l     O .rodata	00000010 zeroes.4349
04030d28 l     F .text	000000c8 __sbprintf
00000000 l    df *ABS*	00000000 wbuf.c
00000000 l    df *ABS*	00000000 writer.c
00000000 l    df *ABS*	00000000 closer.c
00000000 l    df *ABS*	00000000 mallocr.c
00000000 l    df *ABS*	00000000 fclose.c
00000000 l    df *ABS*	00000000 fputwc.c
00000000 l    df *ABS*	00000000 fstatr.c
00000000 l    df *ABS*	00000000 isattyr.c
00000000 l    df *ABS*	00000000 lseekr.c
00000000 l    df *ABS*	00000000 readr.c
00000000 l    df *ABS*	00000000 wcrtomb.c
00000000 l    df *ABS*	00000000 wctomb_r.c
00000000 l    df *ABS*	00000000 libgcc2.c
00000000 l    df *ABS*	00000000 libgcc2.c
00000000 l    df *ABS*	00000000 libgcc2.c
00000000 l    df *ABS*	00000000 adddf3.c
00000000 l    df *ABS*	00000000 eqdf2.c
00000000 l    df *ABS*	00000000 gedf2.c
00000000 l    df *ABS*	00000000 ledf2.c
00000000 l    df *ABS*	00000000 muldf3.c
00000000 l    df *ABS*	00000000 subdf3.c
00000000 l    df *ABS*	00000000 fixdfsi.c
00000000 l    df *ABS*	00000000 floatunsidf.c
00000000 l    df *ABS*	00000000 alt_close.c
00000000 l    df *ABS*	00000000 alt_dev.c
04034088 l     F .text	00000014 alt_dev_null_write
00000000 l    df *ABS*	00000000 alt_errno.c
00000000 l    df *ABS*	00000000 alt_exit.c
00000000 l    df *ABS*	00000000 alt_fstat.c
00000000 l    df *ABS*	00000000 alt_getpid.c
00000000 l    df *ABS*	00000000 alt_gmon.c
04034178 l     F .text	00000048 nios2_pcsample
00002218 l     O .bss	00000004 s_pcsamples
000021c8 l     O .rwdata	00000004 pcsample_need_init
00002210 l     O .bss	00000004 mcount_slab_size
00002214 l     O .bss	00000004 mcount_slab_ptr
0004d278 l     O .bss	00000018 s_nios2_pcsample_alarm
00000000 l    df *ABS*	00000000 alt_isatty.c
00000000 l    df *ABS*	00000000 alt_kill.c
00000000 l    df *ABS*	00000000 alt_load.c
00000000 l    df *ABS*	00000000 alt_lseek.c
00000000 l    df *ABS*	00000000 alt_main.c
00000000 l    df *ABS*	00000000 alt_malloc_lock.c
00000000 l    df *ABS*	00000000 alt_read.c
00000000 l    df *ABS*	00000000 alt_release_fd.c
00000000 l    df *ABS*	00000000 alt_sbrk.c
000021cc l     O .rwdata	00000004 heap_end
00000000 l    df *ABS*	00000000 alt_tick.c
00000000 l    df *ABS*	00000000 alt_write.c
00000000 l    df *ABS*	00000000 alt_sys_init.c
000010f8 l     O .rwdata	00001060 jtag_uart
00000000 l    df *ABS*	00000000 altera_avalon_jtag_uart_fd.c
00000000 l    df *ABS*	00000000 altera_avalon_jtag_uart_init.c
04034bf4 l     F .text	00000058 altera_avalon_jtag_uart_timeout
04034c4c l     F .text	00000114 altera_avalon_jtag_uart_irq
00000000 l    df *ABS*	00000000 altera_avalon_jtag_uart_ioctl.c
00000000 l    df *ABS*	00000000 altera_avalon_jtag_uart_read.c
00000000 l    df *ABS*	00000000 altera_avalon_jtag_uart_write.c
00000000 l    df *ABS*	00000000 altera_avalon_timer_sc.c
040351c8 l     F .text	00000048 alt_avalon_timer_sc_irq
00000000 l    df *ABS*	00000000 altera_avalon_timer_vars.c
00000000 l    df *ABS*	00000000 alt_alarm_start.c
00000000 l    df *ABS*	00000000 alt_dcache_flush_all.c
00000000 l    df *ABS*	00000000 alt_dev_llist_insert.c
00000000 l    df *ABS*	00000000 alt_do_ctors.c
00000000 l    df *ABS*	00000000 alt_do_dtors.c
00000000 l    df *ABS*	00000000 alt_icache_flush_all.c
00000000 l    df *ABS*	00000000 alt_iic.c
00000000 l    df *ABS*	00000000 alt_iic_isr_register.c
00000000 l    df *ABS*	00000000 alt_io_redirect.c
00000000 l    df *ABS*	00000000 alt_irq_vars.c
00000000 l    df *ABS*	00000000 alt_open.c
00000000 l    df *ABS*	00000000 altera_nios2_gen2_irq.c
00000000 l    df *ABS*	00000000 alt_find_dev.c
00000000 l    df *ABS*	00000000 alt_find_file.c
00000000 l    df *ABS*	00000000 alt_get_fd.c
00000000 l    df *ABS*	00000000 alt_icache_flush.c
00000000 l    df *ABS*	00000000 atexit.c
00000000 l    df *ABS*	00000000 exit.c
00000000 l    df *ABS*	00000000 memcmp.c
00000000 l    df *ABS*	00000000 __atexit.c
00000000 l    df *ABS*	00000000 __call_atexit.c
0000223c g     O .bss	00000004 alt_instruction_exception_handler
04024500 g     F .text	00000034 __cxa_free_exception
04028140 g     F .text	00000024 putchar
04024a88 g     F .text	00000014 _ZNKSt9type_info15__is_function_pEv
0402ecec g     F .text	00000080 _mprec_log10
04024284 g     F .text	00000024 _ZSt10unexpectedv
0402edf0 g     F .text	00000094 __any_on
040314ac g     F .text	00000060 _isatty_r
00000534 g     O .rodata	00000028 __mprec_tinytens
0403465c g     F .text	0000006c alt_main
04028164 g     F .text	000000cc _puts_r
0004d390 g     O .bss	00000100 alt_irq
04024a38 g     F .text	00000010 _ZN10__cxxabiv115__forced_unwindD1Ev
040228d8 g     F .text	000000a0 _Znaj
0403150c g     F .text	0000006c _lseek_r
04027364 g     F .text	0000002c .hidden _Unwind_GetIPInfo
04036558 g       *ABS*	00000000 __flash_rwdata_start
04032be8 g     F .text	00000090 .hidden __eqdf2
04023c0c g     F .text	00000090 __cxa_rethrow
00002164  w    O .rwdata	00000008 _ZTI7NNLayer
040272b4 g     F .text	00000020 .hidden _Unwind_SjLj_Unregister
040242e4 g     F .text	00000020 _ZSt14set_unexpectedPFvvE
04027348 g     F .text	0000001c .hidden _Unwind_GetIP
0004d490 g       *ABS*	00000000 __alt_heap_start
04028648 g     F .text	00000068 _kill_r
04023ab4 g     F .text	0000001c _ZNSt9bad_allocD2Ev
040280e4 g     F .text	00000048 printf
040315e4 g     F .text	000000a8 _wcrtomb_r
040283bc g     F .text	00000090 _signal_r
0402f6f0 g     F .text	00000068 __sseek
0402cba8 g     F .text	0000001c __sinit
04030df0 g     F .text	0000014c __swbuf_r
04024594 g     F .text	00000038 __cxa_free_dependent_exception
040246c8 g     F .text	0000001c _ZN10__cxxabiv120__si_class_type_infoD2Ev
0402d700 g     F .text	00000088 _setlocale_r
000001ec  w    O .rodata	00000025 _ZTSN10__cxxabiv120__si_class_type_infoE
0402c9ec g     F .text	00000074 __sfmoreglue
040346d8 g     F .text	00000010 __malloc_unlock
040214a0 g     F .text	00000084 _ZN2NN9propagateEPf
04024a38 g     F .text	00000010 _ZN10__cxxabiv115__forced_unwindD2Ev
04023e30 g     F .text	0000002c _ZSt18uncaught_exceptionv
04025288 g     F .text	0000044c .hidden __divsf3
04024b3c g     F .text	0000002c __cxa_deleted_virtual
00002230 g     O .bss	00000004 altera_avalon_timer_ts_freq
00000048  w    O .rodata	00000010 _ZTV2NN
0402dc48 g     F .text	00000164 memmove
04021e68 g     F .text	00000054 _ZN7NNLayerD1Ev
040249c8 g     F .text	00000010 _ZNSt9exceptionD2Ev
0402cb84 g     F .text	00000024 _cleanup
0402ddac g     F .text	000000b4 _Balloc
040201f0 g     F .text	00000048 _ZN5ImageC2Ev
04026110 g     F .text	0000007c .hidden __fixsfsi
04020238 g     F .text	00000058 _ZN5ImageC2Eii
04032c78 g     F .text	000000e4 .hidden __gtdf2
000002f8  w    O .rodata	00000014 _ZTVSt13bad_exception
04035848 g     F .text	00000014 altera_nios2_gen2_irq_init
04020000 g     F .entry	0000001c __reset
04022890  w    F .text	00000048 _ZN3VGA15send_to_displayEv
040273c4 g     F .text	00000014 .hidden _Unwind_GetRegionStart
04021948 g     F .text	00000078 _ZN7NNLayerC2Ev
04020020 g       *ABS*	00000000 __flash_exceptions_start
04031444 g     F .text	00000068 _fstat_r
00002200 g     O .bss	00000004 errno
04022388 g     F .text	00000078 _ZN3VGA3clrEv
04021f00 g     F .text	00000238 _ZN7NNLayer9propagateEPf
0402f654 g     F .text	00000014 __seofread
0402760c g     F .text	00000080 .hidden _Unwind_Backtrace
000021e0 g     O .bss	00000004 pVGA
00002220 g     O .bss	00000004 alt_argv
0000a158 g       *ABS*	00000000 _gp
04025c20 g     F .text	000004f0 .hidden __subsf3
04034164 g     F .text	00000014 getpid
04023860 g     F .text	0000023c __cxa_call_unexpected
04023c9c g     F .text	00000014 __cxa_get_exception_ptr
040211dc g     F .text	0000022c _ZN2NNC1Ei
00000f2c g     O .rwdata	00000180 alt_fd_list
0402812c g     F .text	00000014 _putchar_r
040274f0 g     F .text	00000050 .hidden _Unwind_SjLj_ForcedUnwind
040272fc g     F .text	00000024 .hidden _Unwind_GetCFA
040242a8 g     F .text	00000020 _ZSt13set_terminatePFvvE
0403585c g     F .text	00000084 alt_find_dev
0402daf4 g     F .text	00000154 memcpy
0402167c g     F .text	00000150 _ZN2NN17getMaxOutputValueEv
04024534 g     F .text	00000060 __cxa_allocate_dependent_exception
0402c818 g     F .text	00000018 _cleanup_r
04023ee0 g     F .text	00000024 _ZNK10__cxxabiv117__class_type_info20__do_find_public_srcEiPKvPKS0_S2_
04026cac g     F .text	000000e8 .hidden __floatsidf
040355b4 g     F .text	00000110 alt_io_redirect
04032d5c g     F .text	000000f8 .hidden __ltdf2
04035ed0 g       *ABS*	00000000 __DTOR_END__
04023f04 g     F .text	0000001c _ZN10__cxxabiv117__class_type_infoD1Ev
04028230 g     F .text	00000020 puts
04035a50 g     F .text	00000080 alt_exception_cause_generated_bad_addr
040208d8 g     F .text	00000058 _ZN5Image12source_pixelEii
040210f0 g     F .text	00000060 _ZN5ImageD1Ev
0402f574 g     F .text	00000080 __fpclassifyd
0402ec3c g     F .text	000000b0 __ratio
04020f4c g     F .text	000000e8 _ZN5Image13printToScreenEiiP3VGA
04030d00 g     F .text	00000028 __vfiprintf_internal
0402145c g     F .text	00000044 _ZN2NND0Ev
04034ebc g     F .text	00000160 altera_avalon_jtag_uart_read
04027720 g     F .text	00000020 malloc
040280a8 g     F .text	0000003c _printf_r
04024ce4 g     F .text	00000070 .hidden __udivsi3
04034368 g     F .text	00000090 isatty
0402844c g     F .text	000000c8 _raise_r
00000584 g     O .rodata	000000c8 __mprec_tens
0402d788 g     F .text	00000018 __locale_charset
040359f4 g     F .text	0000005c alt_icache_flush
000021fc g     O .bss	00000004 __malloc_top_pad
040286b0 g     F .text	00000010 _getpid_r
000021a8 g     O .rwdata	00000004 __mb_cur_max
0402d7e8 g     F .text	00000018 _localeconv_r
0402e200 g     F .text	00000048 __i2b
0402d098 g     F .text	000004c8 __sfvwrite_r
040240b4 g     F .text	000000c4 _ZNK10__cxxabiv117__class_type_info10__do_catchEPKSt9type_infoPPvj
04028514 g     F .text	000000b4 __sigtramp_r
040282e4 g     F .text	00000060 _sbrk_r
00000344  w    O .rodata	00000020 _ZTVSt9type_info
04031578 g     F .text	0000006c _read_r
040249e8 g     F .text	00000018 _ZNKSt9exception4whatEv
000021b0 g     O .rwdata	00000004 alt_max_fd
040310fc g     F .text	000000fc _fclose_r
00000170  w    O .rodata	0000000c _ZTISt9bad_alloc
04021b58 g     F .text	0000005c _Z10simpleRandv
0402c7c8 g     F .text	0000003c fflush
000021f8 g     O .bss	00000004 __malloc_max_sbrked_mem
04026d94 g     F .text	0000011c .hidden __extendsfdf2
04032330 g     F .text	000008b8 .hidden __adddf3
040256d4 g     F .text	00000080 .hidden __nesf2
00000220  w    O .rodata	0000002c _ZTVN10__cxxabiv120__si_class_type_infoE
0402e9cc g     F .text	00000118 __b2d
04031dec g     F .text	00000544 .hidden __umoddi3
040345d4 g     F .text	00000088 lseek
04023f60 g     F .text	00000078 _ZNK10__cxxabiv117__class_type_info11__do_upcastEPKS0_PKvRNS0_15__upcast_resultE
04023b10 g     F .text	00000010 _ZdlPv
000021a0 g     O .rwdata	00000004 _global_impure_ptr
04020290 g     F .text	000000b0 _ZN5Image4initEii
0402f004 g     F .text	00000570 _realloc_r
0004d490 g       *ABS*	00000000 __bss_end
04022a24 g     F .text	0000001c _ZSt15get_new_handlerv
04035540 g     F .text	00000074 alt_iic_isr_register
00002240 g     O .bss	0004b000 display
04034914 g     F .text	00000100 alt_tick
04027290 g     F .text	00000024 .hidden _Unwind_SjLj_Register
04031868 g     F .text	00000584 .hidden __udivdi3
04031388 g     F .text	00000030 _fputwc_r
0000055c g     O .rodata	00000028 __mprec_bigtens
0402dfc0 g     F .text	00000110 __s2b
040276fc g     F .text	00000024 abort
00002158  w    O .rwdata	00000008 _ZTI2NN
04033f0c g     F .text	000000b4 .hidden __floatunsidf
0402e6ec g     F .text	0000006c __mcmp
04023d70 g     F .text	000000c0 __cxa_end_catch
0402cc04 g     F .text	00000024 __fp_lock_all
0403551c g     F .text	00000024 alt_ic_irq_enabled
040249d8 g     F .text	00000010 _ZNSt13bad_exceptionD2Ev
040348d4 g     F .text	00000040 alt_alarm_stop
00002238 g     O .bss	00000004 alt_irq_active
04024244 g     F .text	00000024 _ZSt9terminatev
040200fc g     F .exceptions	00000070 alt_irq_handler
000010ac g     O .rwdata	00000028 alt_dev_null
04021408 g     F .text	00000054 _ZN2NND2Ev
04024a58 g     F .text	00000010 _ZN10__cxxabiv119__foreign_exceptionD2Ev
00000190  w    O .rodata	00000022 _ZTSN10__cxxabiv117__class_type_infoE
040352f0 g     F .text	00000024 alt_dcache_flush_all
0402e0d0 g     F .text	00000074 __hi0bits
00002174  w    O .rwdata	00000008 _ZTISt9exception
04033e80 g     F .text	0000008c .hidden __fixdfsi
040201a4 g       *ABS*	00000000 stext
04020a08 g     F .text	00000544 _ZN5Image8apply_NNEP2NNi
040341c0 g     F .text	000001a8 __mcount_record
000021dc g       *ABS*	00000000 __ram_rwdata_end
04024a78 g     F .text	00000010 _ZNSt9type_infoD1Ev
000021b4 g     O .rwdata	00000008 alt_dev_list
04024a58 g     F .text	00000010 _ZN10__cxxabiv119__foreign_exceptionD1Ev
04034a14 g     F .text	000000d0 write
0402ee84 g     F .text	000000ac _putc_r
04024ab0 g     F .text	00000010 _ZNSt9type_infoD0Ev
04025754 g     F .text	000000c4 .hidden __gtsf2
00000688 g       *ABS*	00000000 __ram_rodata_end
040340e0 g     F .text	00000084 fstat
040343f8 g     F .text	00000104 kill
04032d5c g     F .text	000000f8 .hidden __ledf2
04021150  w    F .text	0000008c _ZN3VGA15Set_Pixel_ColorEjjj
0402e44c g     F .text	0000014c __pow5mult
0402f898 g     F .text	00001468 ___vfiprintf_internal_r
0000220c g     O .bss	00000004 __nlocale_changed
04024d54 g     F .text	00000060 .hidden __umodsi3
04024a9c g     F .text	00000014 _ZNKSt9type_info11__do_upcastEPKN10__cxxabiv117__class_type_infoEPPv
040242c8 g     F .text	0000001c _ZSt13get_terminatev
0004d490 g       *ABS*	00000000 end
040275e8 g     F .text	00000024 .hidden _Unwind_DeleteException
000021dc g     O .bss	00000004 my_debug
04021034 g     F .text	000000bc _ZN5Image5printEv
04034d60 g     F .text	00000084 altera_avalon_jtag_uart_init
0402016c g     F .exceptions	00000038 alt_instruction_exception_entry
04023fd8 g     F .text	000000dc _ZNK10__cxxabiv117__class_type_info12__do_dyncastEiNS0_10__sub_kindEPKS0_PKvS3_S5_RNS0_16__dyncast_resultE
04035ec9 g       *ABS*	00000000 __CTOR_LIST__
04000000 g       *ABS*	00000000 __alt_stack_pointer
04035210 g     F .text	00000054 alt_avalon_timer_sc_init
0402768c g     F .text	00000070 .hidden __clzsi2
04023e5c g     F .text	00000084 _ZNK10__cxxabiv117__class_type_info11__do_upcastEPKS0_PPv
0403501c g     F .text	000001ac altera_avalon_jtag_uart_write
0402cbc4 g     F .text	00000010 __sfp_lock_acquire
00000280  w    O .rodata	00000012 _ZTSSt13bad_exception
04021854 g     F .text	000000f4 _ZN2NN12printOutputsEv
04035e6c g       *ABS*	00000000 etext
0402da04 g     F .text	000000f0 memchr
04028844 g     F .text	00002204 ___vfprintf_internal_r
0402cd7c g     F .text	0000031c _free_r
040219c0 g     F .text	00000068 _ZN7NNLayerC2Eiii
0402d7a0 g     F .text	0000001c __locale_mb_cur_max
04035ce0 g     F .text	0000018c __call_exitprocs
00002208 g     O .bss	00000004 __mlocale_changed
00002198 g     O .rwdata	00000004 __malloc_sbrk_base
040201a4 g     F .text	0000004c _start
0000222c g     O .bss	00000004 _alt_tick_rate
04021e10 g     F .text	00000058 _ZN7NNLayer9demo_initEiiii
00000334  w    O .rodata	0000000d _ZTSSt9type_info
04023a9c g     F .text	00000018 _ZNKSt9bad_alloc4whatEv
04028274 g     F .text	00000070 rand
04024b10 g     F .text	0000002c __cxa_pure_virtual
0402e598 g     F .text	00000154 __lshift
0000017c  w    O .rodata	00000014 _ZTVSt9bad_alloc
00002228 g     O .bss	00000004 _alt_nticks
040285e8 g     F .text	00000024 signal
04034784 g     F .text	000000d4 read
04034b10 g     F .text	00000078 alt_sys_init
0402618c g     F .text	00000130 .hidden __floatsisf
040210f0 g     F .text	00000060 _ZN5ImageD2Ev
04035bbc g     F .text	00000124 __register_exitproc
00000160  w    O .rodata	0000000d _ZTSSt9bad_alloc
04024724 g     F .text	0000016c _ZNK10__cxxabiv120__si_class_type_info12__do_dyncastEiNS_17__class_type_info10__sub_kindEPKS1_PKvS4_S6_RNS1_16__dyncast_resultE
000010d4 g     O .rwdata	00000024 alt_gmon_data
0402e248 g     F .text	00000204 __multiply
040346e8 g       .text	00000000 mcount
04034de4 g     F .text	00000058 altera_avalon_jtag_uart_close
00000688 g       *ABS*	00000000 __ram_rwdata_start
04027414 g     F .text	000000dc .hidden _Unwind_SjLj_RaiseException
00000000 g       *ABS*	00000000 __ram_rodata_start
0004d250 g     O .bss	00000028 __malloc_current_mallinfo
04027540 g     F .text	00000050 .hidden _Unwind_SjLj_Resume
040256d4 g     F .text	00000080 .hidden __eqsf2
0402eae4 g     F .text	00000158 __d2b
00000320  w    O .rodata	00000014 _ZTVN10__cxxabiv119__foreign_exceptionE
04024a78 g     F .text	00000010 _ZNSt9type_infoD2Ev
04024a68 g     F .text	00000010 _ZN10__cxxabiv119__foreign_exceptionD0Ev
04024938 g     F .text	00000090 _ZNK10__cxxabiv120__si_class_type_info11__do_upcastEPKNS_17__class_type_infoEPKvRNS1_15__upcast_resultE
04034b88 g     F .text	0000001c altera_avalon_jtag_uart_read_fd
04035998 g     F .text	0000005c alt_get_fd
04021c64 g     F .text	00000058 _ZN7NNLayer6MYrandEi
04022840  w    F .text	00000050 _ZN3VGAC2Eii
00002184  w    O .rwdata	00000008 _ZTIN10__cxxabiv119__foreign_exceptionE
04030fcc g     F .text	00000060 _close_r
04021ebc g     F .text	00000044 _ZN7NNLayerD0Ev
00002160  w    O .rwdata	00000004 _ZTS2NN
04035b34 g     F .text	00000088 memcmp
04034bc0 g     F .text	0000001c altera_avalon_jtag_uart_close_fd
0004d490 g       *ABS*	00000000 __alt_stack_base
04034bdc g     F .text	00000018 altera_avalon_jtag_uart_ioctl_fd
04023ad0 g     F .text	00000040 _ZNSt9bad_allocD0Ev
040246c8 g     F .text	0000001c _ZN10__cxxabiv120__si_class_type_infoD1Ev
0402ab38 g     F .text	00000160 __swsetup_r
04027590 g     F .text	00000058 .hidden _Unwind_SjLj_Resume_or_Rethrow
040263b8 g     F .text	000008f4 .hidden __divdf3
0402ca60 g     F .text	00000124 __sfp
0402ed6c g     F .text	00000084 __copybits
04024a88 g     F .text	00000014 _ZNKSt9type_info14__is_pointer_pEv
00000688 g     O .rwdata	00000408 __malloc_av_
0402cbf4 g     F .text	00000010 __sinit_lock_release
04032e54 g     F .text	00000724 .hidden __muldf3
0402f5f4 g     F .text	00000060 __sread
000002e4  w    O .rodata	00000014 _ZTVSt9exception
04024a48 g     F .text	00000010 _ZN10__cxxabiv115__forced_unwindD0Ev
040358e0 g     F .text	000000b8 alt_find_file
04035314 g     F .text	00000078 alt_dev_llist_insert
040346c8 g     F .text	00000010 __malloc_lock
04034888 g     F .text	0000004c sbrk
000001c0  w    O .rodata	0000002c _ZTVN10__cxxabiv117__class_type_infoE
04023b70 g     F .text	0000009c __cxa_throw
0402c760 g     F .text	00000068 _fflush_r
04027390 g     F .text	0000001c .hidden _Unwind_SetIP
0403102c g     F .text	000000d0 _calloc_r
000021dc g       *ABS*	00000000 __bss_start
04027f78 g     F .text	00000130 memset
04022400 g     F .text	00000440 main
0000221c g     O .bss	00000004 alt_envp
000021f4 g     O .bss	00000004 __malloc_max_total_mem
04034ba4 g     F .text	0000001c altera_avalon_jtag_uart_write_fd
04030f3c g     F .text	00000024 __swbuf
04028250 g     F .text	00000024 srand
04024698 g     F .text	00000018 __cxa_get_globals_fast
04020524 g     F .text	00000058 _ZN5Image17Get_Fractal_ColorEi
04021408 g     F .text	00000054 _ZN2NND1Ev
0402f758 g     F .text	00000014 __sclose
040229f4 g     F .text	00000010 _ZdaPv
04000000 g       *ABS*	00000000 __alt_heap_limit
000000c4  w    O .rodata	00000010 _ZTV7NNLayer
040311f8 g     F .text	00000020 fclose
04026eb0 g     F .text	000001b4 .hidden __truncdfsf2
0402aea4 g     F .text	00001694 _dtoa_r
04027760 g     F .text	00000818 _malloc_r
04031758 g     F .text	0000003c __ascii_wctomb
04024a00 g     F .text	00000018 _ZNKSt13bad_exception4whatEv
000021c4 g     O .rwdata	00000004 alt_errno
0402860c g     F .text	0000001c _init_signal
000001b4  w    O .rodata	0000000c _ZTIN10__cxxabiv117__class_type_infoE
0402d560 g     F .text	000000d0 _fwalk
040249d8 g     F .text	00000010 _ZNSt13bad_exceptionD1Ev
0402057c g     F .text	0000035c _ZN5Image12make_fractalEv
0402ef30 g     F .text	000000d4 putc
04024bd4 g     F .text	00000090 .hidden __divsi3
0402cc4c g     F .text	00000130 _malloc_trim_r
04035ed0 g       *ABS*	00000000 __CTOR_END__
04025818 g     F .text	00000408 .hidden __mulsf3
040286c0 g     F .text	000000e0 strcmp
04035ed0 g       *ABS*	00000000 __flash_rodata_start
0000030c  w    O .rodata	00000014 _ZTVN10__cxxabiv115__forced_unwindE
04035ed0 g       *ABS*	00000000 __DTOR_LIST__
04021e68 g     F .text	00000054 _ZN7NNLayerD2Ev
04032be8 g     F .text	00000090 .hidden __nedf2
04034ae4 g     F .text	0000002c alt_irq_init
04034858 g     F .text	00000030 alt_release_fd
04021bb4 g     F .text	000000b0 _ZN7NNLayer15rand_FloatRangeEff
040246e4 g     F .text	00000040 _ZN10__cxxabiv120__si_class_type_infoD0Ev
04022840  w    F .text	00000050 _ZN3VGAC1Eii
0000039f g     O .rodata	00000100 .hidden __clz_tab
04021a28 g     F .text	00000130 _ZN7NNLayer4initEiii
00002204 g     O .bss	00000004 _PathLocale
04035ad0 g     F .text	00000020 atexit
04025754 g     F .text	000000c4 .hidden __gesf2
04030f60 g     F .text	0000006c _write_r
040203e4 g     F .text	00000140 _ZN5Image17Get_Fractal_LevelEff
0402d800 g     F .text	00000024 setlocale
04027400 g     F .text	00000014 .hidden _Unwind_GetTextRelBase
04024634 g     F .text	00000064 __cxa_call_terminate
000021a4 g     O .rwdata	00000004 _impure_ptr
0000217c  w    O .rwdata	00000008 _ZTIN10__cxxabiv115__forced_unwindE
00002224 g     O .bss	00000004 alt_argc
0402c538 g     F .text	00000228 __sflush_r
00002234 g     O .bss	00000004 altera_avalon_timer_ts_base
040353fc g     F .text	00000070 _do_dtors
0402d7d4 g     F .text	00000014 __locale_cjk_lang
04022138 g     F .text	000000a0 _ZN7NNLayer16print_activationEv
04020340 g     F .text	000000a4 _ZN5Image9randomizeEv
040201f0 g     F .text	00000048 _ZN5ImageC1Ev
04024304 g     F .text	0000001c _ZSt14get_unexpectedv
04020020 g       .exceptions	00000000 alt_irq_entry
0402e960 g     F .text	0000006c __ulp
040273d8 g     F .text	00000014 .hidden _Unwind_FindEnclosingFunction
0402cc28 g     F .text	00000024 __fp_unlock_all
000021bc g     O .rwdata	00000008 alt_fs_list
000002c0  w    O .rodata	00000024 _ZTSN10__cxxabiv119__foreign_exceptionE
040273ac g     F .text	00000018 .hidden _Unwind_GetLanguageSpecificData
04023cb0 g     F .text	000000c0 __cxa_begin_catch
04023f04 g     F .text	0000001c _ZN10__cxxabiv117__class_type_infoD2Ev
04024268 g     F .text	0000001c _ZN10__cxxabiv112__unexpectedEPFvvE
04020020 g       *ABS*	00000000 __ram_exceptions_start
0402d824 g     F .text	00000018 localeconv
04020000 g       *ABS*	00000000 __alt_mem_onchip_memory2
04024a28 g     F .text	00000010 _ZNSt13bad_exceptionD0Ev
000000d4  w    O .rodata	00000009 _ZTS7NNLayer
0000218c g     O .rwdata	00000004 _ZN10__cxxabiv119__terminate_handlerE
04035484 g     F .text	00000010 alt_ic_isr_register
04024494 g     F .text	0000006c __cxa_allocate_exception
04020930 g     F .text	000000d8 _ZN5Image7make_bwEv
00000214  w    O .rodata	0000000c _ZTIN10__cxxabiv120__si_class_type_infoE
04022a04 g     F .text	00000020 _ZSt15set_new_handlerPFvvE
000021dc g       *ABS*	00000000 _edata
04021948 g     F .text	00000078 _ZN7NNLayerC1Ev
0004d490 g       *ABS*	00000000 _end
0000216c g     O .rwdata	00000001 _ZSt7nothrow
04023254 g     F .text	0000060c __gxx_personality_sj0
04031218 g     F .text	00000170 __fputwc
040201a4 g       *ABS*	00000000 __ram_exceptions_end
04034e3c g     F .text	00000080 altera_avalon_jtag_uart_ioctl
040249c8 g     F .text	00000010 _ZNSt9exceptionD1Ev
040354d8 g     F .text	00000044 alt_ic_irq_disable
04021cbc g     F .text	00000154 _ZN7NNLayer11random_initEiii
0402f668 g     F .text	00000088 __swrite
04022978 g     F .text	0000007c _Znwj
0000219c g     O .rwdata	00000004 __malloc_trim_threshold
040219c0 g     F .text	00000068 _ZN7NNLayerC1Eiii
0402d7bc g     F .text	00000018 __locale_msgcharset
04035af0 g     F .text	00000044 exit
04027320 g     F .text	00000028 .hidden _Unwind_SetGR
0402d630 g     F .text	000000d0 _fwalk_reent
04024890 g     F .text	000000a8 _ZNK10__cxxabiv120__si_class_type_info20__do_find_public_srcEiPKvPKNS_17__class_type_infoES2_
040262bc g     F .text	000000fc .hidden __floatunsisf
0402e758 g     F .text	00000208 __mdiff
04024178 g     F .text	000000cc _ZN10__cxxabiv111__terminateEPFvvE
04024c64 g     F .text	00000080 .hidden __modsi3
04023ab4 g     F .text	0000001c _ZNSt9bad_allocD1Ev
04000000 g       *ABS*	00000000 __alt_data_end
04020020 g     F .exceptions	00000000 alt_exception
0402cbd4 g     F .text	00000010 __sfp_lock_release
00000294  w    O .rodata	0000000c _ZTISt13bad_exception
00000000 g       *ABS*	00000000 __alt_mem_sdram
040221d8 g     F .text	000001b0 _ZN7NNLayer5printEv
04024b68 g     F .text	0000006c .hidden __fixunssfsi
0403409c g     F .text	00000044 _exit
04035264 g     F .text	0000008c alt_alarm_start
040317fc g     F .text	0000006c .hidden __muldi3
0004d290 g     O .bss	00000100 __mcount_fn_head
040272d4 g     F .text	00000028 .hidden _Unwind_GetGR
040246b0 g     F .text	00000018 __cxa_get_globals
0402d83c g     F .text	000001c8 __smakebuf_r
00002170 g     O .rwdata	00000004 _ZN10__cxxabiv120__unexpected_handlerE
040217cc g     F .text	00000088 _ZN2NN5printEv
040287a0 g     F .text	000000a4 strlen
04028344 g     F .text	00000078 _init_signal_r
00002190  w    O .rwdata	00000008 _ZTISt9type_info
040356c4 g     F .text	00000184 open
04032c78 g     F .text	000000e4 .hidden __gedf2
00000270  w    O .rodata	0000000d _ZTSSt9exception
000021ac g     O .rwdata	00000004 __wctomb
04024a18 g     F .text	00000010 _ZNSt9exceptionD0Ev
040211dc g     F .text	0000022c _ZN2NNC2Ei
0402f874 g     F .text	00000024 __sprint_r
0403546c g     F .text	00000018 alt_icache_flush_all
040273ec g     F .text	00000014 .hidden _Unwind_GetDataRelBase
000021d8 g     O .rwdata	00000004 alt_priority_mask
04035494 g     F .text	00000044 alt_ic_irq_enable
0402aa48 g     F .text	00000028 __vfprintf_internal
04020238 g     F .text	00000058 _ZN5ImageC1Eii
04031794 g     F .text	00000068 _wctomb_r
04033578 g     F .text	00000908 .hidden __subdf3
0402e144 g     F .text	000000bc __lo0bits
040346e8 g       .text	00000000 _mcount
000021d0 g     O .rwdata	00000008 alt_alarm_list
0403538c g     F .text	00000070 _do_ctors
04028628 g     F .text	00000020 __sigtramp
0403168c g     F .text	000000cc wcrtomb
04033fc0 g     F .text	000000c8 close
04024db4 g     F .text	000004d4 .hidden __addsf3
000002a0  w    O .rodata	00000020 _ZTSN10__cxxabiv115__forced_unwindE
040344fc g     F .text	000000d8 alt_load
04024ac0 g     F .text	00000050 _ZNKSt9type_info10__do_catchEPKS_PPvj
04021524 g     F .text	00000158 _ZN2NN17getMaxOutputIndexEv
040313b8 g     F .text	0000008c fputwc
040285c8 g     F .text	00000020 raise
04027740 g     F .text	00000020 free
0402cbe4 g     F .text	00000010 __sinit_lock_acquire
0402de94 g     F .text	0000012c __multadd
04023f20 g     F .text	00000040 _ZN10__cxxabiv117__class_type_infoD0Ev
0402de60 g     F .text	00000034 _Bfree



Disassembly of section .entry:

04020000 <__reset>:
#if NIOS2_ICACHE_SIZE > 0 && defined(ALT_ALLOW_CODE_AT_RESET) && (!defined(ALT_SIM_OPTIMIZE) || defined(NIOS2_ECC_PRESENT))
    /* Assume the instruction cache size is always a power of two. */
#if NIOS2_ICACHE_SIZE > 0x8000
    movhi r2, %hi(NIOS2_ICACHE_SIZE)
#else
    movui r2, NIOS2_ICACHE_SIZE
 4020000:	00840014 	movui	r2,4096
#endif

0:
    initi r2
 4020004:	1001483a 	initi	r2
    addi r2, r2, -NIOS2_ICACHE_LINE_SIZE
 4020008:	10bff804 	addi	r2,r2,-32
    bgt r2, zero, 0b
 402000c:	00bffd16 	blt	zero,r2,4020004 <__flash_rwdata_start+0xfffe9aac>
 * Jump to the _start entry point in the .text section if reset code
 * is allowed or if optimizing for RTL simulation.
 */
#if defined(ALT_ALLOW_CODE_AT_RESET) || defined(ALT_SIM_OPTIMIZE)
    /* Jump to the _start entry point in the .text section. */
    movhi r1, %hi(_start)
 4020010:	004100b4 	movhi	at,1026
    ori r1, r1, %lo(_start)
 4020014:	08406914 	ori	at,at,420
    jmp r1
 4020018:	0800683a 	jmp	at
 402001c:	00000000 	call	0 <__alt_mem_sdram>

Disassembly of section .exceptions:

04020020 <alt_exception>:

#else /* ALT_EXCEPTION_STACK disabled */
        /* 
         * Reserve space on normal stack for registers about to be pushed.
         */
        addi  sp, sp, -76
 4020020:	deffed04 	addi	sp,sp,-76
         * documentation for details).
         *
         * Leave a gap in the stack frame at 4(sp) for the muldiv handler to
         * store zero into.
         */
        stw   ra,  0(sp)
 4020024:	dfc00015 	stw	ra,0(sp)
        stw   r1,   8(sp)
 4020028:	d8400215 	stw	at,8(sp)
        stw   r2,  12(sp)
 402002c:	d8800315 	stw	r2,12(sp)
        stw   r3,  16(sp)
 4020030:	d8c00415 	stw	r3,16(sp)
        stw   r4,  20(sp)
 4020034:	d9000515 	stw	r4,20(sp)
        stw   r5,  24(sp)
 4020038:	d9400615 	stw	r5,24(sp)
        stw   r6,  28(sp)
 402003c:	d9800715 	stw	r6,28(sp)
        stw   r7,  32(sp)
 4020040:	d9c00815 	stw	r7,32(sp)
        rdctl r5, estatus   /* Read early to avoid usage stall */
 4020044:	000b307a 	rdctl	r5,estatus
        stw   r8,  36(sp)
 4020048:	da000915 	stw	r8,36(sp)
        stw   r9,  40(sp)
 402004c:	da400a15 	stw	r9,40(sp)
        stw   r10, 44(sp)
 4020050:	da800b15 	stw	r10,44(sp)
        stw   r11, 48(sp)
 4020054:	dac00c15 	stw	r11,48(sp)
        stw   r12, 52(sp)
 4020058:	db000d15 	stw	r12,52(sp)
        stw   r13, 56(sp)
 402005c:	db400e15 	stw	r13,56(sp)
        stw   r14, 60(sp)
 4020060:	db800f15 	stw	r14,60(sp)
        stw   r15, 64(sp)
 4020064:	dbc01015 	stw	r15,64(sp)
        /*
         * ea-4 contains the address of the instruction being executed
         * when the exception occured. For interrupt exceptions, we will
         * will be re-issue the isntruction. Store it in 72(sp)
         */
        stw   r5,  68(sp)  /* estatus */
 4020068:	d9401115 	stw	r5,68(sp)
        addi  r15, ea, -4  /* instruction that caused exception */
 402006c:	ebffff04 	addi	r15,ea,-4
        stw   r15,  72(sp)
 4020070:	dbc01215 	stw	r15,72(sp)
#else
        /*
         * Test to see if the exception was a software exception or caused 
         * by an external interrupt, and vector accordingly.
         */
        rdctl r4, ipending
 4020074:	0009313a 	rdctl	r4,ipending
        andi  r2, r5, 1
 4020078:	2880004c 	andi	r2,r5,1
        beq   r2, zero, .Lnot_irq
 402007c:	10000326 	beq	r2,zero,402008c <alt_exception+0x6c>
        beq   r4, zero, .Lnot_irq
 4020080:	20000226 	beq	r4,zero,402008c <alt_exception+0x6c>
        /*
         * Now that all necessary registers have been preserved, call 
         * alt_irq_handler() to process the interrupts.
         */

        call alt_irq_handler
 4020084:	40200fc0 	call	40200fc <alt_irq_handler>

        .section .exceptions.irqreturn, "xa"

        br    .Lexception_exit
 4020088:	00000706 	br	40200a8 <alt_exception+0x88>
         * upon completion, so we write ea (address of instruction *after*
         * the one where the exception occured) into 72(sp). The actual
         * instruction that caused the exception is written in r2, which these
         * handlers will utilize.
         */
        stw ea, 72(sp) /* EA is PC+4 so will skip over instruction causing exception */
 402008c:	df401215 	stw	ea,72(sp)
.Lunknown_16bit:
        addi.n r4, r4, 2 /* Need PC+2 to skip over instruction causing exception */
        stw r4, 72(sp)

#else /* CDX is not Enabled and all instructions are 32bits */
        ldw r2, -4(ea) /* Instruction value that caused exception */
 4020090:	e8bfff17 	ldw	r2,-4(ea)
         * debugger is present) or go into an infinite loop since the
         * handling behavior is undefined; in that case we will not return here.
         */

        /* Load exception-causing address as first argument (r4) */
        addi   r4, ea, -4
 4020094:	e93fff04 	addi	r4,ea,-4

        /* Call the instruction-exception entry */
        call   alt_instruction_exception_entry
 4020098:	402016c0 	call	402016c <alt_instruction_exception_entry>
         * instruction
         *
         * Return code was 0: Skip. The instruction after the exception is
         * already stored in 72(sp).
         */
        bne   r2, r0, .Lexception_exit
 402009c:	1000021e 	bne	r2,zero,40200a8 <alt_exception+0x88>

        /*
         * Otherwise, modify 72(sp) to re-issue the instruction that caused the
         * exception.
         */
        addi  r15, ea, -4  /* instruction that caused exception */
 40200a0:	ebffff04 	addi	r15,ea,-4
        stw   r15,  72(sp)
 40200a4:	dbc01215 	stw	r15,72(sp)
        /* 
         * Restore the saved registers, so that all general purpose registers 
         * have been restored to their state at the time the interrupt occured.
         */

        ldw   r5,  68(sp)
 40200a8:	d9401117 	ldw	r5,68(sp)
        ldw   ea,  72(sp)  /* This becomes the PC once eret is executed */
 40200ac:	df401217 	ldw	ea,72(sp)
        ldw   ra,   0(sp)
 40200b0:	dfc00017 	ldw	ra,0(sp)

        wrctl estatus, r5
 40200b4:	2801707a 	wrctl	estatus,r5

        ldw   r1,   8(sp)
 40200b8:	d8400217 	ldw	at,8(sp)
        ldw   r2,  12(sp)
 40200bc:	d8800317 	ldw	r2,12(sp)
        ldw   r3,  16(sp)
 40200c0:	d8c00417 	ldw	r3,16(sp)
        ldw   r4,  20(sp)
 40200c4:	d9000517 	ldw	r4,20(sp)
        ldw   r5,  24(sp)
 40200c8:	d9400617 	ldw	r5,24(sp)
        ldw   r6,  28(sp)
 40200cc:	d9800717 	ldw	r6,28(sp)
        ldw   r7,  32(sp)
 40200d0:	d9c00817 	ldw	r7,32(sp)

#if defined(ALT_EXCEPTION_STACK) && defined(ALT_STACK_CHECK)
        ldw   et, %gprel(alt_exception_old_stack_limit)(gp)
#endif

        ldw   r8,  36(sp)
 40200d4:	da000917 	ldw	r8,36(sp)
        ldw   r9,  40(sp)
 40200d8:	da400a17 	ldw	r9,40(sp)
        ldw   r10, 44(sp)
 40200dc:	da800b17 	ldw	r10,44(sp)
        ldw   r11, 48(sp)
 40200e0:	dac00c17 	ldw	r11,48(sp)
        ldw   r12, 52(sp)
 40200e4:	db000d17 	ldw	r12,52(sp)
        ldw   r13, 56(sp)
 40200e8:	db400e17 	ldw	r13,56(sp)
        ldw   r14, 60(sp)
 40200ec:	db800f17 	ldw	r14,60(sp)
        ldw   r15, 64(sp)
 40200f0:	dbc01017 	ldw	r15,64(sp)
        stw   et, %gprel(alt_stack_limit_value)(gp)
        stw   zero, %gprel(alt_exception_old_stack_limit)(gp)
#endif /* ALT_STACK_CHECK */
        ldw   sp,  76(sp)
#else /* ALT_EXCEPTION_STACK disabled */
        addi  sp, sp, 76
 40200f4:	dec01304 	addi	sp,sp,76

        /*
         * Return to the interrupted instruction.
         */

        eret
 40200f8:	ef80083a 	eret

040200fc <alt_irq_handler>:
 * instruction is present if the macro ALT_CI_INTERRUPT_VECTOR defined.
 */

void alt_irq_handler (void) __attribute__ ((section (".exceptions")));
void alt_irq_handler (void)
{
 40200fc:	f811883a 	mov	r8,ra
 4020100:	40346e80 	call	40346e8 <_mcount>
 4020104:	403f883a 	mov	ra,r8
 4020108:	defffe04 	addi	sp,sp,-8
 402010c:	dfc00115 	stw	ra,4(sp)
 4020110:	dc000015 	stw	r16,0(sp)
#ifndef NIOS2_EIC_PRESENT
static ALT_INLINE alt_u32 ALT_ALWAYS_INLINE alt_irq_pending (void)
{
  alt_u32 active;

  NIOS2_READ_IPENDING (active);
 4020114:	000b313a 	rdctl	r5,ipending
 4020118:	04000174 	movhi	r16,5
 402011c:	8434e404 	addi	r16,r16,-11376
     * called to clear the interrupt condition.
     */

    do
    {
      if (active & mask)
 4020120:	2880004c 	andi	r2,r5,1

  active = alt_irq_pending ();

  do
  {
    i = 0;
 4020124:	0007883a 	mov	r3,zero
     * called to clear the interrupt condition.
     */

    do
    {
      if (active & mask)
 4020128:	1000051e 	bne	r2,zero,4020140 <alt_irq_handler+0x44>
 402012c:	00800044 	movi	r2,1
#else
        alt_irq[i].handler(alt_irq[i].context, i); 
#endif
        break;
      }
      mask <<= 1;
 4020130:	1085883a 	add	r2,r2,r2
     * called to clear the interrupt condition.
     */

    do
    {
      if (active & mask)
 4020134:	2888703a 	and	r4,r5,r2
        alt_irq[i].handler(alt_irq[i].context, i); 
#endif
        break;
      }
      mask <<= 1;
      i++;
 4020138:	18c00044 	addi	r3,r3,1
     * called to clear the interrupt condition.
     */

    do
    {
      if (active & mask)
 402013c:	203ffc26 	beq	r4,zero,4020130 <__flash_rwdata_start+0xfffe9bd8>
      { 
#ifdef ALT_ENHANCED_INTERRUPT_API_PRESENT
        alt_irq[i].handler(alt_irq[i].context); 
 4020140:	180690fa 	slli	r3,r3,3
 4020144:	80c7883a 	add	r3,r16,r3
 4020148:	18800017 	ldw	r2,0(r3)
 402014c:	19000117 	ldw	r4,4(r3)
 4020150:	103ee83a 	callr	r2
 4020154:	000b313a 	rdctl	r5,ipending

    } while (1);

    active = alt_irq_pending ();
    
  } while (active);
 4020158:	283ff11e 	bne	r5,zero,4020120 <__flash_rwdata_start+0xfffe9bc8>
  /*
   * Notify the operating system that interrupt processing is complete.
   */ 

  ALT_OS_INT_EXIT();
}
 402015c:	dfc00117 	ldw	ra,4(sp)
 4020160:	dc000017 	ldw	r16,0(sp)
 4020164:	dec00204 	addi	sp,sp,8
 4020168:	f800283a 	ret

0402016c <alt_instruction_exception_entry>:
 * that handler if it has been registered. Absent a handler, it will
 * break break or hang as discussed below.
 */
int 
alt_instruction_exception_entry (alt_u32 exception_pc)
{
 402016c:	f811883a 	mov	r8,ra
 4020170:	40346e80 	call	40346e8 <_mcount>
 4020174:	403f883a 	mov	ra,r8
 4020178:	200b883a 	mov	r5,r4
 * NIOS2_EXCEPTION_CAUSE_NOT_PRESENT. Your handling routine should
 * check the validity of the cause argument before proceeding.
 */
#ifdef NIOS2_HAS_EXTRA_EXCEPTION_INFO
  /* Get exception cause & "badaddr" */
  NIOS2_READ_EXCEPTION(cause);
 402017c:	000931fa 	rdctl	r4,exception
  cause = ( (cause & NIOS2_EXCEPTION_REG_CAUSE_MASK) >>
              NIOS2_EXCEPTION_REG_CAUSE_OFST );

  NIOS2_READ_BADADDR(badaddr);
 4020180:	000d333a 	rdctl	r6,badaddr
#else
  cause = NIOS2_EXCEPTION_CAUSE_NOT_PRESENT;
  badaddr = 0;
#endif /* NIOS2_HAS_EXTRA_EXCEPTION_INFO */

  if(alt_instruction_exception_handler) {
 4020184:	d0a03917 	ldw	r2,-32540(gp)
 4020188:	10000326 	beq	r2,zero,4020198 <alt_instruction_exception_entry+0x2c>
 * check the validity of the cause argument before proceeding.
 */
#ifdef NIOS2_HAS_EXTRA_EXCEPTION_INFO
  /* Get exception cause & "badaddr" */
  NIOS2_READ_EXCEPTION(cause);
  cause = ( (cause & NIOS2_EXCEPTION_REG_CAUSE_MASK) >>
 402018c:	21001f0c 	andi	r4,r4,124
     * Call handler. Its return value indicates whether the exception-causing
     * instruction should be re-issued. The code that called us,
     * alt_eceptions_entry.S, will look at this value and adjust the ea
     * register as necessary
     */
    return alt_instruction_exception_handler(cause, exception_pc, badaddr);
 4020190:	2008d0ba 	srli	r4,r4,2
 4020194:	1000683a 	jmp	r2
   *    (a peripheral which negates its interrupt output before its
   *    interrupt handler has been executed will cause spurious interrupts)
   */
  else {
#ifdef NIOS2_HAS_DEBUG_STUB
    NIOS2_BREAK();
 4020198:	003da03a 	break	0
#endif /* NIOS2_HAS_DEBUG_STUB */
  }

  /* We should not get here. Remove compiler warning. */
  return NIOS2_EXCEPTION_RETURN_REISSUE_INST;
}
 402019c:	0005883a 	mov	r2,zero
 40201a0:	f800283a 	ret

Disassembly of section .text:

040201a4 <_start>:

    /* Assume the data cache size is always a power of two. */
#if NIOS2_DCACHE_SIZE > 0x8000
    movhi r2, %hi(NIOS2_DCACHE_SIZE)
#else
    movui r2, NIOS2_DCACHE_SIZE
 40201a4:	00820014 	movui	r2,2048
#endif

0:
    initd 0(r2)
 40201a8:	10000033 	initd	0(r2)
#ifdef NIOS2_ECC_PRESENT
    addi r2, r2, -4
#else
    addi r2, r2, -NIOS2_DCACHE_LINE_SIZE
 40201ac:	10bff804 	addi	r2,r2,-32
#endif
    bgt r2, zero, 0b
 40201b0:	00bffd16 	blt	zero,r2,40201a8 <__flash_rwdata_start+0xfffe9c50>

    /*
     * Now that the caches are initialized, set up the stack pointer and global pointer.
     * The values provided by the linker are assumed to be correctly aligned.
     */
    movhi sp, %hi(__alt_stack_pointer)
 40201b4:	06c10034 	movhi	sp,1024
    ori sp, sp, %lo(__alt_stack_pointer)
 40201b8:	dec00014 	ori	sp,sp,0
    movhi gp, %hi(_gp)
 40201bc:	06800034 	movhi	gp,0
    ori gp, gp, %lo(_gp)
 40201c0:	d6a85614 	ori	gp,gp,41304
 */
#ifndef ALT_SIM_OPTIMIZE
    /* Log that the BSS is about to be cleared. */
    ALT_LOG_PUTS(alt_log_msg_bss)

    movhi r2, %hi(__bss_start)
 40201c4:	00800034 	movhi	r2,0
    ori r2, r2, %lo(__bss_start)
 40201c8:	10887714 	ori	r2,r2,8668

    movhi r3, %hi(__bss_end)
 40201cc:	00c00134 	movhi	r3,4
    ori r3, r3, %lo(__bss_end)
 40201d0:	18f52414 	ori	r3,r3,54416

    beq r2, r3, 1f
 40201d4:	10c00326 	beq	r2,r3,40201e4 <_start+0x40>

0:
    stw zero, (r2)
 40201d8:	10000015 	stw	zero,0(r2)
    addi r2, r2, 4
 40201dc:	10800104 	addi	r2,r2,4
    bltu r2, r3, 0b
 40201e0:	10fffd36 	bltu	r2,r3,40201d8 <__flash_rwdata_start+0xfffe9c80>
     * section aren't defined until alt_load() has been called).
     */
    mov   et, zero
#endif

    call alt_load
 40201e4:	40344fc0 	call	40344fc <alt_load>

    /* Log that alt_main is about to be called. */
    ALT_LOG_PUTS(alt_log_msg_alt_main)

    /* Call the C entry point. It should never return. */
    call alt_main
 40201e8:	403465c0 	call	403465c <alt_main>

040201ec <alt_after_alt_main>:

    /* Wait in infinite loop in case alt_main does return. */
alt_after_alt_main:
    br alt_after_alt_main
 40201ec:	003fff06 	br	40201ec <__flash_rwdata_start+0xfffe9c94>

040201f0 <_ZN5ImageC1Ev>:

#include "stdio.h"
#include "io.h"
#include "system.h"

Image::Image() {
 40201f0:	f811883a 	mov	r8,ra
 40201f4:	40346e80 	call	40346e8 <_mcount>
 40201f8:	403f883a 	mov	ra,r8
 40201fc:	defffe04 	addi	sp,sp,-8
 4020200:	df000115 	stw	fp,4(sp)
 4020204:	df000104 	addi	fp,sp,4
 4020208:	e13fff15 	stw	r4,-4(fp)
	// TODO Auto-generated constructor stub
	source_array = 0;
 402020c:	e0bfff17 	ldw	r2,-4(fp)
 4020210:	10000215 	stw	zero,8(r2)
	length = 0;
 4020214:	e0bfff17 	ldw	r2,-4(fp)
 4020218:	10000115 	stw	zero,4(r2)
	height = 0;
 402021c:	e0bfff17 	ldw	r2,-4(fp)
 4020220:	10000015 	stw	zero,0(r2)
}
 4020224:	0001883a 	nop
 4020228:	e037883a 	mov	sp,fp
 402022c:	df000017 	ldw	fp,0(sp)
 4020230:	dec00104 	addi	sp,sp,4
 4020234:	f800283a 	ret

04020238 <_ZN5ImageC1Eii>:

Image::Image(int new_length, int new_height) {
 4020238:	f811883a 	mov	r8,ra
 402023c:	40346e80 	call	40346e8 <_mcount>
 4020240:	403f883a 	mov	ra,r8
 4020244:	defffb04 	addi	sp,sp,-20
 4020248:	dfc00415 	stw	ra,16(sp)
 402024c:	df000315 	stw	fp,12(sp)
 4020250:	df000304 	addi	fp,sp,12
 4020254:	e13ffd15 	stw	r4,-12(fp)
 4020258:	e17ffe15 	stw	r5,-8(fp)
 402025c:	e1bfff15 	stw	r6,-4(fp)
	// TODO Auto-generated constructor stub
	source_array = 0;
 4020260:	e0bffd17 	ldw	r2,-12(fp)
 4020264:	10000215 	stw	zero,8(r2)
	init(new_length, new_height);
 4020268:	e1bfff17 	ldw	r6,-4(fp)
 402026c:	e17ffe17 	ldw	r5,-8(fp)
 4020270:	e13ffd17 	ldw	r4,-12(fp)
 4020274:	40202900 	call	4020290 <_ZN5Image4initEii>
}
 4020278:	0001883a 	nop
 402027c:	e037883a 	mov	sp,fp
 4020280:	dfc00117 	ldw	ra,4(sp)
 4020284:	df000017 	ldw	fp,0(sp)
 4020288:	dec00204 	addi	sp,sp,8
 402028c:	f800283a 	ret

04020290 <_ZN5Image4initEii>:

void Image::init(int new_length, int new_height) {
 4020290:	f811883a 	mov	r8,ra
 4020294:	40346e80 	call	40346e8 <_mcount>
 4020298:	403f883a 	mov	ra,r8
 402029c:	defffb04 	addi	sp,sp,-20
 40202a0:	dfc00415 	stw	ra,16(sp)
 40202a4:	df000315 	stw	fp,12(sp)
 40202a8:	df000304 	addi	fp,sp,12
 40202ac:	e13ffd15 	stw	r4,-12(fp)
 40202b0:	e17ffe15 	stw	r5,-8(fp)
 40202b4:	e1bfff15 	stw	r6,-4(fp)
	// TODO Auto-generated constructor stub
	length = new_length;
 40202b8:	e0bffd17 	ldw	r2,-12(fp)
 40202bc:	e0fffe17 	ldw	r3,-8(fp)
 40202c0:	10c00115 	stw	r3,4(r2)
	height = new_height;
 40202c4:	e0bffd17 	ldw	r2,-12(fp)
 40202c8:	e0ffff17 	ldw	r3,-4(fp)
 40202cc:	10c00015 	stw	r3,0(r2)
	if (source_array != 0) delete[] source_array;
 40202d0:	e0bffd17 	ldw	r2,-12(fp)
 40202d4:	10800217 	ldw	r2,8(r2)
 40202d8:	10000726 	beq	r2,zero,40202f8 <_ZN5Image4initEii+0x68>
 40202dc:	e0bffd17 	ldw	r2,-12(fp)
 40202e0:	10800217 	ldw	r2,8(r2)
 40202e4:	10000426 	beq	r2,zero,40202f8 <_ZN5Image4initEii+0x68>
 40202e8:	e0bffd17 	ldw	r2,-12(fp)
 40202ec:	10800217 	ldw	r2,8(r2)
 40202f0:	1009883a 	mov	r4,r2
 40202f4:	40229f40 	call	40229f4 <_ZdaPv>
	source_array = new unsigned char [height*length];
 40202f8:	e0bffd17 	ldw	r2,-12(fp)
 40202fc:	10c00017 	ldw	r3,0(r2)
 4020300:	e0bffd17 	ldw	r2,-12(fp)
 4020304:	10800117 	ldw	r2,4(r2)
 4020308:	1885383a 	mul	r2,r3,r2
 402030c:	1009883a 	mov	r4,r2
 4020310:	40228d80 	call	40228d8 <_Znaj>
 4020314:	1007883a 	mov	r3,r2
 4020318:	e0bffd17 	ldw	r2,-12(fp)
 402031c:	10c00215 	stw	r3,8(r2)
	randomize();
 4020320:	e13ffd17 	ldw	r4,-12(fp)
 4020324:	40203400 	call	4020340 <_ZN5Image9randomizeEv>
}
 4020328:	0001883a 	nop
 402032c:	e037883a 	mov	sp,fp
 4020330:	dfc00117 	ldw	ra,4(sp)
 4020334:	df000017 	ldw	fp,0(sp)
 4020338:	dec00204 	addi	sp,sp,8
 402033c:	f800283a 	ret

04020340 <_ZN5Image9randomizeEv>:

void Image::randomize() {
 4020340:	f811883a 	mov	r8,ra
 4020344:	40346e80 	call	40346e8 <_mcount>
 4020348:	403f883a 	mov	ra,r8
 402034c:	defffa04 	addi	sp,sp,-24
 4020350:	dfc00515 	stw	ra,20(sp)
 4020354:	df000415 	stw	fp,16(sp)
 4020358:	dc000315 	stw	r16,12(sp)
 402035c:	df000404 	addi	fp,sp,16
 4020360:	e13ffe15 	stw	r4,-8(fp)
	for (int y=0; y<height; y++) {
 4020364:	e03ffc15 	stw	zero,-16(fp)
 4020368:	e0bffe17 	ldw	r2,-8(fp)
 402036c:	10800017 	ldw	r2,0(r2)
 4020370:	e0fffc17 	ldw	r3,-16(fp)
 4020374:	1880140e 	bge	r3,r2,40203c8 <_ZN5Image9randomizeEv+0x88>
		for (int x=0; x<length; x++) {
 4020378:	e03ffd15 	stw	zero,-12(fp)
 402037c:	e0bffe17 	ldw	r2,-8(fp)
 4020380:	10800117 	ldw	r2,4(r2)
 4020384:	e0fffd17 	ldw	r3,-12(fp)
 4020388:	18800b0e 	bge	r3,r2,40203b8 <_ZN5Image9randomizeEv+0x78>
			*source_pixel(x,y) = rand() &0xFF;
 402038c:	e1bffc17 	ldw	r6,-16(fp)
 4020390:	e17ffd17 	ldw	r5,-12(fp)
 4020394:	e13ffe17 	ldw	r4,-8(fp)
 4020398:	40208d80 	call	40208d8 <_ZN5Image12source_pixelEii>
 402039c:	1021883a 	mov	r16,r2
 40203a0:	40282740 	call	4028274 <rand>
 40203a4:	80800005 	stb	r2,0(r16)
	randomize();
}

void Image::randomize() {
	for (int y=0; y<height; y++) {
		for (int x=0; x<length; x++) {
 40203a8:	e0bffd17 	ldw	r2,-12(fp)
 40203ac:	10800044 	addi	r2,r2,1
 40203b0:	e0bffd15 	stw	r2,-12(fp)
 40203b4:	003ff106 	br	402037c <__flash_rwdata_start+0xfffe9e24>
	source_array = new unsigned char [height*length];
	randomize();
}

void Image::randomize() {
	for (int y=0; y<height; y++) {
 40203b8:	e0bffc17 	ldw	r2,-16(fp)
 40203bc:	10800044 	addi	r2,r2,1
 40203c0:	e0bffc15 	stw	r2,-16(fp)
 40203c4:	003fe806 	br	4020368 <__flash_rwdata_start+0xfffe9e10>
		for (int x=0; x<length; x++) {
			*source_pixel(x,y) = rand() &0xFF;
		}
	}
}
 40203c8:	0001883a 	nop
 40203cc:	e6ffff04 	addi	sp,fp,-4
 40203d0:	dfc00217 	ldw	ra,8(sp)
 40203d4:	df000117 	ldw	fp,4(sp)
 40203d8:	dc000017 	ldw	r16,0(sp)
 40203dc:	dec00304 	addi	sp,sp,12
 40203e0:	f800283a 	ret

040203e4 <_ZN5Image17Get_Fractal_LevelEff>:

int Image::Get_Fractal_Level(float newRe, float newIm) {
 40203e4:	f811883a 	mov	r8,ra
 40203e8:	40346e80 	call	40346e8 <_mcount>
 40203ec:	403f883a 	mov	ra,r8
 40203f0:	defff404 	addi	sp,sp,-48
 40203f4:	dfc00b15 	stw	ra,44(sp)
 40203f8:	df000a15 	stw	fp,40(sp)
 40203fc:	df000a04 	addi	fp,sp,40
 4020400:	e13ffd15 	stw	r4,-12(fp)
 4020404:	e17ffe15 	stw	r5,-8(fp)
 4020408:	e1bfff15 	stw	r6,-4(fp)
	float cRe = -0.78;
 402040c:	00afd234 	movhi	r2,48968
 4020410:	10ab8504 	addi	r2,r2,-20972
 4020414:	e0bff715 	stw	r2,-36(fp)
	float cIm = 0.158;
 4020418:	008f88b4 	movhi	r2,15906
 402041c:	10b2b044 	addi	r2,r2,-13631
 4020420:	e0bff815 	stw	r2,-32(fp)
    int i;

    for(i = 0; i < 63; i++) {
 4020424:	e03ff615 	stw	zero,-40(fp)
 4020428:	e0bff617 	ldw	r2,-40(fp)
 402042c:	10800fc8 	cmpgei	r2,r2,63
 4020430:	1000361e 	bne	r2,zero,402050c <_ZN5Image17Get_Fractal_LevelEff+0x128>
        float oldRe = newRe;
 4020434:	e0bffe17 	ldw	r2,-8(fp)
 4020438:	e0bff915 	stw	r2,-28(fp)
        float oldIm = newIm;
 402043c:	e0bfff17 	ldw	r2,-4(fp)
 4020440:	e0bffa15 	stw	r2,-24(fp)
        float sqRe = newRe*newRe;
 4020444:	e17ffe17 	ldw	r5,-8(fp)
 4020448:	e13ffe17 	ldw	r4,-8(fp)
 402044c:	40258180 	call	4025818 <__mulsf3>
 4020450:	1007883a 	mov	r3,r2
 4020454:	e0fffb15 	stw	r3,-20(fp)
        float sqIm = newIm*newIm;
 4020458:	e17fff17 	ldw	r5,-4(fp)
 402045c:	e13fff17 	ldw	r4,-4(fp)
 4020460:	40258180 	call	4025818 <__mulsf3>
 4020464:	1007883a 	mov	r3,r2
 4020468:	e0fffc15 	stw	r3,-16(fp)
        if((sqRe + sqIm) > 4) break;
 402046c:	e17ffc17 	ldw	r5,-16(fp)
 4020470:	e13ffb17 	ldw	r4,-20(fp)
 4020474:	4024db40 	call	4024db4 <__addsf3>
 4020478:	1007883a 	mov	r3,r2
 402047c:	1805883a 	mov	r2,r3
 4020480:	01502034 	movhi	r5,16512
 4020484:	1009883a 	mov	r4,r2
 4020488:	40257540 	call	4025754 <__gesf2>
 402048c:	00801e16 	blt	zero,r2,4020508 <_ZN5Image17Get_Fractal_LevelEff+0x124>
        newRe = sqRe - sqIm + cRe;
 4020490:	e17ffc17 	ldw	r5,-16(fp)
 4020494:	e13ffb17 	ldw	r4,-20(fp)
 4020498:	4025c200 	call	4025c20 <__subsf3>
 402049c:	1007883a 	mov	r3,r2
 40204a0:	1805883a 	mov	r2,r3
 40204a4:	e17ff717 	ldw	r5,-36(fp)
 40204a8:	1009883a 	mov	r4,r2
 40204ac:	4024db40 	call	4024db4 <__addsf3>
 40204b0:	1007883a 	mov	r3,r2
 40204b4:	e0fffe15 	stw	r3,-8(fp)
        newIm = 2 * oldRe * oldIm + cIm;
 40204b8:	e0bff917 	ldw	r2,-28(fp)
 40204bc:	100b883a 	mov	r5,r2
 40204c0:	1009883a 	mov	r4,r2
 40204c4:	4024db40 	call	4024db4 <__addsf3>
 40204c8:	1007883a 	mov	r3,r2
 40204cc:	1805883a 	mov	r2,r3
 40204d0:	e17ffa17 	ldw	r5,-24(fp)
 40204d4:	1009883a 	mov	r4,r2
 40204d8:	40258180 	call	4025818 <__mulsf3>
 40204dc:	1007883a 	mov	r3,r2
 40204e0:	1805883a 	mov	r2,r3
 40204e4:	e17ff817 	ldw	r5,-32(fp)
 40204e8:	1009883a 	mov	r4,r2
 40204ec:	4024db40 	call	4024db4 <__addsf3>
 40204f0:	1007883a 	mov	r3,r2
 40204f4:	e0ffff15 	stw	r3,-4(fp)
int Image::Get_Fractal_Level(float newRe, float newIm) {
	float cRe = -0.78;
	float cIm = 0.158;
    int i;

    for(i = 0; i < 63; i++) {
 40204f8:	e0bff617 	ldw	r2,-40(fp)
 40204fc:	10800044 	addi	r2,r2,1
 4020500:	e0bff615 	stw	r2,-40(fp)
 4020504:	003fc806 	br	4020428 <__flash_rwdata_start+0xfffe9ed0>
        float oldRe = newRe;
        float oldIm = newIm;
        float sqRe = newRe*newRe;
        float sqIm = newIm*newIm;
        if((sqRe + sqIm) > 4) break;
 4020508:	0001883a 	nop
        newIm = 2 * oldRe * oldIm + cIm;

        //DEBUG
        //printf("(%f,%f)",newRe,newIm);
    }
    return i;
 402050c:	e0bff617 	ldw	r2,-40(fp)
}
 4020510:	e037883a 	mov	sp,fp
 4020514:	dfc00117 	ldw	ra,4(sp)
 4020518:	df000017 	ldw	fp,0(sp)
 402051c:	dec00204 	addi	sp,sp,8
 4020520:	f800283a 	ret

04020524 <_ZN5Image17Get_Fractal_ColorEi>:

int Image::Get_Fractal_Color(int level) {
 4020524:	f811883a 	mov	r8,ra
 4020528:	40346e80 	call	40346e8 <_mcount>
 402052c:	403f883a 	mov	ra,r8
 4020530:	defffd04 	addi	sp,sp,-12
 4020534:	df000215 	stw	fp,8(sp)
 4020538:	df000204 	addi	fp,sp,8
 402053c:	e13ffe15 	stw	r4,-8(fp)
 4020540:	e17fff15 	stw	r5,-4(fp)
    if (level>63) level = 63;
 4020544:	e0bfff17 	ldw	r2,-4(fp)
 4020548:	10801010 	cmplti	r2,r2,64
 402054c:	1000021e 	bne	r2,zero,4020558 <_ZN5Image17Get_Fractal_ColorEi+0x34>
 4020550:	00800fc4 	movi	r2,63
 4020554:	e0bfff15 	stw	r2,-4(fp)
    return ((level<<3) & 0xE0)+level;
 4020558:	e0bfff17 	ldw	r2,-4(fp)
 402055c:	100490fa 	slli	r2,r2,3
 4020560:	10c0380c 	andi	r3,r2,224
 4020564:	e0bfff17 	ldw	r2,-4(fp)
 4020568:	1885883a 	add	r2,r3,r2
}
 402056c:	e037883a 	mov	sp,fp
 4020570:	df000017 	ldw	fp,0(sp)
 4020574:	dec00104 	addi	sp,sp,4
 4020578:	f800283a 	ret

0402057c <_ZN5Image12make_fractalEv>:

void Image::make_fractal() {
 402057c:	f811883a 	mov	r8,ra
 4020580:	40346e80 	call	40346e8 <_mcount>
 4020584:	403f883a 	mov	ra,r8
 4020588:	defff004 	addi	sp,sp,-64
 402058c:	dfc00f15 	stw	ra,60(sp)
 4020590:	df000e15 	stw	fp,56(sp)
 4020594:	dc000d15 	stw	r16,52(sp)
 4020598:	df000e04 	addi	fp,sp,56
 402059c:	e13ffe15 	stw	r4,-8(fp)
	float sinAngle = 0;
 40205a0:	e03ff415 	stw	zero,-48(fp)
	float cosAngle = 1;
 40205a4:	008fe034 	movhi	r2,16256
 40205a8:	e0bff515 	stw	r2,-44(fp)
	float Scale = 1;
 40205ac:	008fe034 	movhi	r2,16256
 40205b0:	e0bff615 	stw	r2,-40(fp)
	float X_position = 0;
 40205b4:	e03ff715 	stw	zero,-36(fp)
	float Y_position = 0;
 40205b8:	e03ff815 	stw	zero,-32(fp)

    float x,y;

    for (y=0; y<height; y++) {
 40205bc:	e03ff315 	stw	zero,-52(fp)
 40205c0:	e0bffe17 	ldw	r2,-8(fp)
 40205c4:	10800017 	ldw	r2,0(r2)
 40205c8:	1009883a 	mov	r4,r2
 40205cc:	402618c0 	call	402618c <__floatsisf>
 40205d0:	1007883a 	mov	r3,r2
 40205d4:	e17ff317 	ldw	r5,-52(fp)
 40205d8:	1809883a 	mov	r4,r3
 40205dc:	40257540 	call	4025754 <__gesf2>
 40205e0:	00800116 	blt	zero,r2,40205e8 <_ZN5Image12make_fractalEv+0x6c>
                int level = Get_Fractal_Level(X_position+rotated_fx, Y_position+rotated_fy);
                *source_pixel(x,y) = 4*Get_Fractal_Color(level);
            }
        }
    }
}
 40205e4:	0000b606 	br	40208c0 <_ZN5Image12make_fractalEv+0x344>
	float Y_position = 0;

    float x,y;

    for (y=0; y<height; y++) {
        for (x=0; x<length; x++) {
 40205e8:	e03ff215 	stw	zero,-56(fp)
 40205ec:	e0bffe17 	ldw	r2,-8(fp)
 40205f0:	10800117 	ldw	r2,4(r2)
 40205f4:	1009883a 	mov	r4,r2
 40205f8:	402618c0 	call	402618c <__floatsisf>
 40205fc:	1007883a 	mov	r3,r2
 4020600:	e17ff217 	ldw	r5,-56(fp)
 4020604:	1809883a 	mov	r4,r3
 4020608:	40257540 	call	4025754 <__gesf2>
 402060c:	0080a60e 	bge	zero,r2,40208a8 <_ZN5Image12make_fractalEv+0x32c>
            if ( (x==length/2) || (y==height/2) ) *source_pixel(x,y) = 0;
 4020610:	e0bffe17 	ldw	r2,-8(fp)
 4020614:	10800117 	ldw	r2,4(r2)
 4020618:	1006d7fa 	srli	r3,r2,31
 402061c:	1885883a 	add	r2,r3,r2
 4020620:	1005d07a 	srai	r2,r2,1
 4020624:	1009883a 	mov	r4,r2
 4020628:	402618c0 	call	402618c <__floatsisf>
 402062c:	1007883a 	mov	r3,r2
 4020630:	e17ff217 	ldw	r5,-56(fp)
 4020634:	1809883a 	mov	r4,r3
 4020638:	40256d40 	call	40256d4 <__eqsf2>
 402063c:	10000c26 	beq	r2,zero,4020670 <_ZN5Image12make_fractalEv+0xf4>
 4020640:	e0bffe17 	ldw	r2,-8(fp)
 4020644:	10800017 	ldw	r2,0(r2)
 4020648:	1006d7fa 	srli	r3,r2,31
 402064c:	1885883a 	add	r2,r3,r2
 4020650:	1005d07a 	srai	r2,r2,1
 4020654:	1009883a 	mov	r4,r2
 4020658:	402618c0 	call	402618c <__floatsisf>
 402065c:	1007883a 	mov	r3,r2
 4020660:	e17ff317 	ldw	r5,-52(fp)
 4020664:	1809883a 	mov	r4,r3
 4020668:	40256d40 	call	40256d4 <__eqsf2>
 402066c:	10000b1e 	bne	r2,zero,402069c <_ZN5Image12make_fractalEv+0x120>
 4020670:	e13ff217 	ldw	r4,-56(fp)
 4020674:	40261100 	call	4026110 <__fixsfsi>
 4020678:	1021883a 	mov	r16,r2
 402067c:	e13ff317 	ldw	r4,-52(fp)
 4020680:	40261100 	call	4026110 <__fixsfsi>
 4020684:	100d883a 	mov	r6,r2
 4020688:	800b883a 	mov	r5,r16
 402068c:	e13ffe17 	ldw	r4,-8(fp)
 4020690:	40208d80 	call	40208d8 <_ZN5Image12source_pixelEii>
 4020694:	10000005 	stb	zero,0(r2)
 4020698:	00007d06 	br	4020890 <_ZN5Image12make_fractalEv+0x314>
            else {
                float fx = (x-length/2)/(length/2);
 402069c:	e0bffe17 	ldw	r2,-8(fp)
 40206a0:	10800117 	ldw	r2,4(r2)
 40206a4:	1006d7fa 	srli	r3,r2,31
 40206a8:	1885883a 	add	r2,r3,r2
 40206ac:	1005d07a 	srai	r2,r2,1
 40206b0:	1009883a 	mov	r4,r2
 40206b4:	402618c0 	call	402618c <__floatsisf>
 40206b8:	1007883a 	mov	r3,r2
 40206bc:	180b883a 	mov	r5,r3
 40206c0:	e13ff217 	ldw	r4,-56(fp)
 40206c4:	4025c200 	call	4025c20 <__subsf3>
 40206c8:	1007883a 	mov	r3,r2
 40206cc:	1821883a 	mov	r16,r3
 40206d0:	e0bffe17 	ldw	r2,-8(fp)
 40206d4:	10800117 	ldw	r2,4(r2)
 40206d8:	1006d7fa 	srli	r3,r2,31
 40206dc:	1885883a 	add	r2,r3,r2
 40206e0:	1005d07a 	srai	r2,r2,1
 40206e4:	1009883a 	mov	r4,r2
 40206e8:	402618c0 	call	402618c <__floatsisf>
 40206ec:	1007883a 	mov	r3,r2
 40206f0:	180b883a 	mov	r5,r3
 40206f4:	8009883a 	mov	r4,r16
 40206f8:	40252880 	call	4025288 <__divsf3>
 40206fc:	1007883a 	mov	r3,r2
 4020700:	e0fff915 	stw	r3,-28(fp)
                float fy = (y-height/2)/(height/2);
 4020704:	e0bffe17 	ldw	r2,-8(fp)
 4020708:	10800017 	ldw	r2,0(r2)
 402070c:	1006d7fa 	srli	r3,r2,31
 4020710:	1885883a 	add	r2,r3,r2
 4020714:	1005d07a 	srai	r2,r2,1
 4020718:	1009883a 	mov	r4,r2
 402071c:	402618c0 	call	402618c <__floatsisf>
 4020720:	1007883a 	mov	r3,r2
 4020724:	180b883a 	mov	r5,r3
 4020728:	e13ff317 	ldw	r4,-52(fp)
 402072c:	4025c200 	call	4025c20 <__subsf3>
 4020730:	1007883a 	mov	r3,r2
 4020734:	1821883a 	mov	r16,r3
 4020738:	e0bffe17 	ldw	r2,-8(fp)
 402073c:	10800017 	ldw	r2,0(r2)
 4020740:	1006d7fa 	srli	r3,r2,31
 4020744:	1885883a 	add	r2,r3,r2
 4020748:	1005d07a 	srai	r2,r2,1
 402074c:	1009883a 	mov	r4,r2
 4020750:	402618c0 	call	402618c <__floatsisf>
 4020754:	1007883a 	mov	r3,r2
 4020758:	180b883a 	mov	r5,r3
 402075c:	8009883a 	mov	r4,r16
 4020760:	40252880 	call	4025288 <__divsf3>
 4020764:	1007883a 	mov	r3,r2
 4020768:	e0fffa15 	stw	r3,-24(fp)
                float rotated_fx = (fx*cosAngle + fy*sinAngle)/Scale;
 402076c:	e17ff517 	ldw	r5,-44(fp)
 4020770:	e13ff917 	ldw	r4,-28(fp)
 4020774:	40258180 	call	4025818 <__mulsf3>
 4020778:	1007883a 	mov	r3,r2
 402077c:	1821883a 	mov	r16,r3
 4020780:	e17ff417 	ldw	r5,-48(fp)
 4020784:	e13ffa17 	ldw	r4,-24(fp)
 4020788:	40258180 	call	4025818 <__mulsf3>
 402078c:	1007883a 	mov	r3,r2
 4020790:	1805883a 	mov	r2,r3
 4020794:	100b883a 	mov	r5,r2
 4020798:	8009883a 	mov	r4,r16
 402079c:	4024db40 	call	4024db4 <__addsf3>
 40207a0:	1007883a 	mov	r3,r2
 40207a4:	1805883a 	mov	r2,r3
 40207a8:	e17ff617 	ldw	r5,-40(fp)
 40207ac:	1009883a 	mov	r4,r2
 40207b0:	40252880 	call	4025288 <__divsf3>
 40207b4:	1007883a 	mov	r3,r2
 40207b8:	e0fffb15 	stw	r3,-20(fp)
                float rotated_fy = (-fx*sinAngle + fy*cosAngle)/Scale;
 40207bc:	e0bff917 	ldw	r2,-28(fp)
 40207c0:	10a0003c 	xorhi	r2,r2,32768
 40207c4:	e17ff417 	ldw	r5,-48(fp)
 40207c8:	1009883a 	mov	r4,r2
 40207cc:	40258180 	call	4025818 <__mulsf3>
 40207d0:	1007883a 	mov	r3,r2
 40207d4:	1821883a 	mov	r16,r3
 40207d8:	e17ff517 	ldw	r5,-44(fp)
 40207dc:	e13ffa17 	ldw	r4,-24(fp)
 40207e0:	40258180 	call	4025818 <__mulsf3>
 40207e4:	1007883a 	mov	r3,r2
 40207e8:	1805883a 	mov	r2,r3
 40207ec:	100b883a 	mov	r5,r2
 40207f0:	8009883a 	mov	r4,r16
 40207f4:	4024db40 	call	4024db4 <__addsf3>
 40207f8:	1007883a 	mov	r3,r2
 40207fc:	1805883a 	mov	r2,r3
 4020800:	e17ff617 	ldw	r5,-40(fp)
 4020804:	1009883a 	mov	r4,r2
 4020808:	40252880 	call	4025288 <__divsf3>
 402080c:	1007883a 	mov	r3,r2
 4020810:	e0fffc15 	stw	r3,-16(fp)

                int level = Get_Fractal_Level(X_position+rotated_fx, Y_position+rotated_fy);
 4020814:	e17ffb17 	ldw	r5,-20(fp)
 4020818:	e13ff717 	ldw	r4,-36(fp)
 402081c:	4024db40 	call	4024db4 <__addsf3>
 4020820:	1007883a 	mov	r3,r2
 4020824:	1821883a 	mov	r16,r3
 4020828:	e17ffc17 	ldw	r5,-16(fp)
 402082c:	e13ff817 	ldw	r4,-32(fp)
 4020830:	4024db40 	call	4024db4 <__addsf3>
 4020834:	1007883a 	mov	r3,r2
 4020838:	1805883a 	mov	r2,r3
 402083c:	100d883a 	mov	r6,r2
 4020840:	800b883a 	mov	r5,r16
 4020844:	e13ffe17 	ldw	r4,-8(fp)
 4020848:	40203e40 	call	40203e4 <_ZN5Image17Get_Fractal_LevelEff>
 402084c:	e0bffd15 	stw	r2,-12(fp)
                *source_pixel(x,y) = 4*Get_Fractal_Color(level);
 4020850:	e13ff217 	ldw	r4,-56(fp)
 4020854:	40261100 	call	4026110 <__fixsfsi>
 4020858:	1021883a 	mov	r16,r2
 402085c:	e13ff317 	ldw	r4,-52(fp)
 4020860:	40261100 	call	4026110 <__fixsfsi>
 4020864:	100d883a 	mov	r6,r2
 4020868:	800b883a 	mov	r5,r16
 402086c:	e13ffe17 	ldw	r4,-8(fp)
 4020870:	40208d80 	call	40208d8 <_ZN5Image12source_pixelEii>
 4020874:	1021883a 	mov	r16,r2
 4020878:	e17ffd17 	ldw	r5,-12(fp)
 402087c:	e13ffe17 	ldw	r4,-8(fp)
 4020880:	40205240 	call	4020524 <_ZN5Image17Get_Fractal_ColorEi>
 4020884:	1085883a 	add	r2,r2,r2
 4020888:	1085883a 	add	r2,r2,r2
 402088c:	80800005 	stb	r2,0(r16)
	float Y_position = 0;

    float x,y;

    for (y=0; y<height; y++) {
        for (x=0; x<length; x++) {
 4020890:	014fe034 	movhi	r5,16256
 4020894:	e13ff217 	ldw	r4,-56(fp)
 4020898:	4024db40 	call	4024db4 <__addsf3>
 402089c:	1007883a 	mov	r3,r2
 40208a0:	e0fff215 	stw	r3,-56(fp)
 40208a4:	003f5106 	br	40205ec <__flash_rwdata_start+0xfffea094>
	float X_position = 0;
	float Y_position = 0;

    float x,y;

    for (y=0; y<height; y++) {
 40208a8:	014fe034 	movhi	r5,16256
 40208ac:	e13ff317 	ldw	r4,-52(fp)
 40208b0:	4024db40 	call	4024db4 <__addsf3>
 40208b4:	1007883a 	mov	r3,r2
 40208b8:	e0fff315 	stw	r3,-52(fp)
 40208bc:	003f4006 	br	40205c0 <__flash_rwdata_start+0xfffea068>
                int level = Get_Fractal_Level(X_position+rotated_fx, Y_position+rotated_fy);
                *source_pixel(x,y) = 4*Get_Fractal_Color(level);
            }
        }
    }
}
 40208c0:	e6ffff04 	addi	sp,fp,-4
 40208c4:	dfc00217 	ldw	ra,8(sp)
 40208c8:	df000117 	ldw	fp,4(sp)
 40208cc:	dc000017 	ldw	r16,0(sp)
 40208d0:	dec00304 	addi	sp,sp,12
 40208d4:	f800283a 	ret

040208d8 <_ZN5Image12source_pixelEii>:

unsigned char * Image::source_pixel(int x, int y) {
 40208d8:	f811883a 	mov	r8,ra
 40208dc:	40346e80 	call	40346e8 <_mcount>
 40208e0:	403f883a 	mov	ra,r8
 40208e4:	defffc04 	addi	sp,sp,-16
 40208e8:	df000315 	stw	fp,12(sp)
 40208ec:	df000304 	addi	fp,sp,12
 40208f0:	e13ffd15 	stw	r4,-12(fp)
 40208f4:	e17ffe15 	stw	r5,-8(fp)
 40208f8:	e1bfff15 	stw	r6,-4(fp)
	// TODO Auto-generated constructor stub
	return source_array + (y*length+x);
 40208fc:	e0bffd17 	ldw	r2,-12(fp)
 4020900:	10800217 	ldw	r2,8(r2)
 4020904:	e0fffd17 	ldw	r3,-12(fp)
 4020908:	19000117 	ldw	r4,4(r3)
 402090c:	e0ffff17 	ldw	r3,-4(fp)
 4020910:	20c9383a 	mul	r4,r4,r3
 4020914:	e0fffe17 	ldw	r3,-8(fp)
 4020918:	20c7883a 	add	r3,r4,r3
 402091c:	10c5883a 	add	r2,r2,r3
}
 4020920:	e037883a 	mov	sp,fp
 4020924:	df000017 	ldw	fp,0(sp)
 4020928:	dec00104 	addi	sp,sp,4
 402092c:	f800283a 	ret

04020930 <_ZN5Image7make_bwEv>:

void Image::make_bw() {
 4020930:	f811883a 	mov	r8,ra
 4020934:	40346e80 	call	40346e8 <_mcount>
 4020938:	403f883a 	mov	ra,r8
 402093c:	defffb04 	addi	sp,sp,-20
 4020940:	dfc00415 	stw	ra,16(sp)
 4020944:	df000315 	stw	fp,12(sp)
 4020948:	df000304 	addi	fp,sp,12
 402094c:	e13fff15 	stw	r4,-4(fp)
	// TODO Auto-generated constructor stub
	for (int y=0; y<height; y++) {
 4020950:	e03ffd15 	stw	zero,-12(fp)
 4020954:	e0bfff17 	ldw	r2,-4(fp)
 4020958:	10800017 	ldw	r2,0(r2)
 402095c:	e0fffd17 	ldw	r3,-12(fp)
 4020960:	1880230e 	bge	r3,r2,40209f0 <_ZN5Image7make_bwEv+0xc0>
		for (int x=0; x<length; x++) {
 4020964:	e03ffe15 	stw	zero,-8(fp)
 4020968:	e0bfff17 	ldw	r2,-4(fp)
 402096c:	10800117 	ldw	r2,4(r2)
 4020970:	e0fffe17 	ldw	r3,-8(fp)
 4020974:	18801a0e 	bge	r3,r2,40209e0 <_ZN5Image7make_bwEv+0xb0>
			if (*source_pixel(x,y)>127) *source_pixel(x,y)=255;
 4020978:	e1bffd17 	ldw	r6,-12(fp)
 402097c:	e17ffe17 	ldw	r5,-8(fp)
 4020980:	e13fff17 	ldw	r4,-4(fp)
 4020984:	40208d80 	call	40208d8 <_ZN5Image12source_pixelEii>
 4020988:	10800003 	ldbu	r2,0(r2)
 402098c:	10803fcc 	andi	r2,r2,255
 4020990:	1004d1fa 	srli	r2,r2,7
 4020994:	10803fcc 	andi	r2,r2,255
 4020998:	10000826 	beq	r2,zero,40209bc <_ZN5Image7make_bwEv+0x8c>
 402099c:	e1bffd17 	ldw	r6,-12(fp)
 40209a0:	e17ffe17 	ldw	r5,-8(fp)
 40209a4:	e13fff17 	ldw	r4,-4(fp)
 40209a8:	40208d80 	call	40208d8 <_ZN5Image12source_pixelEii>
 40209ac:	1007883a 	mov	r3,r2
 40209b0:	00bfffc4 	movi	r2,-1
 40209b4:	18800005 	stb	r2,0(r3)
 40209b8:	00000506 	br	40209d0 <_ZN5Image7make_bwEv+0xa0>
			else *source_pixel(x,y)=0;
 40209bc:	e1bffd17 	ldw	r6,-12(fp)
 40209c0:	e17ffe17 	ldw	r5,-8(fp)
 40209c4:	e13fff17 	ldw	r4,-4(fp)
 40209c8:	40208d80 	call	40208d8 <_ZN5Image12source_pixelEii>
 40209cc:	10000005 	stb	zero,0(r2)
}

void Image::make_bw() {
	// TODO Auto-generated constructor stub
	for (int y=0; y<height; y++) {
		for (int x=0; x<length; x++) {
 40209d0:	e0bffe17 	ldw	r2,-8(fp)
 40209d4:	10800044 	addi	r2,r2,1
 40209d8:	e0bffe15 	stw	r2,-8(fp)
 40209dc:	003fe206 	br	4020968 <__flash_rwdata_start+0xfffea410>
	return source_array + (y*length+x);
}

void Image::make_bw() {
	// TODO Auto-generated constructor stub
	for (int y=0; y<height; y++) {
 40209e0:	e0bffd17 	ldw	r2,-12(fp)
 40209e4:	10800044 	addi	r2,r2,1
 40209e8:	e0bffd15 	stw	r2,-12(fp)
 40209ec:	003fd906 	br	4020954 <__flash_rwdata_start+0xfffea3fc>
		for (int x=0; x<length; x++) {
			if (*source_pixel(x,y)>127) *source_pixel(x,y)=255;
			else *source_pixel(x,y)=0;
		}
	}
}
 40209f0:	0001883a 	nop
 40209f4:	e037883a 	mov	sp,fp
 40209f8:	dfc00117 	ldw	ra,4(sp)
 40209fc:	df000017 	ldw	fp,0(sp)
 4020a00:	dec00204 	addi	sp,sp,8
 4020a04:	f800283a 	ret

04020a08 <_ZN5Image8apply_NNEP2NNi>:
 *
 * Applique toutes les sous-images size x size de cette
 * image a l'entree de ce reseau de neuronnes.
 *
 *******************************************************/
Image **Image::apply_NN(NN * network, int size) {
 4020a08:	f811883a 	mov	r8,ra
 4020a0c:	40346e80 	call	40346e8 <_mcount>
 4020a10:	403f883a 	mov	ra,r8
 4020a14:	deffcf04 	addi	sp,sp,-196
 4020a18:	dfc03015 	stw	ra,192(sp)
 4020a1c:	df002f15 	stw	fp,188(sp)
 4020a20:	ddc02e15 	stw	r23,184(sp)
 4020a24:	dd802d15 	stw	r22,180(sp)
 4020a28:	dd402c15 	stw	r21,176(sp)
 4020a2c:	dd002b15 	stw	r20,172(sp)
 4020a30:	dcc02a15 	stw	r19,168(sp)
 4020a34:	dc802915 	stw	r18,164(sp)
 4020a38:	dc402815 	stw	r17,160(sp)
 4020a3c:	dc002715 	stw	r16,156(sp)
 4020a40:	df002f04 	addi	fp,sp,188
 4020a44:	e13fdb15 	stw	r4,-148(fp)
 4020a48:	e17fdc15 	stw	r5,-144(fp)
 4020a4c:	e1bfdd15 	stw	r6,-140(fp)
 4020a50:	008100b4 	movhi	r2,1026
 4020a54:	108c9504 	addi	r2,r2,12884
 4020a58:	e0bfe415 	stw	r2,-112(fp)
 4020a5c:	008100f4 	movhi	r2,1027
 4020a60:	10979b04 	addi	r2,r2,24172
 4020a64:	e0bfe515 	stw	r2,-108(fp)
 4020a68:	e0bfe604 	addi	r2,fp,-104
 4020a6c:	e0ffd104 	addi	r3,fp,-188
 4020a70:	10c00015 	stw	r3,0(r2)
 4020a74:	00c100b4 	movhi	r3,1026
 4020a78:	18c3b804 	addi	r3,r3,3808
 4020a7c:	10c00115 	stw	r3,4(r2)
 4020a80:	16c00215 	stw	sp,8(r2)
 4020a84:	e0bfde04 	addi	r2,fp,-136
 4020a88:	1009883a 	mov	r4,r2
 4020a8c:	40272900 	call	4027290 <_Unwind_SjLj_Register>
				*(tab_result[k]->source_pixel(x,y)) = pixel;
			}
		}
	}
	printf("\r\n");
	return tab_result;
 4020a90:	d805883a 	mov	r2,sp
 4020a94:	e0bfeb15 	stw	r2,-84(fp)
 * Applique toutes les sous-images size x size de cette
 * image a l'entree de ce reseau de neuronnes.
 *
 *******************************************************/
Image **Image::apply_NN(NN * network, int size) {
	float source[size*size];
 4020a98:	e0ffdd17 	ldw	r3,-140(fp)
 4020a9c:	e0bfdd17 	ldw	r2,-140(fp)
 4020aa0:	1885383a 	mul	r2,r3,r2
 4020aa4:	10bfffc4 	addi	r2,r2,-1
 4020aa8:	e0bfd715 	stw	r2,-164(fp)
 4020aac:	1007883a 	mov	r3,r2
 4020ab0:	18c00044 	addi	r3,r3,1
 4020ab4:	e0ffec15 	stw	r3,-80(fp)
 4020ab8:	e03fed15 	stw	zero,-76(fp)
 4020abc:	e13fec17 	ldw	r4,-80(fp)
 4020ac0:	2006d6fa 	srli	r3,r4,27
 4020ac4:	e17fed17 	ldw	r5,-76(fp)
 4020ac8:	280a917a 	slli	r5,r5,5
 4020acc:	e17fef15 	stw	r5,-68(fp)
 4020ad0:	e1bfef17 	ldw	r6,-68(fp)
 4020ad4:	1986b03a 	or	r3,r3,r6
 4020ad8:	e0ffef15 	stw	r3,-68(fp)
 4020adc:	e0ffec17 	ldw	r3,-80(fp)
 4020ae0:	1806917a 	slli	r3,r3,5
 4020ae4:	1007883a 	mov	r3,r2
 4020ae8:	18c00044 	addi	r3,r3,1
 4020aec:	e0fff015 	stw	r3,-64(fp)
 4020af0:	e03ff115 	stw	zero,-60(fp)
 4020af4:	e13ff017 	ldw	r4,-64(fp)
 4020af8:	2006d6fa 	srli	r3,r4,27
 4020afc:	e17ff117 	ldw	r5,-60(fp)
 4020b00:	280a917a 	slli	r5,r5,5
 4020b04:	e17ff315 	stw	r5,-52(fp)
 4020b08:	e1bff317 	ldw	r6,-52(fp)
 4020b0c:	1986b03a 	or	r3,r3,r6
 4020b10:	e0fff315 	stw	r3,-52(fp)
 4020b14:	e0fff017 	ldw	r3,-64(fp)
 4020b18:	1806917a 	slli	r3,r3,5
 4020b1c:	10800044 	addi	r2,r2,1
 4020b20:	1085883a 	add	r2,r2,r2
 4020b24:	1085883a 	add	r2,r2,r2
 4020b28:	108000c4 	addi	r2,r2,3
 4020b2c:	108000c4 	addi	r2,r2,3
 4020b30:	1004d0ba 	srli	r2,r2,2
 4020b34:	1085883a 	add	r2,r2,r2
 4020b38:	1085883a 	add	r2,r2,r2
 4020b3c:	d8b7c83a 	sub	sp,sp,r2
 4020b40:	d805883a 	mov	r2,sp
 4020b44:	108000c4 	addi	r2,r2,3
 4020b48:	1004d0ba 	srli	r2,r2,2
 4020b4c:	1085883a 	add	r2,r2,r2
 4020b50:	1085883a 	add	r2,r2,r2
 4020b54:	e0bfd815 	stw	r2,-160(fp)
	//Image * result = new Image(length-size+1,height-size+1);
	//Image *tab_result[network->layer[network->n_layer-1].n_neuron];		// Image array. Contains the output for each output neuron
	Image **tab_result = (Image**)malloc(network->layer[network->n_layer-1].n_neuron * sizeof(Image*));
 4020b58:	e0bfdc17 	ldw	r2,-144(fp)
 4020b5c:	10c00217 	ldw	r3,8(r2)
 4020b60:	e0bfdc17 	ldw	r2,-144(fp)
 4020b64:	10800117 	ldw	r2,4(r2)
 4020b68:	1009883a 	mov	r4,r2
 4020b6c:	00820034 	movhi	r2,2048
 4020b70:	10bfffc4 	addi	r2,r2,-1
 4020b74:	2085883a 	add	r2,r4,r2
 4020b78:	1004917a 	slli	r2,r2,5
 4020b7c:	1885883a 	add	r2,r3,r2
 4020b80:	10800217 	ldw	r2,8(r2)
 4020b84:	1085883a 	add	r2,r2,r2
 4020b88:	1085883a 	add	r2,r2,r2
 4020b8c:	1009883a 	mov	r4,r2
 4020b90:	40277200 	call	4027720 <malloc>
 4020b94:	e0bfd915 	stw	r2,-156(fp)

	for(int i = 0; i < network->layer[network->n_layer-1].n_neuron; i++) {
 4020b98:	e03fd115 	stw	zero,-188(fp)
 4020b9c:	e0bfdc17 	ldw	r2,-144(fp)
 4020ba0:	10c00217 	ldw	r3,8(r2)
 4020ba4:	e0bfdc17 	ldw	r2,-144(fp)
 4020ba8:	10800117 	ldw	r2,4(r2)
 4020bac:	1009883a 	mov	r4,r2
 4020bb0:	00820034 	movhi	r2,2048
 4020bb4:	10bfffc4 	addi	r2,r2,-1
 4020bb8:	2085883a 	add	r2,r4,r2
 4020bbc:	1004917a 	slli	r2,r2,5
 4020bc0:	1885883a 	add	r2,r3,r2
 4020bc4:	10800217 	ldw	r2,8(r2)
 4020bc8:	e0ffd117 	ldw	r3,-188(fp)
 4020bcc:	1880210e 	bge	r3,r2,4020c54 <_ZN5Image8apply_NNEP2NNi+0x24c>
		tab_result[i] = new Image(length-size+1,height-size+1);
 4020bd0:	00bfffc4 	movi	r2,-1
 4020bd4:	e0bfdf15 	stw	r2,-132(fp)
 4020bd8:	01000304 	movi	r4,12
 4020bdc:	40229780 	call	4022978 <_Znwj>
 4020be0:	e0bff415 	stw	r2,-48(fp)
 4020be4:	e0bfdb17 	ldw	r2,-148(fp)
 4020be8:	10c00117 	ldw	r3,4(r2)
 4020bec:	e0bfdd17 	ldw	r2,-140(fp)
 4020bf0:	1885c83a 	sub	r2,r3,r2
 4020bf4:	11000044 	addi	r4,r2,1
 4020bf8:	e0bfdb17 	ldw	r2,-148(fp)
 4020bfc:	10c00017 	ldw	r3,0(r2)
 4020c00:	e0bfdd17 	ldw	r2,-140(fp)
 4020c04:	1885c83a 	sub	r2,r3,r2
 4020c08:	10c00044 	addi	r3,r2,1
 4020c0c:	00800044 	movi	r2,1
 4020c10:	e0bfdf15 	stw	r2,-132(fp)
 4020c14:	180d883a 	mov	r6,r3
 4020c18:	200b883a 	mov	r5,r4
 4020c1c:	e13ff417 	ldw	r4,-48(fp)
 4020c20:	40202380 	call	4020238 <_ZN5ImageC1Eii>
 4020c24:	e0bfd117 	ldw	r2,-188(fp)
 4020c28:	1085883a 	add	r2,r2,r2
 4020c2c:	1085883a 	add	r2,r2,r2
 4020c30:	1007883a 	mov	r3,r2
 4020c34:	e0bfd917 	ldw	r2,-156(fp)
 4020c38:	10c5883a 	add	r2,r2,r3
 4020c3c:	e13ff417 	ldw	r4,-48(fp)
 4020c40:	11000015 	stw	r4,0(r2)
	float source[size*size];
	//Image * result = new Image(length-size+1,height-size+1);
	//Image *tab_result[network->layer[network->n_layer-1].n_neuron];		// Image array. Contains the output for each output neuron
	Image **tab_result = (Image**)malloc(network->layer[network->n_layer-1].n_neuron * sizeof(Image*));

	for(int i = 0; i < network->layer[network->n_layer-1].n_neuron; i++) {
 4020c44:	e0bfd117 	ldw	r2,-188(fp)
 4020c48:	10800044 	addi	r2,r2,1
 4020c4c:	e0bfd115 	stw	r2,-188(fp)
 4020c50:	003fd206 	br	4020b9c <__flash_rwdata_start+0xfffea644>
		tab_result[i] = new Image(length-size+1,height-size+1);
	}

	printf("Processing line ");
 4020c54:	01000034 	movhi	r4,0
 4020c58:	00bfffc4 	movi	r2,-1
 4020c5c:	e0bfdf15 	stw	r2,-132(fp)
 4020c60:	21000004 	addi	r4,r4,0
 4020c64:	40280e40 	call	40280e4 <printf>
	for (int y=0; y<=height-size; y++) {
 4020c68:	e03fd215 	stw	zero,-184(fp)
 4020c6c:	e0bfdb17 	ldw	r2,-148(fp)
 4020c70:	10c00017 	ldw	r3,0(r2)
 4020c74:	e0bfdd17 	ldw	r2,-140(fp)
 4020c78:	1887c83a 	sub	r3,r3,r2
 4020c7c:	e0bfd217 	ldw	r2,-184(fp)
 4020c80:	18808e16 	blt	r3,r2,4020ebc <_ZN5Image8apply_NNEP2NNi+0x4b4>
		printf("%i,",y);
 4020c84:	e17fd217 	ldw	r5,-184(fp)
 4020c88:	01000034 	movhi	r4,0
 4020c8c:	00bfffc4 	movi	r2,-1
 4020c90:	e0bfdf15 	stw	r2,-132(fp)
 4020c94:	21000504 	addi	r4,r4,20
 4020c98:	40280e40 	call	40280e4 <printf>
		for (int x=0; x<=length-size; x++) {
 4020c9c:	e03fd315 	stw	zero,-180(fp)
 4020ca0:	e0bfdb17 	ldw	r2,-148(fp)
 4020ca4:	10c00117 	ldw	r3,4(r2)
 4020ca8:	e0bfdd17 	ldw	r2,-140(fp)
 4020cac:	1887c83a 	sub	r3,r3,r2
 4020cb0:	e0bfd317 	ldw	r2,-180(fp)
 4020cb4:	18807d16 	blt	r3,r2,4020eac <_ZN5Image8apply_NNEP2NNi+0x4a4>
			// Appliquer le reseau sur un sous-bloc de l'image
			for (int j=0; j<size; j++) {
 4020cb8:	e03fd415 	stw	zero,-176(fp)
 4020cbc:	e0ffd417 	ldw	r3,-176(fp)
 4020cc0:	e0bfdd17 	ldw	r2,-140(fp)
 4020cc4:	1880370e 	bge	r3,r2,4020da4 <_ZN5Image8apply_NNEP2NNi+0x39c>
				for (int i=0; i<size; i++) {
 4020cc8:	e03fd515 	stw	zero,-172(fp)
 4020ccc:	e0ffd517 	ldw	r3,-172(fp)
 4020cd0:	e0bfdd17 	ldw	r2,-140(fp)
 4020cd4:	18802f0e 	bge	r3,r2,4020d94 <_ZN5Image8apply_NNEP2NNi+0x38c>
					source[j*size + i] = (*source_pixel(x+i,y+j))/255.0;		// size*size sub-image
 4020cd8:	e0ffd417 	ldw	r3,-176(fp)
 4020cdc:	e0bfdd17 	ldw	r2,-140(fp)
 4020ce0:	1887383a 	mul	r3,r3,r2
 4020ce4:	e0bfd517 	ldw	r2,-172(fp)
 4020ce8:	1885883a 	add	r2,r3,r2
 4020cec:	e0bff515 	stw	r2,-44(fp)
 4020cf0:	e0ffd317 	ldw	r3,-180(fp)
 4020cf4:	e0bfd517 	ldw	r2,-172(fp)
 4020cf8:	1889883a 	add	r4,r3,r2
 4020cfc:	e0ffd217 	ldw	r3,-184(fp)
 4020d00:	e0bfd417 	ldw	r2,-176(fp)
 4020d04:	1885883a 	add	r2,r3,r2
 4020d08:	100d883a 	mov	r6,r2
 4020d0c:	200b883a 	mov	r5,r4
 4020d10:	e13fdb17 	ldw	r4,-148(fp)
 4020d14:	40208d80 	call	40208d8 <_ZN5Image12source_pixelEii>
 4020d18:	10800003 	ldbu	r2,0(r2)
 4020d1c:	10803fcc 	andi	r2,r2,255
 4020d20:	1009883a 	mov	r4,r2
 4020d24:	4026cac0 	call	4026cac <__floatsidf>
 4020d28:	1011883a 	mov	r8,r2
 4020d2c:	1813883a 	mov	r9,r3
 4020d30:	000d883a 	mov	r6,zero
 4020d34:	01d01c34 	movhi	r7,16496
 4020d38:	39f80004 	addi	r7,r7,-8192
 4020d3c:	4009883a 	mov	r4,r8
 4020d40:	480b883a 	mov	r5,r9
 4020d44:	40263b80 	call	40263b8 <__divdf3>
 4020d48:	1009883a 	mov	r4,r2
 4020d4c:	180b883a 	mov	r5,r3
 4020d50:	2005883a 	mov	r2,r4
 4020d54:	2807883a 	mov	r3,r5
 4020d58:	1009883a 	mov	r4,r2
 4020d5c:	180b883a 	mov	r5,r3
 4020d60:	4026eb00 	call	4026eb0 <__truncdfsf2>
 4020d64:	1009883a 	mov	r4,r2
 4020d68:	e0ffd817 	ldw	r3,-160(fp)
 4020d6c:	e17ff517 	ldw	r5,-44(fp)
 4020d70:	e17ff517 	ldw	r5,-44(fp)
 4020d74:	2945883a 	add	r2,r5,r5
 4020d78:	1085883a 	add	r2,r2,r2
 4020d7c:	1885883a 	add	r2,r3,r2
 4020d80:	11000015 	stw	r4,0(r2)
	for (int y=0; y<=height-size; y++) {
		printf("%i,",y);
		for (int x=0; x<=length-size; x++) {
			// Appliquer le reseau sur un sous-bloc de l'image
			for (int j=0; j<size; j++) {
				for (int i=0; i<size; i++) {
 4020d84:	e0bfd517 	ldw	r2,-172(fp)
 4020d88:	10800044 	addi	r2,r2,1
 4020d8c:	e0bfd515 	stw	r2,-172(fp)
 4020d90:	003fce06 	br	4020ccc <__flash_rwdata_start+0xfffea774>
	printf("Processing line ");
	for (int y=0; y<=height-size; y++) {
		printf("%i,",y);
		for (int x=0; x<=length-size; x++) {
			// Appliquer le reseau sur un sous-bloc de l'image
			for (int j=0; j<size; j++) {
 4020d94:	e0bfd417 	ldw	r2,-176(fp)
 4020d98:	10800044 	addi	r2,r2,1
 4020d9c:	e0bfd415 	stw	r2,-176(fp)
 4020da0:	003fc606 	br	4020cbc <__flash_rwdata_start+0xfffea764>
				for (int i=0; i<size; i++) {
					source[j*size + i] = (*source_pixel(x+i,y+j))/255.0;		// size*size sub-image
				}
			}
			network->propagate(source);
 4020da4:	e0ffd817 	ldw	r3,-160(fp)
 4020da8:	00bfffc4 	movi	r2,-1
 4020dac:	e0bfdf15 	stw	r2,-132(fp)
 4020db0:	180b883a 	mov	r5,r3
 4020db4:	e13fdc17 	ldw	r4,-144(fp)
 4020db8:	40214a00 	call	40214a0 <_ZN2NN9propagateEPf>

			// Stocker les bons/meilleurs matchs
			unsigned char pixel;
			for(int k = 0; k < network->layer[network->n_layer-1].n_neuron; k++) {
 4020dbc:	e03fd615 	stw	zero,-168(fp)
 4020dc0:	e0bfdc17 	ldw	r2,-144(fp)
 4020dc4:	10c00217 	ldw	r3,8(r2)
 4020dc8:	e0bfdc17 	ldw	r2,-144(fp)
 4020dcc:	10800117 	ldw	r2,4(r2)
 4020dd0:	1009883a 	mov	r4,r2
 4020dd4:	00820034 	movhi	r2,2048
 4020dd8:	10bfffc4 	addi	r2,r2,-1
 4020ddc:	2085883a 	add	r2,r4,r2
 4020de0:	1004917a 	slli	r2,r2,5
 4020de4:	1885883a 	add	r2,r3,r2
 4020de8:	10800217 	ldw	r2,8(r2)
 4020dec:	e0ffd617 	ldw	r3,-168(fp)
 4020df0:	18802a0e 	bge	r3,r2,4020e9c <_ZN5Image8apply_NNEP2NNi+0x494>
				pixel = 255*(network->layer[network->n_layer-1].value[k]);
 4020df4:	e0bfdc17 	ldw	r2,-144(fp)
 4020df8:	10c00217 	ldw	r3,8(r2)
 4020dfc:	e0bfdc17 	ldw	r2,-144(fp)
 4020e00:	10800117 	ldw	r2,4(r2)
 4020e04:	1009883a 	mov	r4,r2
 4020e08:	00820034 	movhi	r2,2048
 4020e0c:	10bfffc4 	addi	r2,r2,-1
 4020e10:	2085883a 	add	r2,r4,r2
 4020e14:	1004917a 	slli	r2,r2,5
 4020e18:	1885883a 	add	r2,r3,r2
 4020e1c:	10c00717 	ldw	r3,28(r2)
 4020e20:	e0bfd617 	ldw	r2,-168(fp)
 4020e24:	1085883a 	add	r2,r2,r2
 4020e28:	1085883a 	add	r2,r2,r2
 4020e2c:	1885883a 	add	r2,r3,r2
 4020e30:	10c00017 	ldw	r3,0(r2)
 4020e34:	0150dff4 	movhi	r5,17279
 4020e38:	1809883a 	mov	r4,r3
 4020e3c:	40258180 	call	4025818 <__mulsf3>
 4020e40:	1007883a 	mov	r3,r2
 4020e44:	1805883a 	mov	r2,r3
 4020e48:	1009883a 	mov	r4,r2
 4020e4c:	4024b680 	call	4024b68 <__fixunssfsi>
 4020e50:	e0bfda05 	stb	r2,-152(fp)
				//*(result->source_pixel(x,y)) = pixel;
				*(tab_result[k]->source_pixel(x,y)) = pixel;
 4020e54:	e0bfd617 	ldw	r2,-168(fp)
 4020e58:	1085883a 	add	r2,r2,r2
 4020e5c:	1085883a 	add	r2,r2,r2
 4020e60:	1007883a 	mov	r3,r2
 4020e64:	e0bfd917 	ldw	r2,-156(fp)
 4020e68:	10c5883a 	add	r2,r2,r3
 4020e6c:	10800017 	ldw	r2,0(r2)
 4020e70:	e1bfd217 	ldw	r6,-184(fp)
 4020e74:	e17fd317 	ldw	r5,-180(fp)
 4020e78:	1009883a 	mov	r4,r2
 4020e7c:	40208d80 	call	40208d8 <_ZN5Image12source_pixelEii>
 4020e80:	1007883a 	mov	r3,r2
 4020e84:	e0bfda03 	ldbu	r2,-152(fp)
 4020e88:	18800005 	stb	r2,0(r3)
			}
			network->propagate(source);

			// Stocker les bons/meilleurs matchs
			unsigned char pixel;
			for(int k = 0; k < network->layer[network->n_layer-1].n_neuron; k++) {
 4020e8c:	e0bfd617 	ldw	r2,-168(fp)
 4020e90:	10800044 	addi	r2,r2,1
 4020e94:	e0bfd615 	stw	r2,-168(fp)
 4020e98:	003fc906 	br	4020dc0 <__flash_rwdata_start+0xfffea868>
	}

	printf("Processing line ");
	for (int y=0; y<=height-size; y++) {
		printf("%i,",y);
		for (int x=0; x<=length-size; x++) {
 4020e9c:	e0bfd317 	ldw	r2,-180(fp)
 4020ea0:	10800044 	addi	r2,r2,1
 4020ea4:	e0bfd315 	stw	r2,-180(fp)
 4020ea8:	003f7d06 	br	4020ca0 <__flash_rwdata_start+0xfffea748>
	for(int i = 0; i < network->layer[network->n_layer-1].n_neuron; i++) {
		tab_result[i] = new Image(length-size+1,height-size+1);
	}

	printf("Processing line ");
	for (int y=0; y<=height-size; y++) {
 4020eac:	e0bfd217 	ldw	r2,-184(fp)
 4020eb0:	10800044 	addi	r2,r2,1
 4020eb4:	e0bfd215 	stw	r2,-184(fp)
 4020eb8:	003f6c06 	br	4020c6c <__flash_rwdata_start+0xfffea714>
				//*(result->source_pixel(x,y)) = pixel;
				*(tab_result[k]->source_pixel(x,y)) = pixel;
			}
		}
	}
	printf("\r\n");
 4020ebc:	01000034 	movhi	r4,0
 4020ec0:	00bfffc4 	movi	r2,-1
 4020ec4:	e0bfdf15 	stw	r2,-132(fp)
 4020ec8:	21000604 	addi	r4,r4,24
 4020ecc:	40282300 	call	4028230 <puts>
	return tab_result;
 4020ed0:	e0bfd917 	ldw	r2,-156(fp)
 4020ed4:	e6ffeb17 	ldw	sp,-84(fp)
 4020ed8:	e0bff615 	stw	r2,-40(fp)
 4020edc:	00000a06 	br	4020f08 <_ZN5Image8apply_NNEP2NNi+0x500>
 4020ee0:	e7002f04 	addi	fp,fp,188
 4020ee4:	e0bfe017 	ldw	r2,-128(fp)
 4020ee8:	e0bff715 	stw	r2,-36(fp)
	//Image * result = new Image(length-size+1,height-size+1);
	//Image *tab_result[network->layer[network->n_layer-1].n_neuron];		// Image array. Contains the output for each output neuron
	Image **tab_result = (Image**)malloc(network->layer[network->n_layer-1].n_neuron * sizeof(Image*));

	for(int i = 0; i < network->layer[network->n_layer-1].n_neuron; i++) {
		tab_result[i] = new Image(length-size+1,height-size+1);
 4020eec:	e13ff417 	ldw	r4,-48(fp)
 4020ef0:	4023b100 	call	4023b10 <_ZdlPv>
 4020ef4:	e0fff717 	ldw	r3,-36(fp)
 4020ef8:	00bfffc4 	movi	r2,-1
 4020efc:	e0bfdf15 	stw	r2,-132(fp)
 4020f00:	1809883a 	mov	r4,r3
 4020f04:	40275400 	call	4027540 <_Unwind_SjLj_Resume>
 4020f08:	e0bfde04 	addi	r2,fp,-136
 4020f0c:	1009883a 	mov	r4,r2
 4020f10:	40272b40 	call	40272b4 <_Unwind_SjLj_Unregister>
			}
		}
	}
	printf("\r\n");
	return tab_result;
}
 4020f14:	e0bff617 	ldw	r2,-40(fp)
 4020f18:	e6fff804 	addi	sp,fp,-32
 4020f1c:	dfc00917 	ldw	ra,36(sp)
 4020f20:	df000817 	ldw	fp,32(sp)
 4020f24:	ddc00717 	ldw	r23,28(sp)
 4020f28:	dd800617 	ldw	r22,24(sp)
 4020f2c:	dd400517 	ldw	r21,20(sp)
 4020f30:	dd000417 	ldw	r20,16(sp)
 4020f34:	dcc00317 	ldw	r19,12(sp)
 4020f38:	dc800217 	ldw	r18,8(sp)
 4020f3c:	dc400117 	ldw	r17,4(sp)
 4020f40:	dc000017 	ldw	r16,0(sp)
 4020f44:	dec00a04 	addi	sp,sp,40
 4020f48:	f800283a 	ret

04020f4c <_ZN5Image13printToScreenEiiP3VGA>:

/**********************************************************
 * Affiche l'image a l'ecran a la position x,y.
 *
 **********************************************************/
void Image::printToScreen(int x, int y, VGA *pVGA) {
 4020f4c:	f811883a 	mov	r8,ra
 4020f50:	40346e80 	call	40346e8 <_mcount>
 4020f54:	403f883a 	mov	ra,r8
 4020f58:	defff604 	addi	sp,sp,-40
 4020f5c:	dfc00915 	stw	ra,36(sp)
 4020f60:	df000815 	stw	fp,32(sp)
 4020f64:	dc400715 	stw	r17,28(sp)
 4020f68:	dc000615 	stw	r16,24(sp)
 4020f6c:	df000804 	addi	fp,sp,32
 4020f70:	e13ffa15 	stw	r4,-24(fp)
 4020f74:	e17ffb15 	stw	r5,-20(fp)
 4020f78:	e1bffc15 	stw	r6,-16(fp)
 4020f7c:	e1fffd15 	stw	r7,-12(fp)
	for(int i=0; i<length; i++) {
 4020f80:	e03ff815 	stw	zero,-32(fp)
 4020f84:	e0bffa17 	ldw	r2,-24(fp)
 4020f88:	10800117 	ldw	r2,4(r2)
 4020f8c:	e0fff817 	ldw	r3,-32(fp)
 4020f90:	1880200e 	bge	r3,r2,4021014 <_ZN5Image13printToScreenEiiP3VGA+0xc8>
		for(int j=0; j<height; j++) {
 4020f94:	e03ff915 	stw	zero,-28(fp)
 4020f98:	e0bffa17 	ldw	r2,-24(fp)
 4020f9c:	10800017 	ldw	r2,0(r2)
 4020fa0:	e0fff917 	ldw	r3,-28(fp)
 4020fa4:	1880170e 	bge	r3,r2,4021004 <_ZN5Image13printToScreenEiiP3VGA+0xb8>
			pVGA->Set_Pixel_Color(x+i,y+j,*source_pixel(i,j));
 4020fa8:	e0fffb17 	ldw	r3,-20(fp)
 4020fac:	e0bff817 	ldw	r2,-32(fp)
 4020fb0:	1885883a 	add	r2,r3,r2
 4020fb4:	1021883a 	mov	r16,r2
 4020fb8:	e0fffc17 	ldw	r3,-16(fp)
 4020fbc:	e0bff917 	ldw	r2,-28(fp)
 4020fc0:	1885883a 	add	r2,r3,r2
 4020fc4:	1023883a 	mov	r17,r2
 4020fc8:	e1bff917 	ldw	r6,-28(fp)
 4020fcc:	e17ff817 	ldw	r5,-32(fp)
 4020fd0:	e13ffa17 	ldw	r4,-24(fp)
 4020fd4:	40208d80 	call	40208d8 <_ZN5Image12source_pixelEii>
 4020fd8:	10800003 	ldbu	r2,0(r2)
 4020fdc:	10803fcc 	andi	r2,r2,255
 4020fe0:	100f883a 	mov	r7,r2
 4020fe4:	880d883a 	mov	r6,r17
 4020fe8:	800b883a 	mov	r5,r16
 4020fec:	e13ffd17 	ldw	r4,-12(fp)
 4020ff0:	40211500 	call	4021150 <_ZN3VGA15Set_Pixel_ColorEjjj>
 * Affiche l'image a l'ecran a la position x,y.
 *
 **********************************************************/
void Image::printToScreen(int x, int y, VGA *pVGA) {
	for(int i=0; i<length; i++) {
		for(int j=0; j<height; j++) {
 4020ff4:	e0bff917 	ldw	r2,-28(fp)
 4020ff8:	10800044 	addi	r2,r2,1
 4020ffc:	e0bff915 	stw	r2,-28(fp)
 4021000:	003fe506 	br	4020f98 <__flash_rwdata_start+0xfffeaa40>
/**********************************************************
 * Affiche l'image a l'ecran a la position x,y.
 *
 **********************************************************/
void Image::printToScreen(int x, int y, VGA *pVGA) {
	for(int i=0; i<length; i++) {
 4021004:	e0bff817 	ldw	r2,-32(fp)
 4021008:	10800044 	addi	r2,r2,1
 402100c:	e0bff815 	stw	r2,-32(fp)
 4021010:	003fdc06 	br	4020f84 <__flash_rwdata_start+0xfffeaa2c>
		for(int j=0; j<height; j++) {
			pVGA->Set_Pixel_Color(x+i,y+j,*source_pixel(i,j));
		}
	}
}
 4021014:	0001883a 	nop
 4021018:	e6fffe04 	addi	sp,fp,-8
 402101c:	dfc00317 	ldw	ra,12(sp)
 4021020:	df000217 	ldw	fp,8(sp)
 4021024:	dc400117 	ldw	r17,4(sp)
 4021028:	dc000017 	ldw	r16,0(sp)
 402102c:	dec00404 	addi	sp,sp,16
 4021030:	f800283a 	ret

04021034 <_ZN5Image5printEv>:

/**********************************************************
 * Affiche l'image a l'ecran a la position x,y.
 *
 **********************************************************/
void Image::print() {
 4021034:	f811883a 	mov	r8,ra
 4021038:	40346e80 	call	40346e8 <_mcount>
 402103c:	403f883a 	mov	ra,r8
 4021040:	defffa04 	addi	sp,sp,-24
 4021044:	dfc00515 	stw	ra,20(sp)
 4021048:	df000415 	stw	fp,16(sp)
 402104c:	df000404 	addi	fp,sp,16
 4021050:	e13fff15 	stw	r4,-4(fp)
	printf("\n");
 4021054:	01000284 	movi	r4,10
 4021058:	40281400 	call	4028140 <putchar>
	for(int i=0; i<length; i++) {
 402105c:	e03ffc15 	stw	zero,-16(fp)
 4021060:	e0bfff17 	ldw	r2,-4(fp)
 4021064:	10800117 	ldw	r2,4(r2)
 4021068:	e0fffc17 	ldw	r3,-16(fp)
 402106c:	18801a0e 	bge	r3,r2,40210d8 <_ZN5Image5printEv+0xa4>
		for(int j=0; j<height; j++) {
 4021070:	e03ffd15 	stw	zero,-12(fp)
 4021074:	e0bfff17 	ldw	r2,-4(fp)
 4021078:	10800017 	ldw	r2,0(r2)
 402107c:	e0fffd17 	ldw	r3,-12(fp)
 4021080:	18800f0e 	bge	r3,r2,40210c0 <_ZN5Image5printEv+0x8c>
			int value = (int) *source_pixel(i,j);
 4021084:	e1bffd17 	ldw	r6,-12(fp)
 4021088:	e17ffc17 	ldw	r5,-16(fp)
 402108c:	e13fff17 	ldw	r4,-4(fp)
 4021090:	40208d80 	call	40208d8 <_ZN5Image12source_pixelEii>
 4021094:	10800003 	ldbu	r2,0(r2)
 4021098:	10803fcc 	andi	r2,r2,255
 402109c:	e0bffe15 	stw	r2,-8(fp)
			printf("%i,",value);
 40210a0:	e17ffe17 	ldw	r5,-8(fp)
 40210a4:	01000034 	movhi	r4,0
 40210a8:	21000504 	addi	r4,r4,20
 40210ac:	40280e40 	call	40280e4 <printf>
 *
 **********************************************************/
void Image::print() {
	printf("\n");
	for(int i=0; i<length; i++) {
		for(int j=0; j<height; j++) {
 40210b0:	e0bffd17 	ldw	r2,-12(fp)
 40210b4:	10800044 	addi	r2,r2,1
 40210b8:	e0bffd15 	stw	r2,-12(fp)
 40210bc:	003fed06 	br	4021074 <__flash_rwdata_start+0xfffeab1c>
			int value = (int) *source_pixel(i,j);
			printf("%i,",value);
		}
		printf("\n");
 40210c0:	01000284 	movi	r4,10
 40210c4:	40281400 	call	4028140 <putchar>
 * Affiche l'image a l'ecran a la position x,y.
 *
 **********************************************************/
void Image::print() {
	printf("\n");
	for(int i=0; i<length; i++) {
 40210c8:	e0bffc17 	ldw	r2,-16(fp)
 40210cc:	10800044 	addi	r2,r2,1
 40210d0:	e0bffc15 	stw	r2,-16(fp)
 40210d4:	003fe206 	br	4021060 <__flash_rwdata_start+0xfffeab08>
			int value = (int) *source_pixel(i,j);
			printf("%i,",value);
		}
		printf("\n");
	}
}
 40210d8:	0001883a 	nop
 40210dc:	e037883a 	mov	sp,fp
 40210e0:	dfc00117 	ldw	ra,4(sp)
 40210e4:	df000017 	ldw	fp,0(sp)
 40210e8:	dec00204 	addi	sp,sp,8
 40210ec:	f800283a 	ret

040210f0 <_ZN5ImageD1Ev>:

Image::~Image() {
 40210f0:	f811883a 	mov	r8,ra
 40210f4:	40346e80 	call	40346e8 <_mcount>
 40210f8:	403f883a 	mov	ra,r8
 40210fc:	defffd04 	addi	sp,sp,-12
 4021100:	dfc00215 	stw	ra,8(sp)
 4021104:	df000115 	stw	fp,4(sp)
 4021108:	df000104 	addi	fp,sp,4
 402110c:	e13fff15 	stw	r4,-4(fp)
	if (source_array != 0) delete[] source_array;
 4021110:	e0bfff17 	ldw	r2,-4(fp)
 4021114:	10800217 	ldw	r2,8(r2)
 4021118:	10000726 	beq	r2,zero,4021138 <_ZN5ImageD1Ev+0x48>
 402111c:	e0bfff17 	ldw	r2,-4(fp)
 4021120:	10800217 	ldw	r2,8(r2)
 4021124:	10000426 	beq	r2,zero,4021138 <_ZN5ImageD1Ev+0x48>
 4021128:	e0bfff17 	ldw	r2,-4(fp)
 402112c:	10800217 	ldw	r2,8(r2)
 4021130:	1009883a 	mov	r4,r2
 4021134:	40229f40 	call	40229f4 <_ZdaPv>
}
 4021138:	0001883a 	nop
 402113c:	e037883a 	mov	sp,fp
 4021140:	dfc00117 	ldw	ra,4(sp)
 4021144:	df000017 	ldw	fp,0(sp)
 4021148:	dec00204 	addi	sp,sp,8
 402114c:	f800283a 	ret

04021150 <_ZN3VGA15Set_Pixel_ColorEjjj>:
		if ( (x>=640) || (y>=480) ) return;
		int address = 640*y+x;
		IOWR_8DIRECT(memory_address, address, 192);
	}

	inline void Set_Pixel_Color(unsigned int x, unsigned int y, unsigned int color) {
 4021150:	f811883a 	mov	r8,ra
 4021154:	40346e80 	call	40346e8 <_mcount>
 4021158:	403f883a 	mov	ra,r8
 402115c:	defffa04 	addi	sp,sp,-24
 4021160:	df000515 	stw	fp,20(sp)
 4021164:	df000504 	addi	fp,sp,20
 4021168:	e13ffc15 	stw	r4,-16(fp)
 402116c:	e17ffd15 	stw	r5,-12(fp)
 4021170:	e1bffe15 	stw	r6,-8(fp)
 4021174:	e1ffff15 	stw	r7,-4(fp)
		if ( (x>=640) || (y>=480) ) return;
 4021178:	e0bffd17 	ldw	r2,-12(fp)
 402117c:	1080a028 	cmpgeui	r2,r2,640
 4021180:	1000111e 	bne	r2,zero,40211c8 <_ZN3VGA15Set_Pixel_ColorEjjj+0x78>
 4021184:	e0bffe17 	ldw	r2,-8(fp)
 4021188:	10807830 	cmpltui	r2,r2,480
 402118c:	10000e26 	beq	r2,zero,40211c8 <_ZN3VGA15Set_Pixel_ColorEjjj+0x78>
		int address = 640*y+x;
 4021190:	e0bffe17 	ldw	r2,-8(fp)
 4021194:	10c0a024 	muli	r3,r2,640
 4021198:	e0bffd17 	ldw	r2,-12(fp)
 402119c:	1885883a 	add	r2,r3,r2
 40211a0:	e0bffb15 	stw	r2,-20(fp)
		IOWR_8DIRECT(memory_address, address, color);
 40211a4:	e0bffc17 	ldw	r2,-16(fp)
 40211a8:	10800117 	ldw	r2,4(r2)
 40211ac:	1007883a 	mov	r3,r2
 40211b0:	e0bffb17 	ldw	r2,-20(fp)
 40211b4:	1885883a 	add	r2,r3,r2
 40211b8:	1007883a 	mov	r3,r2
 40211bc:	e0bfff17 	ldw	r2,-4(fp)
 40211c0:	18800025 	stbio	r2,0(r3)
 40211c4:	00000106 	br	40211cc <_ZN3VGA15Set_Pixel_ColorEjjj+0x7c>
		int address = 640*y+x;
		IOWR_8DIRECT(memory_address, address, 192);
	}

	inline void Set_Pixel_Color(unsigned int x, unsigned int y, unsigned int color) {
		if ( (x>=640) || (y>=480) ) return;
 40211c8:	0001883a 	nop
		int address = 640*y+x;
		IOWR_8DIRECT(memory_address, address, color);
	}
 40211cc:	e037883a 	mov	sp,fp
 40211d0:	df000017 	ldw	fp,0(sp)
 40211d4:	dec00104 	addi	sp,sp,4
 40211d8:	f800283a 	ret

040211dc <_ZN2NNC1Ei>:
 */

#include "NN.h"
#include "stdio.h"

NN::NN(int new_n_layer) {
 40211dc:	f811883a 	mov	r8,ra
 40211e0:	40346e80 	call	40346e8 <_mcount>
 40211e4:	403f883a 	mov	ra,r8
 40211e8:	deffdf04 	addi	sp,sp,-132
 40211ec:	dfc02015 	stw	ra,128(sp)
 40211f0:	df001f15 	stw	fp,124(sp)
 40211f4:	ddc01e15 	stw	r23,120(sp)
 40211f8:	dd801d15 	stw	r22,116(sp)
 40211fc:	dd401c15 	stw	r21,112(sp)
 4021200:	dd001b15 	stw	r20,108(sp)
 4021204:	dcc01a15 	stw	r19,104(sp)
 4021208:	dc801915 	stw	r18,100(sp)
 402120c:	dc401815 	stw	r17,96(sp)
 4021210:	dc001715 	stw	r16,92(sp)
 4021214:	df001f04 	addi	fp,sp,124
 4021218:	e13fe115 	stw	r4,-124(fp)
 402121c:	e17fe215 	stw	r5,-120(fp)
 4021220:	008100b4 	movhi	r2,1026
 4021224:	108c9504 	addi	r2,r2,12884
 4021228:	e0bfe915 	stw	r2,-92(fp)
 402122c:	008100f4 	movhi	r2,1027
 4021230:	10979c84 	addi	r2,r2,24178
 4021234:	e0bfea15 	stw	r2,-88(fp)
 4021238:	e0bfeb04 	addi	r2,fp,-84
 402123c:	e0ffe104 	addi	r3,fp,-124
 4021240:	10c00015 	stw	r3,0(r2)
 4021244:	00c100b4 	movhi	r3,1026
 4021248:	18c4cd04 	addi	r3,r3,4916
 402124c:	10c00115 	stw	r3,4(r2)
 4021250:	16c00215 	stw	sp,8(r2)
 4021254:	e0bfe304 	addi	r2,fp,-116
 4021258:	1009883a 	mov	r4,r2
 402125c:	40272900 	call	4027290 <_Unwind_SjLj_Register>
 4021260:	00800034 	movhi	r2,0
 4021264:	10801404 	addi	r2,r2,80
 4021268:	e0ffe117 	ldw	r3,-124(fp)
 402126c:	18800015 	stw	r2,0(r3)
	// TODO Auto-generated constructor stub
	n_layer = new_n_layer;
 4021270:	e0bfe117 	ldw	r2,-124(fp)
 4021274:	e0ffe217 	ldw	r3,-120(fp)
 4021278:	10c00115 	stw	r3,4(r2)
	layer = new NNLayer[n_layer];
 402127c:	e0bfe117 	ldw	r2,-124(fp)
 4021280:	10800117 	ldw	r2,4(r2)
 4021284:	e0bff315 	stw	r2,-52(fp)
 4021288:	0080fe34 	movhi	r2,1016
 402128c:	e13ff317 	ldw	r4,-52(fp)
 4021290:	11000436 	bltu	r2,r4,40212a4 <_ZN2NNC1Ei+0xc8>
 4021294:	e0fff317 	ldw	r3,-52(fp)
 4021298:	1804917a 	slli	r2,r3,5
 402129c:	10800104 	addi	r2,r2,4
 40212a0:	00000106 	br	40212a8 <_ZN2NNC1Ei+0xcc>
 40212a4:	00bfffc4 	movi	r2,-1
 40212a8:	00ffffc4 	movi	r3,-1
 40212ac:	e0ffe415 	stw	r3,-112(fp)
 40212b0:	1009883a 	mov	r4,r2
 40212b4:	40228d80 	call	40228d8 <_Znaj>
 40212b8:	e0bff415 	stw	r2,-48(fp)
 40212bc:	e0bff317 	ldw	r2,-52(fp)
 40212c0:	e13ff417 	ldw	r4,-48(fp)
 40212c4:	20800015 	stw	r2,0(r4)
 40212c8:	e0fff417 	ldw	r3,-48(fp)
 40212cc:	18c00104 	addi	r3,r3,4
 40212d0:	e0fff515 	stw	r3,-44(fp)
 40212d4:	e13ff317 	ldw	r4,-52(fp)
 40212d8:	20bfffc4 	addi	r2,r4,-1
 40212dc:	e0bff115 	stw	r2,-60(fp)
 40212e0:	e0bff517 	ldw	r2,-44(fp)
 40212e4:	e0bff015 	stw	r2,-64(fp)
 40212e8:	e0fff117 	ldw	r3,-60(fp)
 40212ec:	18bfffe0 	cmpeqi	r2,r3,-1
 40212f0:	10000b1e 	bne	r2,zero,4021320 <_ZN2NNC1Ei+0x144>
 40212f4:	00800044 	movi	r2,1
 40212f8:	e0bfe415 	stw	r2,-112(fp)
 40212fc:	e13ff017 	ldw	r4,-64(fp)
 4021300:	40219480 	call	4021948 <_ZN7NNLayerC1Ev>
 4021304:	e13ff017 	ldw	r4,-64(fp)
 4021308:	21000804 	addi	r4,r4,32
 402130c:	e13ff015 	stw	r4,-64(fp)
 4021310:	e0bff117 	ldw	r2,-60(fp)
 4021314:	10bfffc4 	addi	r2,r2,-1
 4021318:	e0bff115 	stw	r2,-60(fp)
 402131c:	003ff206 	br	40212e8 <__flash_rwdata_start+0xfffead90>
 4021320:	e13ff417 	ldw	r4,-48(fp)
 4021324:	20c00104 	addi	r3,r4,4
 4021328:	e0bfe117 	ldw	r2,-124(fp)
 402132c:	10c00215 	stw	r3,8(r2)
}
 4021330:	00002506 	br	40213c8 <_ZN2NNC1Ei+0x1ec>
 4021334:	e7001f04 	addi	fp,fp,124
 4021338:	e0bfe517 	ldw	r2,-108(fp)
 402133c:	e0bff715 	stw	r2,-36(fp)
 4021340:	e0bff517 	ldw	r2,-44(fp)
 4021344:	10001726 	beq	r2,zero,40213a4 <_ZN2NNC1Ei+0x1c8>
#include "stdio.h"

NN::NN(int new_n_layer) {
	// TODO Auto-generated constructor stub
	n_layer = new_n_layer;
	layer = new NNLayer[n_layer];
 4021348:	e0bff117 	ldw	r2,-60(fp)
 402134c:	e13ff317 	ldw	r4,-52(fp)
 4021350:	2087c83a 	sub	r3,r4,r2
 4021354:	00820034 	movhi	r2,2048
 4021358:	10bfffc4 	addi	r2,r2,-1
 402135c:	1885883a 	add	r2,r3,r2
 4021360:	1004917a 	slli	r2,r2,5
 4021364:	e0fff517 	ldw	r3,-44(fp)
 4021368:	1885883a 	add	r2,r3,r2
 402136c:	e0bff215 	stw	r2,-56(fp)
 4021370:	e13ff217 	ldw	r4,-56(fp)
 4021374:	e0bff517 	ldw	r2,-44(fp)
 4021378:	20800a26 	beq	r4,r2,40213a4 <_ZN2NNC1Ei+0x1c8>
 402137c:	e0fff217 	ldw	r3,-56(fp)
 4021380:	18fff804 	addi	r3,r3,-32
 4021384:	e0fff215 	stw	r3,-56(fp)
 4021388:	e13ff217 	ldw	r4,-56(fp)
 402138c:	20800017 	ldw	r2,0(r4)
 4021390:	10800017 	ldw	r2,0(r2)
 4021394:	e03fe415 	stw	zero,-112(fp)
 4021398:	e13ff217 	ldw	r4,-56(fp)
 402139c:	103ee83a 	callr	r2
 40213a0:	003ff306 	br	4021370 <__flash_rwdata_start+0xfffeae18>
 40213a4:	e0bff717 	ldw	r2,-36(fp)
 40213a8:	e0bff615 	stw	r2,-40(fp)
 40213ac:	e13ff417 	ldw	r4,-48(fp)
 40213b0:	40229f40 	call	40229f4 <_ZdaPv>
 40213b4:	e0fff617 	ldw	r3,-40(fp)
 40213b8:	00bfffc4 	movi	r2,-1
 40213bc:	e0bfe415 	stw	r2,-112(fp)
 40213c0:	1809883a 	mov	r4,r3
 40213c4:	40275400 	call	4027540 <_Unwind_SjLj_Resume>
 40213c8:	e0bfe304 	addi	r2,fp,-116
 40213cc:	1009883a 	mov	r4,r2
 40213d0:	40272b40 	call	40272b4 <_Unwind_SjLj_Unregister>
}
 40213d4:	e6fff804 	addi	sp,fp,-32
 40213d8:	dfc00917 	ldw	ra,36(sp)
 40213dc:	df000817 	ldw	fp,32(sp)
 40213e0:	ddc00717 	ldw	r23,28(sp)
 40213e4:	dd800617 	ldw	r22,24(sp)
 40213e8:	dd400517 	ldw	r21,20(sp)
 40213ec:	dd000417 	ldw	r20,16(sp)
 40213f0:	dcc00317 	ldw	r19,12(sp)
 40213f4:	dc800217 	ldw	r18,8(sp)
 40213f8:	dc400117 	ldw	r17,4(sp)
 40213fc:	dc000017 	ldw	r16,0(sp)
 4021400:	dec00a04 	addi	sp,sp,40
 4021404:	f800283a 	ret

04021408 <_ZN2NND1Ev>:

NN::~NN() {
 4021408:	f811883a 	mov	r8,ra
 402140c:	40346e80 	call	40346e8 <_mcount>
 4021410:	403f883a 	mov	ra,r8
 4021414:	defffd04 	addi	sp,sp,-12
 4021418:	dfc00215 	stw	ra,8(sp)
 402141c:	df000115 	stw	fp,4(sp)
 4021420:	df000104 	addi	fp,sp,4
 4021424:	e13fff15 	stw	r4,-4(fp)
 4021428:	00800034 	movhi	r2,0
 402142c:	10801404 	addi	r2,r2,80
 4021430:	e0ffff17 	ldw	r3,-4(fp)
 4021434:	18800015 	stw	r2,0(r3)
	// TODO Auto-generated destructor stub
}
 4021438:	0005883a 	mov	r2,zero
 402143c:	10000226 	beq	r2,zero,4021448 <_ZN2NND1Ev+0x40>
 4021440:	e13fff17 	ldw	r4,-4(fp)
 4021444:	4023b100 	call	4023b10 <_ZdlPv>
 4021448:	e037883a 	mov	sp,fp
 402144c:	dfc00117 	ldw	ra,4(sp)
 4021450:	df000017 	ldw	fp,0(sp)
 4021454:	dec00204 	addi	sp,sp,8
 4021458:	f800283a 	ret

0402145c <_ZN2NND0Ev>:
	// TODO Auto-generated constructor stub
	n_layer = new_n_layer;
	layer = new NNLayer[n_layer];
}

NN::~NN() {
 402145c:	f811883a 	mov	r8,ra
 4021460:	40346e80 	call	40346e8 <_mcount>
 4021464:	403f883a 	mov	ra,r8
 4021468:	defffd04 	addi	sp,sp,-12
 402146c:	dfc00215 	stw	ra,8(sp)
 4021470:	df000115 	stw	fp,4(sp)
 4021474:	df000104 	addi	fp,sp,4
 4021478:	e13fff15 	stw	r4,-4(fp)
	// TODO Auto-generated destructor stub
}
 402147c:	e13fff17 	ldw	r4,-4(fp)
 4021480:	40214080 	call	4021408 <_ZN2NND1Ev>
 4021484:	e13fff17 	ldw	r4,-4(fp)
 4021488:	4023b100 	call	4023b10 <_ZdlPv>
 402148c:	e037883a 	mov	sp,fp
 4021490:	dfc00117 	ldw	ra,4(sp)
 4021494:	df000017 	ldw	fp,0(sp)
 4021498:	dec00204 	addi	sp,sp,8
 402149c:	f800283a 	ret

040214a0 <_ZN2NN9propagateEPf>:

float * NN::propagate(float * source) {
 40214a0:	f811883a 	mov	r8,ra
 40214a4:	40346e80 	call	40346e8 <_mcount>
 40214a8:	403f883a 	mov	ra,r8
 40214ac:	defffb04 	addi	sp,sp,-20
 40214b0:	dfc00415 	stw	ra,16(sp)
 40214b4:	df000315 	stw	fp,12(sp)
 40214b8:	df000304 	addi	fp,sp,12
 40214bc:	e13ffe15 	stw	r4,-8(fp)
 40214c0:	e17fff15 	stw	r5,-4(fp)
	for (int i=0; i<n_layer; i++) {
 40214c4:	e03ffd15 	stw	zero,-12(fp)
 40214c8:	e0bffe17 	ldw	r2,-8(fp)
 40214cc:	10800117 	ldw	r2,4(r2)
 40214d0:	e0fffd17 	ldw	r3,-12(fp)
 40214d4:	18800d0e 	bge	r3,r2,402150c <_ZN2NN9propagateEPf+0x6c>
		source = layer[i].propagate(source);
 40214d8:	e0bffe17 	ldw	r2,-8(fp)
 40214dc:	10c00217 	ldw	r3,8(r2)
 40214e0:	e0bffd17 	ldw	r2,-12(fp)
 40214e4:	1004917a 	slli	r2,r2,5
 40214e8:	1885883a 	add	r2,r3,r2
 40214ec:	e17fff17 	ldw	r5,-4(fp)
 40214f0:	1009883a 	mov	r4,r2
 40214f4:	4021f000 	call	4021f00 <_ZN7NNLayer9propagateEPf>
 40214f8:	e0bfff15 	stw	r2,-4(fp)
NN::~NN() {
	// TODO Auto-generated destructor stub
}

float * NN::propagate(float * source) {
	for (int i=0; i<n_layer; i++) {
 40214fc:	e0bffd17 	ldw	r2,-12(fp)
 4021500:	10800044 	addi	r2,r2,1
 4021504:	e0bffd15 	stw	r2,-12(fp)
 4021508:	003fef06 	br	40214c8 <__flash_rwdata_start+0xfffeaf70>
		source = layer[i].propagate(source);
	}
	return source;
 402150c:	e0bfff17 	ldw	r2,-4(fp)
}
 4021510:	e037883a 	mov	sp,fp
 4021514:	dfc00117 	ldw	ra,4(sp)
 4021518:	df000017 	ldw	fp,0(sp)
 402151c:	dec00204 	addi	sp,sp,8
 4021520:	f800283a 	ret

04021524 <_ZN2NN17getMaxOutputIndexEv>:

int NN::getMaxOutputIndex() {
 4021524:	f811883a 	mov	r8,ra
 4021528:	40346e80 	call	40346e8 <_mcount>
 402152c:	403f883a 	mov	ra,r8
 4021530:	defffa04 	addi	sp,sp,-24
 4021534:	dfc00515 	stw	ra,20(sp)
 4021538:	df000415 	stw	fp,16(sp)
 402153c:	df000404 	addi	fp,sp,16
 4021540:	e13fff15 	stw	r4,-4(fp)
	float maxval = layer[n_layer-1].value[0];
 4021544:	e0bfff17 	ldw	r2,-4(fp)
 4021548:	10c00217 	ldw	r3,8(r2)
 402154c:	e0bfff17 	ldw	r2,-4(fp)
 4021550:	10800117 	ldw	r2,4(r2)
 4021554:	1009883a 	mov	r4,r2
 4021558:	00820034 	movhi	r2,2048
 402155c:	10bfffc4 	addi	r2,r2,-1
 4021560:	2085883a 	add	r2,r4,r2
 4021564:	1004917a 	slli	r2,r2,5
 4021568:	1885883a 	add	r2,r3,r2
 402156c:	10800717 	ldw	r2,28(r2)
 4021570:	10800017 	ldw	r2,0(r2)
 4021574:	e0bffc15 	stw	r2,-16(fp)
	int maxindex = 0;
 4021578:	e03ffd15 	stw	zero,-12(fp)
	for(int i=1; i<layer[n_layer-1].n_neuron; i++) {
 402157c:	00800044 	movi	r2,1
 4021580:	e0bffe15 	stw	r2,-8(fp)
 4021584:	e0bfff17 	ldw	r2,-4(fp)
 4021588:	10c00217 	ldw	r3,8(r2)
 402158c:	e0bfff17 	ldw	r2,-4(fp)
 4021590:	10800117 	ldw	r2,4(r2)
 4021594:	1009883a 	mov	r4,r2
 4021598:	00820034 	movhi	r2,2048
 402159c:	10bfffc4 	addi	r2,r2,-1
 40215a0:	2085883a 	add	r2,r4,r2
 40215a4:	1004917a 	slli	r2,r2,5
 40215a8:	1885883a 	add	r2,r3,r2
 40215ac:	10800217 	ldw	r2,8(r2)
 40215b0:	e0fffe17 	ldw	r3,-8(fp)
 40215b4:	18802b0e 	bge	r3,r2,4021664 <_ZN2NN17getMaxOutputIndexEv+0x140>
		if( layer[n_layer-1].value[i] > maxval) {
 40215b8:	e0bfff17 	ldw	r2,-4(fp)
 40215bc:	10c00217 	ldw	r3,8(r2)
 40215c0:	e0bfff17 	ldw	r2,-4(fp)
 40215c4:	10800117 	ldw	r2,4(r2)
 40215c8:	1009883a 	mov	r4,r2
 40215cc:	00820034 	movhi	r2,2048
 40215d0:	10bfffc4 	addi	r2,r2,-1
 40215d4:	2085883a 	add	r2,r4,r2
 40215d8:	1004917a 	slli	r2,r2,5
 40215dc:	1885883a 	add	r2,r3,r2
 40215e0:	10c00717 	ldw	r3,28(r2)
 40215e4:	e0bffe17 	ldw	r2,-8(fp)
 40215e8:	1085883a 	add	r2,r2,r2
 40215ec:	1085883a 	add	r2,r2,r2
 40215f0:	1885883a 	add	r2,r3,r2
 40215f4:	10c00017 	ldw	r3,0(r2)
 40215f8:	e17ffc17 	ldw	r5,-16(fp)
 40215fc:	1809883a 	mov	r4,r3
 4021600:	40257540 	call	4025754 <__gesf2>
 4021604:	0080130e 	bge	zero,r2,4021654 <_ZN2NN17getMaxOutputIndexEv+0x130>
			maxval = layer[n_layer-1].value[i];
 4021608:	e0bfff17 	ldw	r2,-4(fp)
 402160c:	10c00217 	ldw	r3,8(r2)
 4021610:	e0bfff17 	ldw	r2,-4(fp)
 4021614:	10800117 	ldw	r2,4(r2)
 4021618:	1009883a 	mov	r4,r2
 402161c:	00820034 	movhi	r2,2048
 4021620:	10bfffc4 	addi	r2,r2,-1
 4021624:	2085883a 	add	r2,r4,r2
 4021628:	1004917a 	slli	r2,r2,5
 402162c:	1885883a 	add	r2,r3,r2
 4021630:	10c00717 	ldw	r3,28(r2)
 4021634:	e0bffe17 	ldw	r2,-8(fp)
 4021638:	1085883a 	add	r2,r2,r2
 402163c:	1085883a 	add	r2,r2,r2
 4021640:	1885883a 	add	r2,r3,r2
 4021644:	10800017 	ldw	r2,0(r2)
 4021648:	e0bffc15 	stw	r2,-16(fp)
			maxindex = i;
 402164c:	e0bffe17 	ldw	r2,-8(fp)
 4021650:	e0bffd15 	stw	r2,-12(fp)
}

int NN::getMaxOutputIndex() {
	float maxval = layer[n_layer-1].value[0];
	int maxindex = 0;
	for(int i=1; i<layer[n_layer-1].n_neuron; i++) {
 4021654:	e0bffe17 	ldw	r2,-8(fp)
 4021658:	10800044 	addi	r2,r2,1
 402165c:	e0bffe15 	stw	r2,-8(fp)
 4021660:	003fc806 	br	4021584 <__flash_rwdata_start+0xfffeb02c>
		if( layer[n_layer-1].value[i] > maxval) {
			maxval = layer[n_layer-1].value[i];
			maxindex = i;
		}
	}
	return maxindex;
 4021664:	e0bffd17 	ldw	r2,-12(fp)
}
 4021668:	e037883a 	mov	sp,fp
 402166c:	dfc00117 	ldw	ra,4(sp)
 4021670:	df000017 	ldw	fp,0(sp)
 4021674:	dec00204 	addi	sp,sp,8
 4021678:	f800283a 	ret

0402167c <_ZN2NN17getMaxOutputValueEv>:

int NN::getMaxOutputValue() {
 402167c:	f811883a 	mov	r8,ra
 4021680:	40346e80 	call	40346e8 <_mcount>
 4021684:	403f883a 	mov	ra,r8
 4021688:	defffb04 	addi	sp,sp,-20
 402168c:	dfc00415 	stw	ra,16(sp)
 4021690:	df000315 	stw	fp,12(sp)
 4021694:	df000304 	addi	fp,sp,12
 4021698:	e13fff15 	stw	r4,-4(fp)
	float maxval = layer[n_layer-1].value[0];
 402169c:	e0bfff17 	ldw	r2,-4(fp)
 40216a0:	10c00217 	ldw	r3,8(r2)
 40216a4:	e0bfff17 	ldw	r2,-4(fp)
 40216a8:	10800117 	ldw	r2,4(r2)
 40216ac:	1009883a 	mov	r4,r2
 40216b0:	00820034 	movhi	r2,2048
 40216b4:	10bfffc4 	addi	r2,r2,-1
 40216b8:	2085883a 	add	r2,r4,r2
 40216bc:	1004917a 	slli	r2,r2,5
 40216c0:	1885883a 	add	r2,r3,r2
 40216c4:	10800717 	ldw	r2,28(r2)
 40216c8:	10800017 	ldw	r2,0(r2)
 40216cc:	e0bffd15 	stw	r2,-12(fp)
	for(int i=1; i<layer[n_layer-1].n_neuron; i++) {
 40216d0:	00800044 	movi	r2,1
 40216d4:	e0bffe15 	stw	r2,-8(fp)
 40216d8:	e0bfff17 	ldw	r2,-4(fp)
 40216dc:	10c00217 	ldw	r3,8(r2)
 40216e0:	e0bfff17 	ldw	r2,-4(fp)
 40216e4:	10800117 	ldw	r2,4(r2)
 40216e8:	1009883a 	mov	r4,r2
 40216ec:	00820034 	movhi	r2,2048
 40216f0:	10bfffc4 	addi	r2,r2,-1
 40216f4:	2085883a 	add	r2,r4,r2
 40216f8:	1004917a 	slli	r2,r2,5
 40216fc:	1885883a 	add	r2,r3,r2
 4021700:	10800217 	ldw	r2,8(r2)
 4021704:	e0fffe17 	ldw	r3,-8(fp)
 4021708:	1880290e 	bge	r3,r2,40217b0 <_ZN2NN17getMaxOutputValueEv+0x134>
		if( layer[n_layer-1].value[i] > maxval) {
 402170c:	e0bfff17 	ldw	r2,-4(fp)
 4021710:	10c00217 	ldw	r3,8(r2)
 4021714:	e0bfff17 	ldw	r2,-4(fp)
 4021718:	10800117 	ldw	r2,4(r2)
 402171c:	1009883a 	mov	r4,r2
 4021720:	00820034 	movhi	r2,2048
 4021724:	10bfffc4 	addi	r2,r2,-1
 4021728:	2085883a 	add	r2,r4,r2
 402172c:	1004917a 	slli	r2,r2,5
 4021730:	1885883a 	add	r2,r3,r2
 4021734:	10c00717 	ldw	r3,28(r2)
 4021738:	e0bffe17 	ldw	r2,-8(fp)
 402173c:	1085883a 	add	r2,r2,r2
 4021740:	1085883a 	add	r2,r2,r2
 4021744:	1885883a 	add	r2,r3,r2
 4021748:	10c00017 	ldw	r3,0(r2)
 402174c:	e17ffd17 	ldw	r5,-12(fp)
 4021750:	1809883a 	mov	r4,r3
 4021754:	40257540 	call	4025754 <__gesf2>
 4021758:	0080110e 	bge	zero,r2,40217a0 <_ZN2NN17getMaxOutputValueEv+0x124>
			maxval = layer[n_layer-1].value[i];
 402175c:	e0bfff17 	ldw	r2,-4(fp)
 4021760:	10c00217 	ldw	r3,8(r2)
 4021764:	e0bfff17 	ldw	r2,-4(fp)
 4021768:	10800117 	ldw	r2,4(r2)
 402176c:	1009883a 	mov	r4,r2
 4021770:	00820034 	movhi	r2,2048
 4021774:	10bfffc4 	addi	r2,r2,-1
 4021778:	2085883a 	add	r2,r4,r2
 402177c:	1004917a 	slli	r2,r2,5
 4021780:	1885883a 	add	r2,r3,r2
 4021784:	10c00717 	ldw	r3,28(r2)
 4021788:	e0bffe17 	ldw	r2,-8(fp)
 402178c:	1085883a 	add	r2,r2,r2
 4021790:	1085883a 	add	r2,r2,r2
 4021794:	1885883a 	add	r2,r3,r2
 4021798:	10800017 	ldw	r2,0(r2)
 402179c:	e0bffd15 	stw	r2,-12(fp)
	return maxindex;
}

int NN::getMaxOutputValue() {
	float maxval = layer[n_layer-1].value[0];
	for(int i=1; i<layer[n_layer-1].n_neuron; i++) {
 40217a0:	e0bffe17 	ldw	r2,-8(fp)
 40217a4:	10800044 	addi	r2,r2,1
 40217a8:	e0bffe15 	stw	r2,-8(fp)
 40217ac:	003fca06 	br	40216d8 <__flash_rwdata_start+0xfffeb180>
		if( layer[n_layer-1].value[i] > maxval) {
			maxval = layer[n_layer-1].value[i];
		}
	}
	return maxval;
 40217b0:	e13ffd17 	ldw	r4,-12(fp)
 40217b4:	40261100 	call	4026110 <__fixsfsi>
}
 40217b8:	e037883a 	mov	sp,fp
 40217bc:	dfc00117 	ldw	ra,4(sp)
 40217c0:	df000017 	ldw	fp,0(sp)
 40217c4:	dec00204 	addi	sp,sp,8
 40217c8:	f800283a 	ret

040217cc <_ZN2NN5printEv>:

void NN::print() {
 40217cc:	f811883a 	mov	r8,ra
 40217d0:	40346e80 	call	40346e8 <_mcount>
 40217d4:	403f883a 	mov	ra,r8
 40217d8:	defffc04 	addi	sp,sp,-16
 40217dc:	dfc00315 	stw	ra,12(sp)
 40217e0:	df000215 	stw	fp,8(sp)
 40217e4:	df000204 	addi	fp,sp,8
 40217e8:	e13fff15 	stw	r4,-4(fp)
	for (int i=0; i<n_layer; i++) {
 40217ec:	e03ffe15 	stw	zero,-8(fp)
 40217f0:	e0bfff17 	ldw	r2,-4(fp)
 40217f4:	10800117 	ldw	r2,4(r2)
 40217f8:	e0fffe17 	ldw	r3,-8(fp)
 40217fc:	18800f0e 	bge	r3,r2,402183c <_ZN2NN5printEv+0x70>
		printf("Layer : %i\r\n",i);
 4021800:	e17ffe17 	ldw	r5,-8(fp)
 4021804:	01000034 	movhi	r4,0
 4021808:	21000704 	addi	r4,r4,28
 402180c:	40280e40 	call	40280e4 <printf>

		layer[i].print();
 4021810:	e0bfff17 	ldw	r2,-4(fp)
 4021814:	10c00217 	ldw	r3,8(r2)
 4021818:	e0bffe17 	ldw	r2,-8(fp)
 402181c:	1004917a 	slli	r2,r2,5
 4021820:	1885883a 	add	r2,r3,r2
 4021824:	1009883a 	mov	r4,r2
 4021828:	40221d80 	call	40221d8 <_ZN7NNLayer5printEv>
	}
	return maxval;
}

void NN::print() {
	for (int i=0; i<n_layer; i++) {
 402182c:	e0bffe17 	ldw	r2,-8(fp)
 4021830:	10800044 	addi	r2,r2,1
 4021834:	e0bffe15 	stw	r2,-8(fp)
 4021838:	003fed06 	br	40217f0 <__flash_rwdata_start+0xfffeb298>
		printf("Layer : %i\r\n",i);

		layer[i].print();
	}
}
 402183c:	0001883a 	nop
 4021840:	e037883a 	mov	sp,fp
 4021844:	dfc00117 	ldw	ra,4(sp)
 4021848:	df000017 	ldw	fp,0(sp)
 402184c:	dec00204 	addi	sp,sp,8
 4021850:	f800283a 	ret

04021854 <_ZN2NN12printOutputsEv>:

void NN::printOutputs() {
 4021854:	f811883a 	mov	r8,ra
 4021858:	40346e80 	call	40346e8 <_mcount>
 402185c:	403f883a 	mov	ra,r8
 4021860:	defffc04 	addi	sp,sp,-16
 4021864:	dfc00315 	stw	ra,12(sp)
 4021868:	df000215 	stw	fp,8(sp)
 402186c:	df000204 	addi	fp,sp,8
 4021870:	e13fff15 	stw	r4,-4(fp)

	for(int i=0; i<layer[n_layer-1].n_neuron; i++) {
 4021874:	e03ffe15 	stw	zero,-8(fp)
 4021878:	e0bfff17 	ldw	r2,-4(fp)
 402187c:	10c00217 	ldw	r3,8(r2)
 4021880:	e0bfff17 	ldw	r2,-4(fp)
 4021884:	10800117 	ldw	r2,4(r2)
 4021888:	1009883a 	mov	r4,r2
 402188c:	00820034 	movhi	r2,2048
 4021890:	10bfffc4 	addi	r2,r2,-1
 4021894:	2085883a 	add	r2,r4,r2
 4021898:	1004917a 	slli	r2,r2,5
 402189c:	1885883a 	add	r2,r3,r2
 40218a0:	10800217 	ldw	r2,8(r2)
 40218a4:	e0fffe17 	ldw	r3,-8(fp)
 40218a8:	18801e0e 	bge	r3,r2,4021924 <_ZN2NN12printOutputsEv+0xd0>
		printf("Neuron[%i]: %2.2f \r\n",i, layer[n_layer-1].value[i]);
 40218ac:	e0bfff17 	ldw	r2,-4(fp)
 40218b0:	10c00217 	ldw	r3,8(r2)
 40218b4:	e0bfff17 	ldw	r2,-4(fp)
 40218b8:	10800117 	ldw	r2,4(r2)
 40218bc:	1009883a 	mov	r4,r2
 40218c0:	00820034 	movhi	r2,2048
 40218c4:	10bfffc4 	addi	r2,r2,-1
 40218c8:	2085883a 	add	r2,r4,r2
 40218cc:	1004917a 	slli	r2,r2,5
 40218d0:	1885883a 	add	r2,r3,r2
 40218d4:	10c00717 	ldw	r3,28(r2)
 40218d8:	e0bffe17 	ldw	r2,-8(fp)
 40218dc:	1085883a 	add	r2,r2,r2
 40218e0:	1085883a 	add	r2,r2,r2
 40218e4:	1885883a 	add	r2,r3,r2
 40218e8:	10c00017 	ldw	r3,0(r2)
 40218ec:	1809883a 	mov	r4,r3
 40218f0:	4026d940 	call	4026d94 <__extendsfdf2>
 40218f4:	1009883a 	mov	r4,r2
 40218f8:	180b883a 	mov	r5,r3
 40218fc:	200d883a 	mov	r6,r4
 4021900:	280f883a 	mov	r7,r5
 4021904:	e17ffe17 	ldw	r5,-8(fp)
 4021908:	01000034 	movhi	r4,0
 402190c:	21000b04 	addi	r4,r4,44
 4021910:	40280e40 	call	40280e4 <printf>
	}
}

void NN::printOutputs() {

	for(int i=0; i<layer[n_layer-1].n_neuron; i++) {
 4021914:	e0bffe17 	ldw	r2,-8(fp)
 4021918:	10800044 	addi	r2,r2,1
 402191c:	e0bffe15 	stw	r2,-8(fp)
 4021920:	003fd506 	br	4021878 <__flash_rwdata_start+0xfffeb320>
		printf("Neuron[%i]: %2.2f \r\n",i, layer[n_layer-1].value[i]);
	}
	printf("\r\n");
 4021924:	01000034 	movhi	r4,0
 4021928:	21001104 	addi	r4,r4,68
 402192c:	40282300 	call	4028230 <puts>
}
 4021930:	0001883a 	nop
 4021934:	e037883a 	mov	sp,fp
 4021938:	dfc00117 	ldw	ra,4(sp)
 402193c:	df000017 	ldw	fp,0(sp)
 4021940:	dec00204 	addi	sp,sp,8
 4021944:	f800283a 	ret

04021948 <_ZN7NNLayerC1Ev>:

#define MAKE_TERNARY_THRESHOLD 0.3

int my_debug = 0;

NNLayer::NNLayer() {
 4021948:	f811883a 	mov	r8,ra
 402194c:	40346e80 	call	40346e8 <_mcount>
 4021950:	403f883a 	mov	ra,r8
 4021954:	defffe04 	addi	sp,sp,-8
 4021958:	df000115 	stw	fp,4(sp)
 402195c:	df000104 	addi	fp,sp,4
 4021960:	e13fff15 	stw	r4,-4(fp)
 4021964:	00800034 	movhi	r2,0
 4021968:	10803304 	addi	r2,r2,204
 402196c:	e0ffff17 	ldw	r3,-4(fp)
 4021970:	18800015 	stw	r2,0(r3)
	// TODO Auto-generated constructor stub
	n_input = 0;
 4021974:	e0bfff17 	ldw	r2,-4(fp)
 4021978:	10000115 	stw	zero,4(r2)
	n_neuron = 0;
 402197c:	e0bfff17 	ldw	r2,-4(fp)
 4021980:	10000215 	stw	zero,8(r2)
	n_input_per_neuron = 0;
 4021984:	e0bfff17 	ldw	r2,-4(fp)
 4021988:	10000315 	stw	zero,12(r2)
	LUT_size = 0;
 402198c:	e0bfff17 	ldw	r2,-4(fp)
 4021990:	10000415 	stw	zero,16(r2)

	LUT_array = 0;
 4021994:	e0bfff17 	ldw	r2,-4(fp)
 4021998:	10000515 	stw	zero,20(r2)
	pos_array = 0;
 402199c:	e0bfff17 	ldw	r2,-4(fp)
 40219a0:	10000615 	stw	zero,24(r2)
	value = 0;
 40219a4:	e0bfff17 	ldw	r2,-4(fp)
 40219a8:	10000715 	stw	zero,28(r2)
}
 40219ac:	0001883a 	nop
 40219b0:	e037883a 	mov	sp,fp
 40219b4:	df000017 	ldw	fp,0(sp)
 40219b8:	dec00104 	addi	sp,sp,4
 40219bc:	f800283a 	ret

040219c0 <_ZN7NNLayerC1Eiii>:

NNLayer::NNLayer(int new_n_input, int new_n_neuron, int nipn) {
 40219c0:	f811883a 	mov	r8,ra
 40219c4:	40346e80 	call	40346e8 <_mcount>
 40219c8:	403f883a 	mov	ra,r8
 40219cc:	defffa04 	addi	sp,sp,-24
 40219d0:	dfc00515 	stw	ra,20(sp)
 40219d4:	df000415 	stw	fp,16(sp)
 40219d8:	df000404 	addi	fp,sp,16
 40219dc:	e13ffc15 	stw	r4,-16(fp)
 40219e0:	e17ffd15 	stw	r5,-12(fp)
 40219e4:	e1bffe15 	stw	r6,-8(fp)
 40219e8:	e1ffff15 	stw	r7,-4(fp)
 40219ec:	00800034 	movhi	r2,0
 40219f0:	10803304 	addi	r2,r2,204
 40219f4:	e0fffc17 	ldw	r3,-16(fp)
 40219f8:	18800015 	stw	r2,0(r3)
	// TODO Auto-generated constructor stub
	init(new_n_input, new_n_neuron, nipn);
 40219fc:	e1ffff17 	ldw	r7,-4(fp)
 4021a00:	e1bffe17 	ldw	r6,-8(fp)
 4021a04:	e17ffd17 	ldw	r5,-12(fp)
 4021a08:	e13ffc17 	ldw	r4,-16(fp)
 4021a0c:	4021a280 	call	4021a28 <_ZN7NNLayer4initEiii>
}
 4021a10:	0001883a 	nop
 4021a14:	e037883a 	mov	sp,fp
 4021a18:	dfc00117 	ldw	ra,4(sp)
 4021a1c:	df000017 	ldw	fp,0(sp)
 4021a20:	dec00204 	addi	sp,sp,8
 4021a24:	f800283a 	ret

04021a28 <_ZN7NNLayer4initEiii>:

void NNLayer::init(int new_n_input, int new_n_neuron, int nipn) {
 4021a28:	f811883a 	mov	r8,ra
 4021a2c:	40346e80 	call	40346e8 <_mcount>
 4021a30:	403f883a 	mov	ra,r8
 4021a34:	defffa04 	addi	sp,sp,-24
 4021a38:	dfc00515 	stw	ra,20(sp)
 4021a3c:	df000415 	stw	fp,16(sp)
 4021a40:	df000404 	addi	fp,sp,16
 4021a44:	e13ffc15 	stw	r4,-16(fp)
 4021a48:	e17ffd15 	stw	r5,-12(fp)
 4021a4c:	e1bffe15 	stw	r6,-8(fp)
 4021a50:	e1ffff15 	stw	r7,-4(fp)
	// TODO Auto-generated constructor stub
	n_input = new_n_input;
 4021a54:	e0bffc17 	ldw	r2,-16(fp)
 4021a58:	e0fffd17 	ldw	r3,-12(fp)
 4021a5c:	10c00115 	stw	r3,4(r2)
	n_neuron = new_n_neuron;
 4021a60:	e0bffc17 	ldw	r2,-16(fp)
 4021a64:	e0fffe17 	ldw	r3,-8(fp)
 4021a68:	10c00215 	stw	r3,8(r2)
	n_input_per_neuron = nipn;
 4021a6c:	e0bffc17 	ldw	r2,-16(fp)
 4021a70:	e0ffff17 	ldw	r3,-4(fp)
 4021a74:	10c00315 	stw	r3,12(r2)
	LUT_size = ((1<<n_input_per_neuron) + 7)/8;
 4021a78:	e0bffc17 	ldw	r2,-16(fp)
 4021a7c:	10800317 	ldw	r2,12(r2)
 4021a80:	00c00044 	movi	r3,1
 4021a84:	1884983a 	sll	r2,r3,r2
 4021a88:	108001c4 	addi	r2,r2,7
 4021a8c:	1000010e 	bge	r2,zero,4021a94 <_ZN7NNLayer4initEiii+0x6c>
 4021a90:	108001c4 	addi	r2,r2,7
 4021a94:	1005d0fa 	srai	r2,r2,3
 4021a98:	1007883a 	mov	r3,r2
 4021a9c:	e0bffc17 	ldw	r2,-16(fp)
 4021aa0:	10c00415 	stw	r3,16(r2)
	LUT_array = new unsigned char[n_neuron*LUT_size];
 4021aa4:	e0bffc17 	ldw	r2,-16(fp)
 4021aa8:	10c00217 	ldw	r3,8(r2)
 4021aac:	e0bffc17 	ldw	r2,-16(fp)
 4021ab0:	10800417 	ldw	r2,16(r2)
 4021ab4:	1885383a 	mul	r2,r3,r2
 4021ab8:	1009883a 	mov	r4,r2
 4021abc:	40228d80 	call	40228d8 <_Znaj>
 4021ac0:	1007883a 	mov	r3,r2
 4021ac4:	e0bffc17 	ldw	r2,-16(fp)
 4021ac8:	10c00515 	stw	r3,20(r2)
	pos_array = new int[n_neuron*n_input_per_neuron];
 4021acc:	e0bffc17 	ldw	r2,-16(fp)
 4021ad0:	10c00217 	ldw	r3,8(r2)
 4021ad4:	e0bffc17 	ldw	r2,-16(fp)
 4021ad8:	10800317 	ldw	r2,12(r2)
 4021adc:	1885383a 	mul	r2,r3,r2
 4021ae0:	00c7f034 	movhi	r3,8128
 4021ae4:	18800336 	bltu	r3,r2,4021af4 <_ZN7NNLayer4initEiii+0xcc>
 4021ae8:	1085883a 	add	r2,r2,r2
 4021aec:	1085883a 	add	r2,r2,r2
 4021af0:	00000106 	br	4021af8 <_ZN7NNLayer4initEiii+0xd0>
 4021af4:	00bfffc4 	movi	r2,-1
 4021af8:	1009883a 	mov	r4,r2
 4021afc:	40228d80 	call	40228d8 <_Znaj>
 4021b00:	1007883a 	mov	r3,r2
 4021b04:	e0bffc17 	ldw	r2,-16(fp)
 4021b08:	10c00615 	stw	r3,24(r2)
	value = new float[n_neuron];
 4021b0c:	e0bffc17 	ldw	r2,-16(fp)
 4021b10:	10800217 	ldw	r2,8(r2)
 4021b14:	00c7f034 	movhi	r3,8128
 4021b18:	18800336 	bltu	r3,r2,4021b28 <_ZN7NNLayer4initEiii+0x100>
 4021b1c:	1085883a 	add	r2,r2,r2
 4021b20:	1085883a 	add	r2,r2,r2
 4021b24:	00000106 	br	4021b2c <_ZN7NNLayer4initEiii+0x104>
 4021b28:	00bfffc4 	movi	r2,-1
 4021b2c:	1009883a 	mov	r4,r2
 4021b30:	40228d80 	call	40228d8 <_Znaj>
 4021b34:	1007883a 	mov	r3,r2
 4021b38:	e0bffc17 	ldw	r2,-16(fp)
 4021b3c:	10c00715 	stw	r3,28(r2)
}
 4021b40:	0001883a 	nop
 4021b44:	e037883a 	mov	sp,fp
 4021b48:	dfc00117 	ldw	ra,4(sp)
 4021b4c:	df000017 	ldw	fp,0(sp)
 4021b50:	dec00204 	addi	sp,sp,8
 4021b54:	f800283a 	ret

04021b58 <_Z10simpleRandv>:

unsigned int simpleRand() {
 4021b58:	f811883a 	mov	r8,ra
 4021b5c:	40346e80 	call	40346e8 <_mcount>
 4021b60:	403f883a 	mov	ra,r8
 4021b64:	defffd04 	addi	sp,sp,-12
 4021b68:	dfc00215 	stw	ra,8(sp)
 4021b6c:	df000115 	stw	fp,4(sp)
 4021b70:	df000104 	addi	fp,sp,4
	unsigned int result = rand();
 4021b74:	40282740 	call	4028274 <rand>
 4021b78:	e0bfff15 	stw	r2,-4(fp)
	result <<= 16;
 4021b7c:	e0bfff17 	ldw	r2,-4(fp)
 4021b80:	1004943a 	slli	r2,r2,16
 4021b84:	e0bfff15 	stw	r2,-4(fp)
	result ^=rand();
 4021b88:	40282740 	call	4028274 <rand>
 4021b8c:	1007883a 	mov	r3,r2
 4021b90:	e0bfff17 	ldw	r2,-4(fp)
 4021b94:	10c4f03a 	xor	r2,r2,r3
 4021b98:	e0bfff15 	stw	r2,-4(fp)

	return result;
 4021b9c:	e0bfff17 	ldw	r2,-4(fp)
}
 4021ba0:	e037883a 	mov	sp,fp
 4021ba4:	dfc00117 	ldw	ra,4(sp)
 4021ba8:	df000017 	ldw	fp,0(sp)
 4021bac:	dec00204 	addi	sp,sp,8
 4021bb0:	f800283a 	ret

04021bb4 <_ZN7NNLayer15rand_FloatRangeEff>:

float NNLayer::rand_FloatRange(float a, float b) {
 4021bb4:	f811883a 	mov	r8,ra
 4021bb8:	40346e80 	call	40346e8 <_mcount>
 4021bbc:	403f883a 	mov	ra,r8
 4021bc0:	defff904 	addi	sp,sp,-28
 4021bc4:	dfc00615 	stw	ra,24(sp)
 4021bc8:	df000515 	stw	fp,20(sp)
 4021bcc:	dc000415 	stw	r16,16(sp)
 4021bd0:	df000504 	addi	fp,sp,20
 4021bd4:	e13ffc15 	stw	r4,-16(fp)
 4021bd8:	e17ffd15 	stw	r5,-12(fp)
 4021bdc:	e1bffe15 	stw	r6,-8(fp)
	float result = ((b-a)*((float)simpleRand()/0xFFFFFFFF))+a;
 4021be0:	e17ffd17 	ldw	r5,-12(fp)
 4021be4:	e13ffe17 	ldw	r4,-8(fp)
 4021be8:	4025c200 	call	4025c20 <__subsf3>
 4021bec:	1007883a 	mov	r3,r2
 4021bf0:	1821883a 	mov	r16,r3
 4021bf4:	4021b580 	call	4021b58 <_Z10simpleRandv>
 4021bf8:	1009883a 	mov	r4,r2
 4021bfc:	40262bc0 	call	40262bc <__floatunsisf>
 4021c00:	1007883a 	mov	r3,r2
 4021c04:	0153e034 	movhi	r5,20352
 4021c08:	1809883a 	mov	r4,r3
 4021c0c:	40252880 	call	4025288 <__divsf3>
 4021c10:	1007883a 	mov	r3,r2
 4021c14:	1805883a 	mov	r2,r3
 4021c18:	100b883a 	mov	r5,r2
 4021c1c:	8009883a 	mov	r4,r16
 4021c20:	40258180 	call	4025818 <__mulsf3>
 4021c24:	1007883a 	mov	r3,r2
 4021c28:	1805883a 	mov	r2,r3
 4021c2c:	e17ffd17 	ldw	r5,-12(fp)
 4021c30:	1009883a 	mov	r4,r2
 4021c34:	4024db40 	call	4024db4 <__addsf3>
 4021c38:	1007883a 	mov	r3,r2
 4021c3c:	e0fffb15 	stw	r3,-20(fp)
	return result;
 4021c40:	e0bffb17 	ldw	r2,-20(fp)
 4021c44:	1007883a 	mov	r3,r2
}
 4021c48:	1805883a 	mov	r2,r3
 4021c4c:	e6ffff04 	addi	sp,fp,-4
 4021c50:	dfc00217 	ldw	ra,8(sp)
 4021c54:	df000117 	ldw	fp,4(sp)
 4021c58:	dc000017 	ldw	r16,0(sp)
 4021c5c:	dec00304 	addi	sp,sp,12
 4021c60:	f800283a 	ret

04021c64 <_ZN7NNLayer6MYrandEi>:

int NNLayer::MYrand(int maxval) {
 4021c64:	f811883a 	mov	r8,ra
 4021c68:	40346e80 	call	40346e8 <_mcount>
 4021c6c:	403f883a 	mov	ra,r8
 4021c70:	defffb04 	addi	sp,sp,-20
 4021c74:	dfc00415 	stw	ra,16(sp)
 4021c78:	df000315 	stw	fp,12(sp)
 4021c7c:	df000304 	addi	fp,sp,12
 4021c80:	e13ffe15 	stw	r4,-8(fp)
 4021c84:	e17fff15 	stw	r5,-4(fp)
	int result = simpleRand()%maxval;
 4021c88:	4021b580 	call	4021b58 <_Z10simpleRandv>
 4021c8c:	1007883a 	mov	r3,r2
 4021c90:	e0bfff17 	ldw	r2,-4(fp)
 4021c94:	100b883a 	mov	r5,r2
 4021c98:	1809883a 	mov	r4,r3
 4021c9c:	4024d540 	call	4024d54 <__umodsi3>
 4021ca0:	e0bffd15 	stw	r2,-12(fp)
	return result;
 4021ca4:	e0bffd17 	ldw	r2,-12(fp)
}
 4021ca8:	e037883a 	mov	sp,fp
 4021cac:	dfc00117 	ldw	ra,4(sp)
 4021cb0:	df000017 	ldw	fp,0(sp)
 4021cb4:	dec00204 	addi	sp,sp,8
 4021cb8:	f800283a 	ret

04021cbc <_ZN7NNLayer11random_initEiii>:

void NNLayer::random_init(int new_n_input, int new_n_neuron, int nipn) {
 4021cbc:	f811883a 	mov	r8,ra
 4021cc0:	40346e80 	call	40346e8 <_mcount>
 4021cc4:	403f883a 	mov	ra,r8
 4021cc8:	defff604 	addi	sp,sp,-40
 4021ccc:	dfc00915 	stw	ra,36(sp)
 4021cd0:	df000815 	stw	fp,32(sp)
 4021cd4:	dc000715 	stw	r16,28(sp)
 4021cd8:	df000804 	addi	fp,sp,32
 4021cdc:	e13ffb15 	stw	r4,-20(fp)
 4021ce0:	e17ffc15 	stw	r5,-16(fp)
 4021ce4:	e1bffd15 	stw	r6,-12(fp)
 4021ce8:	e1fffe15 	stw	r7,-8(fp)
	// TODO Auto-generated constructor stub
	init(new_n_input, new_n_neuron, nipn);
 4021cec:	e1fffe17 	ldw	r7,-8(fp)
 4021cf0:	e1bffd17 	ldw	r6,-12(fp)
 4021cf4:	e17ffc17 	ldw	r5,-16(fp)
 4021cf8:	e13ffb17 	ldw	r4,-20(fp)
 4021cfc:	4021a280 	call	4021a28 <_ZN7NNLayer4initEiii>

	for (int i=0; i<n_neuron * n_input_per_neuron; i++) {
 4021d00:	e03ff815 	stw	zero,-32(fp)
 4021d04:	e0bffb17 	ldw	r2,-20(fp)
 4021d08:	10c00217 	ldw	r3,8(r2)
 4021d0c:	e0bffb17 	ldw	r2,-20(fp)
 4021d10:	10800317 	ldw	r2,12(r2)
 4021d14:	1885383a 	mul	r2,r3,r2
 4021d18:	e0fff817 	ldw	r3,-32(fp)
 4021d1c:	1880100e 	bge	r3,r2,4021d60 <_ZN7NNLayer11random_initEiii+0xa4>
		pos_array[i] = MYrand(n_input);
 4021d20:	e0bffb17 	ldw	r2,-20(fp)
 4021d24:	10c00617 	ldw	r3,24(r2)
 4021d28:	e0bff817 	ldw	r2,-32(fp)
 4021d2c:	1085883a 	add	r2,r2,r2
 4021d30:	1085883a 	add	r2,r2,r2
 4021d34:	18a1883a 	add	r16,r3,r2
 4021d38:	e0bffb17 	ldw	r2,-20(fp)
 4021d3c:	10800117 	ldw	r2,4(r2)
 4021d40:	100b883a 	mov	r5,r2
 4021d44:	e13ffb17 	ldw	r4,-20(fp)
 4021d48:	4021c640 	call	4021c64 <_ZN7NNLayer6MYrandEi>
 4021d4c:	80800015 	stw	r2,0(r16)

void NNLayer::random_init(int new_n_input, int new_n_neuron, int nipn) {
	// TODO Auto-generated constructor stub
	init(new_n_input, new_n_neuron, nipn);

	for (int i=0; i<n_neuron * n_input_per_neuron; i++) {
 4021d50:	e0bff817 	ldw	r2,-32(fp)
 4021d54:	10800044 	addi	r2,r2,1
 4021d58:	e0bff815 	stw	r2,-32(fp)
 4021d5c:	003fe906 	br	4021d04 <__flash_rwdata_start+0xfffeb7ac>
		pos_array[i] = MYrand(n_input);
	}

	for (int i=0; i<n_neuron * LUT_size; i++) {
 4021d60:	e03ff915 	stw	zero,-28(fp)
 4021d64:	e0bffb17 	ldw	r2,-20(fp)
 4021d68:	10c00217 	ldw	r3,8(r2)
 4021d6c:	e0bffb17 	ldw	r2,-20(fp)
 4021d70:	10800417 	ldw	r2,16(r2)
 4021d74:	1885383a 	mul	r2,r3,r2
 4021d78:	e0fff917 	ldw	r3,-28(fp)
 4021d7c:	18800c0e 	bge	r3,r2,4021db0 <_ZN7NNLayer11random_initEiii+0xf4>
		LUT_array[i] = MYrand(0x100);
 4021d80:	e0bffb17 	ldw	r2,-20(fp)
 4021d84:	10c00517 	ldw	r3,20(r2)
 4021d88:	e0bff917 	ldw	r2,-28(fp)
 4021d8c:	18a1883a 	add	r16,r3,r2
 4021d90:	01404004 	movi	r5,256
 4021d94:	e13ffb17 	ldw	r4,-20(fp)
 4021d98:	4021c640 	call	4021c64 <_ZN7NNLayer6MYrandEi>
 4021d9c:	80800005 	stb	r2,0(r16)

	for (int i=0; i<n_neuron * n_input_per_neuron; i++) {
		pos_array[i] = MYrand(n_input);
	}

	for (int i=0; i<n_neuron * LUT_size; i++) {
 4021da0:	e0bff917 	ldw	r2,-28(fp)
 4021da4:	10800044 	addi	r2,r2,1
 4021da8:	e0bff915 	stw	r2,-28(fp)
 4021dac:	003fed06 	br	4021d64 <__flash_rwdata_start+0xfffeb80c>
		LUT_array[i] = MYrand(0x100);
	}

	for (int i=0; i<n_neuron; i++) {
 4021db0:	e03ffa15 	stw	zero,-24(fp)
 4021db4:	e0bffb17 	ldw	r2,-20(fp)
 4021db8:	10800217 	ldw	r2,8(r2)
 4021dbc:	e0fffa17 	ldw	r3,-24(fp)
 4021dc0:	18800c0e 	bge	r3,r2,4021df4 <_ZN7NNLayer11random_initEiii+0x138>
		value[i] = -1;
 4021dc4:	e0bffb17 	ldw	r2,-20(fp)
 4021dc8:	10c00717 	ldw	r3,28(r2)
 4021dcc:	e0bffa17 	ldw	r2,-24(fp)
 4021dd0:	1085883a 	add	r2,r2,r2
 4021dd4:	1085883a 	add	r2,r2,r2
 4021dd8:	1885883a 	add	r2,r3,r2
 4021ddc:	00efe034 	movhi	r3,49024
 4021de0:	10c00015 	stw	r3,0(r2)

	for (int i=0; i<n_neuron * LUT_size; i++) {
		LUT_array[i] = MYrand(0x100);
	}

	for (int i=0; i<n_neuron; i++) {
 4021de4:	e0bffa17 	ldw	r2,-24(fp)
 4021de8:	10800044 	addi	r2,r2,1
 4021dec:	e0bffa15 	stw	r2,-24(fp)
 4021df0:	003ff006 	br	4021db4 <__flash_rwdata_start+0xfffeb85c>
		value[i] = -1;
	}

}
 4021df4:	0001883a 	nop
 4021df8:	e6ffff04 	addi	sp,fp,-4
 4021dfc:	dfc00217 	ldw	ra,8(sp)
 4021e00:	df000117 	ldw	fp,4(sp)
 4021e04:	dc000017 	ldw	r16,0(sp)
 4021e08:	dec00304 	addi	sp,sp,12
 4021e0c:	f800283a 	ret

04021e10 <_ZN7NNLayer9demo_initEiiii>:

void NNLayer::demo_init(int layer, int new_n_input, int new_n_neuron, int nipn) {
 4021e10:	f811883a 	mov	r8,ra
 4021e14:	40346e80 	call	40346e8 <_mcount>
 4021e18:	403f883a 	mov	ra,r8
 4021e1c:	defffa04 	addi	sp,sp,-24
 4021e20:	dfc00515 	stw	ra,20(sp)
 4021e24:	df000415 	stw	fp,16(sp)
 4021e28:	df000404 	addi	fp,sp,16
 4021e2c:	e13ffc15 	stw	r4,-16(fp)
 4021e30:	e17ffd15 	stw	r5,-12(fp)
 4021e34:	e1bffe15 	stw	r6,-8(fp)
 4021e38:	e1ffff15 	stw	r7,-4(fp)
	// TODO Auto-generated constructor stub
	random_init(new_n_input, new_n_neuron, nipn);
 4021e3c:	e1c00217 	ldw	r7,8(fp)
 4021e40:	e1bfff17 	ldw	r6,-4(fp)
 4021e44:	e17ffe17 	ldw	r5,-8(fp)
 4021e48:	e13ffc17 	ldw	r4,-16(fp)
 4021e4c:	4021cbc0 	call	4021cbc <_ZN7NNLayer11random_initEiii>
}
 4021e50:	0001883a 	nop
 4021e54:	e037883a 	mov	sp,fp
 4021e58:	dfc00117 	ldw	ra,4(sp)
 4021e5c:	df000017 	ldw	fp,0(sp)
 4021e60:	dec00204 	addi	sp,sp,8
 4021e64:	f800283a 	ret

04021e68 <_ZN7NNLayerD1Ev>:

NNLayer::~NNLayer() {
 4021e68:	f811883a 	mov	r8,ra
 4021e6c:	40346e80 	call	40346e8 <_mcount>
 4021e70:	403f883a 	mov	ra,r8
 4021e74:	defffd04 	addi	sp,sp,-12
 4021e78:	dfc00215 	stw	ra,8(sp)
 4021e7c:	df000115 	stw	fp,4(sp)
 4021e80:	df000104 	addi	fp,sp,4
 4021e84:	e13fff15 	stw	r4,-4(fp)
 4021e88:	00800034 	movhi	r2,0
 4021e8c:	10803304 	addi	r2,r2,204
 4021e90:	e0ffff17 	ldw	r3,-4(fp)
 4021e94:	18800015 	stw	r2,0(r3)
	// TODO Auto-generated destructor stub
}
 4021e98:	0005883a 	mov	r2,zero
 4021e9c:	10000226 	beq	r2,zero,4021ea8 <_ZN7NNLayerD1Ev+0x40>
 4021ea0:	e13fff17 	ldw	r4,-4(fp)
 4021ea4:	4023b100 	call	4023b10 <_ZdlPv>
 4021ea8:	e037883a 	mov	sp,fp
 4021eac:	dfc00117 	ldw	ra,4(sp)
 4021eb0:	df000017 	ldw	fp,0(sp)
 4021eb4:	dec00204 	addi	sp,sp,8
 4021eb8:	f800283a 	ret

04021ebc <_ZN7NNLayerD0Ev>:
void NNLayer::demo_init(int layer, int new_n_input, int new_n_neuron, int nipn) {
	// TODO Auto-generated constructor stub
	random_init(new_n_input, new_n_neuron, nipn);
}

NNLayer::~NNLayer() {
 4021ebc:	f811883a 	mov	r8,ra
 4021ec0:	40346e80 	call	40346e8 <_mcount>
 4021ec4:	403f883a 	mov	ra,r8
 4021ec8:	defffd04 	addi	sp,sp,-12
 4021ecc:	dfc00215 	stw	ra,8(sp)
 4021ed0:	df000115 	stw	fp,4(sp)
 4021ed4:	df000104 	addi	fp,sp,4
 4021ed8:	e13fff15 	stw	r4,-4(fp)
	// TODO Auto-generated destructor stub
}
 4021edc:	e13fff17 	ldw	r4,-4(fp)
 4021ee0:	4021e680 	call	4021e68 <_ZN7NNLayerD1Ev>
 4021ee4:	e13fff17 	ldw	r4,-4(fp)
 4021ee8:	4023b100 	call	4023b10 <_ZdlPv>
 4021eec:	e037883a 	mov	sp,fp
 4021ef0:	dfc00117 	ldw	ra,4(sp)
 4021ef4:	df000017 	ldw	fp,0(sp)
 4021ef8:	dec00204 	addi	sp,sp,8
 4021efc:	f800283a 	ret

04021f00 <_ZN7NNLayer9propagateEPf>:

float * NNLayer::propagate(float * source) {
 4021f00:	f811883a 	mov	r8,ra
 4021f04:	40346e80 	call	40346e8 <_mcount>
 4021f08:	403f883a 	mov	ra,r8
 4021f0c:	defff504 	addi	sp,sp,-44
 4021f10:	dfc00a15 	stw	ra,40(sp)
 4021f14:	df000915 	stw	fp,36(sp)
 4021f18:	dc000815 	stw	r16,32(sp)
 4021f1c:	df000904 	addi	fp,sp,36
 4021f20:	e13ffd15 	stw	r4,-12(fp)
 4021f24:	e17ffe15 	stw	r5,-8(fp)
	// TODO Auto-generated constructor stub
	int i;

	if (my_debug) for (i=0; i<n_input; i++) {
 4021f28:	d0a02117 	ldw	r2,-32636(gp)
 4021f2c:	10001a26 	beq	r2,zero,4021f98 <_ZN7NNLayer9propagateEPf+0x98>
 4021f30:	e03ff815 	stw	zero,-32(fp)
 4021f34:	e0bffd17 	ldw	r2,-12(fp)
 4021f38:	10800117 	ldw	r2,4(r2)
 4021f3c:	e0fff817 	ldw	r3,-32(fp)
 4021f40:	1880150e 	bge	r3,r2,4021f98 <_ZN7NNLayer9propagateEPf+0x98>
		printf("Input %i = %f\r\n", i, source[i]);
 4021f44:	e0bff817 	ldw	r2,-32(fp)
 4021f48:	1085883a 	add	r2,r2,r2
 4021f4c:	1085883a 	add	r2,r2,r2
 4021f50:	1007883a 	mov	r3,r2
 4021f54:	e0bffe17 	ldw	r2,-8(fp)
 4021f58:	10c5883a 	add	r2,r2,r3
 4021f5c:	10c00017 	ldw	r3,0(r2)
 4021f60:	1809883a 	mov	r4,r3
 4021f64:	4026d940 	call	4026d94 <__extendsfdf2>
 4021f68:	1009883a 	mov	r4,r2
 4021f6c:	180b883a 	mov	r5,r3
 4021f70:	200d883a 	mov	r6,r4
 4021f74:	280f883a 	mov	r7,r5
 4021f78:	e17ff817 	ldw	r5,-32(fp)
 4021f7c:	01000034 	movhi	r4,0
 4021f80:	21001604 	addi	r4,r4,88
 4021f84:	40280e40 	call	40280e4 <printf>

float * NNLayer::propagate(float * source) {
	// TODO Auto-generated constructor stub
	int i;

	if (my_debug) for (i=0; i<n_input; i++) {
 4021f88:	e0bff817 	ldw	r2,-32(fp)
 4021f8c:	10800044 	addi	r2,r2,1
 4021f90:	e0bff815 	stw	r2,-32(fp)
 4021f94:	003fe706 	br	4021f34 <__flash_rwdata_start+0xfffeb9dc>
		printf("Input %i = %f\r\n", i, source[i]);
	}

	int * current_pos = pos_array;
 4021f98:	e0bffd17 	ldw	r2,-12(fp)
 4021f9c:	10800617 	ldw	r2,24(r2)
 4021fa0:	e0bff915 	stw	r2,-28(fp)
	for (int i=0; i<n_neuron; i++) {
 4021fa4:	e03ffa15 	stw	zero,-24(fp)
 4021fa8:	e0bffd17 	ldw	r2,-12(fp)
 4021fac:	10800217 	ldw	r2,8(r2)
 4021fb0:	e0fffa17 	ldw	r3,-24(fp)
 4021fb4:	1880540e 	bge	r3,r2,4022108 <_ZN7NNLayer9propagateEPf+0x208>
		int LUT_Address = 0;
 4021fb8:	e03ffb15 	stw	zero,-20(fp)
		for (int j = 0; j<n_input_per_neuron; j++) {
 4021fbc:	e03ffc15 	stw	zero,-16(fp)
 4021fc0:	e0bffd17 	ldw	r2,-12(fp)
 4021fc4:	10800317 	ldw	r2,12(r2)
 4021fc8:	e0fffc17 	ldw	r3,-16(fp)
 4021fcc:	18801c0e 	bge	r3,r2,4022040 <_ZN7NNLayer9propagateEPf+0x140>
			if (source[*(current_pos++)] != 0) LUT_Address += (1 << j);
 4021fd0:	e0bff917 	ldw	r2,-28(fp)
 4021fd4:	10c00104 	addi	r3,r2,4
 4021fd8:	e0fff915 	stw	r3,-28(fp)
 4021fdc:	10800017 	ldw	r2,0(r2)
 4021fe0:	1085883a 	add	r2,r2,r2
 4021fe4:	1085883a 	add	r2,r2,r2
 4021fe8:	1007883a 	mov	r3,r2
 4021fec:	e0bffe17 	ldw	r2,-8(fp)
 4021ff0:	10c5883a 	add	r2,r2,r3
 4021ff4:	10c00017 	ldw	r3,0(r2)
 4021ff8:	04000044 	movi	r16,1
 4021ffc:	000b883a 	mov	r5,zero
 4022000:	1809883a 	mov	r4,r3
 4022004:	40256d40 	call	40256d4 <__eqsf2>
 4022008:	1000011e 	bne	r2,zero,4022010 <_ZN7NNLayer9propagateEPf+0x110>
 402200c:	0021883a 	mov	r16,zero
 4022010:	80803fcc 	andi	r2,r16,255
 4022014:	10000626 	beq	r2,zero,4022030 <_ZN7NNLayer9propagateEPf+0x130>
 4022018:	00c00044 	movi	r3,1
 402201c:	e0bffc17 	ldw	r2,-16(fp)
 4022020:	1884983a 	sll	r2,r3,r2
 4022024:	e0fffb17 	ldw	r3,-20(fp)
 4022028:	1885883a 	add	r2,r3,r2
 402202c:	e0bffb15 	stw	r2,-20(fp)
	}

	int * current_pos = pos_array;
	for (int i=0; i<n_neuron; i++) {
		int LUT_Address = 0;
		for (int j = 0; j<n_input_per_neuron; j++) {
 4022030:	e0bffc17 	ldw	r2,-16(fp)
 4022034:	10800044 	addi	r2,r2,1
 4022038:	e0bffc15 	stw	r2,-16(fp)
 402203c:	003fe006 	br	4021fc0 <__flash_rwdata_start+0xfffeba68>
			if (source[*(current_pos++)] != 0) LUT_Address += (1 << j);
		}
		value[i] = 1 & (LUT_array[LUT_size * i + (LUT_Address >> 3)] >> (LUT_Address & 0x7));
 4022040:	e0bffd17 	ldw	r2,-12(fp)
 4022044:	10c00717 	ldw	r3,28(r2)
 4022048:	e0bffa17 	ldw	r2,-24(fp)
 402204c:	1085883a 	add	r2,r2,r2
 4022050:	1085883a 	add	r2,r2,r2
 4022054:	18a1883a 	add	r16,r3,r2
 4022058:	e0bffd17 	ldw	r2,-12(fp)
 402205c:	10800517 	ldw	r2,20(r2)
 4022060:	e0fffd17 	ldw	r3,-12(fp)
 4022064:	19000417 	ldw	r4,16(r3)
 4022068:	e0fffa17 	ldw	r3,-24(fp)
 402206c:	20c9383a 	mul	r4,r4,r3
 4022070:	e0fffb17 	ldw	r3,-20(fp)
 4022074:	1807d0fa 	srai	r3,r3,3
 4022078:	20c7883a 	add	r3,r4,r3
 402207c:	10c5883a 	add	r2,r2,r3
 4022080:	10800003 	ldbu	r2,0(r2)
 4022084:	10c03fcc 	andi	r3,r2,255
 4022088:	e0bffb17 	ldw	r2,-20(fp)
 402208c:	108001cc 	andi	r2,r2,7
 4022090:	1885d83a 	sra	r2,r3,r2
 4022094:	1080004c 	andi	r2,r2,1
 4022098:	1009883a 	mov	r4,r2
 402209c:	402618c0 	call	402618c <__floatsisf>
 40220a0:	1007883a 	mov	r3,r2
 40220a4:	80c00015 	stw	r3,0(r16)
		if (my_debug) printf("LUT%i[%i] = %f\r\n", i, LUT_Address, value[i]);
 40220a8:	d0a02117 	ldw	r2,-32636(gp)
 40220ac:	10001226 	beq	r2,zero,40220f8 <_ZN7NNLayer9propagateEPf+0x1f8>
 40220b0:	e0bffd17 	ldw	r2,-12(fp)
 40220b4:	10c00717 	ldw	r3,28(r2)
 40220b8:	e0bffa17 	ldw	r2,-24(fp)
 40220bc:	1085883a 	add	r2,r2,r2
 40220c0:	1085883a 	add	r2,r2,r2
 40220c4:	1885883a 	add	r2,r3,r2
 40220c8:	10c00017 	ldw	r3,0(r2)
 40220cc:	1809883a 	mov	r4,r3
 40220d0:	4026d940 	call	4026d94 <__extendsfdf2>
 40220d4:	1009883a 	mov	r4,r2
 40220d8:	180b883a 	mov	r5,r3
 40220dc:	d9400015 	stw	r5,0(sp)
 40220e0:	200f883a 	mov	r7,r4
 40220e4:	e1bffb17 	ldw	r6,-20(fp)
 40220e8:	e17ffa17 	ldw	r5,-24(fp)
 40220ec:	01000034 	movhi	r4,0
 40220f0:	21001a04 	addi	r4,r4,104
 40220f4:	40280e40 	call	40280e4 <printf>
	if (my_debug) for (i=0; i<n_input; i++) {
		printf("Input %i = %f\r\n", i, source[i]);
	}

	int * current_pos = pos_array;
	for (int i=0; i<n_neuron; i++) {
 40220f8:	e0bffa17 	ldw	r2,-24(fp)
 40220fc:	10800044 	addi	r2,r2,1
 4022100:	e0bffa15 	stw	r2,-24(fp)
 4022104:	003fa806 	br	4021fa8 <__flash_rwdata_start+0xfffeba50>
		}
		value[i] = 1 & (LUT_array[LUT_size * i + (LUT_Address >> 3)] >> (LUT_Address & 0x7));
		if (my_debug) printf("LUT%i[%i] = %f\r\n", i, LUT_Address, value[i]);
	}

	if (my_debug) print();
 4022108:	d0a02117 	ldw	r2,-32636(gp)
 402210c:	10000226 	beq	r2,zero,4022118 <_ZN7NNLayer9propagateEPf+0x218>
 4022110:	e13ffd17 	ldw	r4,-12(fp)
 4022114:	40221d80 	call	40221d8 <_ZN7NNLayer5printEv>

	return value;
 4022118:	e0bffd17 	ldw	r2,-12(fp)
 402211c:	10800717 	ldw	r2,28(r2)
}
 4022120:	e6ffff04 	addi	sp,fp,-4
 4022124:	dfc00217 	ldw	ra,8(sp)
 4022128:	df000117 	ldw	fp,4(sp)
 402212c:	dc000017 	ldw	r16,0(sp)
 4022130:	dec00304 	addi	sp,sp,12
 4022134:	f800283a 	ret

04022138 <_ZN7NNLayer16print_activationEv>:

void NNLayer::print_activation() {
 4022138:	f811883a 	mov	r8,ra
 402213c:	40346e80 	call	40346e8 <_mcount>
 4022140:	403f883a 	mov	ra,r8
 4022144:	defffc04 	addi	sp,sp,-16
 4022148:	dfc00315 	stw	ra,12(sp)
 402214c:	df000215 	stw	fp,8(sp)
 4022150:	df000204 	addi	fp,sp,8
 4022154:	e13fff15 	stw	r4,-4(fp)
	printf("---------------\n");
 4022158:	01000034 	movhi	r4,0
 402215c:	21001f04 	addi	r4,r4,124
 4022160:	40282300 	call	4028230 <puts>
	for (int i=0; i<n_neuron; i++) {
 4022164:	e03ffe15 	stw	zero,-8(fp)
 4022168:	e0bfff17 	ldw	r2,-4(fp)
 402216c:	10800217 	ldw	r2,8(r2)
 4022170:	e0fffe17 	ldw	r3,-8(fp)
 4022174:	1880120e 	bge	r3,r2,40221c0 <_ZN7NNLayer16print_activationEv+0x88>
		printf("%i, %i\n", i, (int)value[i]);
 4022178:	e0bfff17 	ldw	r2,-4(fp)
 402217c:	10c00717 	ldw	r3,28(r2)
 4022180:	e0bffe17 	ldw	r2,-8(fp)
 4022184:	1085883a 	add	r2,r2,r2
 4022188:	1085883a 	add	r2,r2,r2
 402218c:	1885883a 	add	r2,r3,r2
 4022190:	10c00017 	ldw	r3,0(r2)
 4022194:	1809883a 	mov	r4,r3
 4022198:	40261100 	call	4026110 <__fixsfsi>
 402219c:	100d883a 	mov	r6,r2
 40221a0:	e17ffe17 	ldw	r5,-8(fp)
 40221a4:	01000034 	movhi	r4,0
 40221a8:	21002304 	addi	r4,r4,140
 40221ac:	40280e40 	call	40280e4 <printf>
	return value;
}

void NNLayer::print_activation() {
	printf("---------------\n");
	for (int i=0; i<n_neuron; i++) {
 40221b0:	e0bffe17 	ldw	r2,-8(fp)
 40221b4:	10800044 	addi	r2,r2,1
 40221b8:	e0bffe15 	stw	r2,-8(fp)
 40221bc:	003fea06 	br	4022168 <__flash_rwdata_start+0xfffebc10>
		printf("%i, %i\n", i, (int)value[i]);
	}
}
 40221c0:	0001883a 	nop
 40221c4:	e037883a 	mov	sp,fp
 40221c8:	dfc00117 	ldw	ra,4(sp)
 40221cc:	df000017 	ldw	fp,0(sp)
 40221d0:	dec00204 	addi	sp,sp,8
 40221d4:	f800283a 	ret

040221d8 <_ZN7NNLayer5printEv>:

void NNLayer::print() {
 40221d8:	f811883a 	mov	r8,ra
 40221dc:	40346e80 	call	40346e8 <_mcount>
 40221e0:	403f883a 	mov	ra,r8
 40221e4:	defff804 	addi	sp,sp,-32
 40221e8:	dfc00715 	stw	ra,28(sp)
 40221ec:	df000615 	stw	fp,24(sp)
 40221f0:	df000604 	addi	fp,sp,24
 40221f4:	e13fff15 	stw	r4,-4(fp)
	// TODO Auto-generated constructor stub
	int * current_pos = pos_array;
 40221f8:	e0bfff17 	ldw	r2,-4(fp)
 40221fc:	10800617 	ldw	r2,24(r2)
 4022200:	e0bffa15 	stw	r2,-24(fp)

	for (int i=0; i<n_neuron; i++) {
 4022204:	e03ffb15 	stw	zero,-20(fp)
 4022208:	e0bfff17 	ldw	r2,-4(fp)
 402220c:	10800217 	ldw	r2,8(r2)
 4022210:	e0fffb17 	ldw	r3,-20(fp)
 4022214:	1880560e 	bge	r3,r2,4022370 <_ZN7NNLayer5printEv+0x198>
		printf("Neuron %i { ", i);
 4022218:	e17ffb17 	ldw	r5,-20(fp)
 402221c:	01000034 	movhi	r4,0
 4022220:	21002504 	addi	r4,r4,148
 4022224:	40280e40 	call	40280e4 <printf>
		for (int j=0; j<n_input_per_neuron; j++) {
 4022228:	e03ffc15 	stw	zero,-16(fp)
 402222c:	e0bfff17 	ldw	r2,-4(fp)
 4022230:	10800317 	ldw	r2,12(r2)
 4022234:	e0fffc17 	ldw	r3,-16(fp)
 4022238:	1880170e 	bge	r3,r2,4022298 <_ZN7NNLayer5printEv+0xc0>
			if (j!=0) printf(", %i", *(current_pos++));
 402223c:	e0bffc17 	ldw	r2,-16(fp)
 4022240:	10000926 	beq	r2,zero,4022268 <_ZN7NNLayer5printEv+0x90>
 4022244:	e0bffa17 	ldw	r2,-24(fp)
 4022248:	10c00104 	addi	r3,r2,4
 402224c:	e0fffa15 	stw	r3,-24(fp)
 4022250:	10800017 	ldw	r2,0(r2)
 4022254:	100b883a 	mov	r5,r2
 4022258:	01000034 	movhi	r4,0
 402225c:	21002904 	addi	r4,r4,164
 4022260:	40280e40 	call	40280e4 <printf>
 4022264:	00000806 	br	4022288 <_ZN7NNLayer5printEv+0xb0>
			else printf("%i", *(current_pos++));
 4022268:	e0bffa17 	ldw	r2,-24(fp)
 402226c:	10c00104 	addi	r3,r2,4
 4022270:	e0fffa15 	stw	r3,-24(fp)
 4022274:	10800017 	ldw	r2,0(r2)
 4022278:	100b883a 	mov	r5,r2
 402227c:	01000034 	movhi	r4,0
 4022280:	21002b04 	addi	r4,r4,172
 4022284:	40280e40 	call	40280e4 <printf>
	// TODO Auto-generated constructor stub
	int * current_pos = pos_array;

	for (int i=0; i<n_neuron; i++) {
		printf("Neuron %i { ", i);
		for (int j=0; j<n_input_per_neuron; j++) {
 4022288:	e0bffc17 	ldw	r2,-16(fp)
 402228c:	10800044 	addi	r2,r2,1
 4022290:	e0bffc15 	stw	r2,-16(fp)
 4022294:	003fe506 	br	402222c <__flash_rwdata_start+0xfffebcd4>
			if (j!=0) printf(", %i", *(current_pos++));
			else printf("%i", *(current_pos++));
		}
		printf("}, %f, {",value[i]);
 4022298:	e0bfff17 	ldw	r2,-4(fp)
 402229c:	10c00717 	ldw	r3,28(r2)
 40222a0:	e0bffb17 	ldw	r2,-20(fp)
 40222a4:	1085883a 	add	r2,r2,r2
 40222a8:	1085883a 	add	r2,r2,r2
 40222ac:	1885883a 	add	r2,r3,r2
 40222b0:	10c00017 	ldw	r3,0(r2)
 40222b4:	1809883a 	mov	r4,r3
 40222b8:	4026d940 	call	4026d94 <__extendsfdf2>
 40222bc:	100d883a 	mov	r6,r2
 40222c0:	180f883a 	mov	r7,r3
 40222c4:	300b883a 	mov	r5,r6
 40222c8:	380d883a 	mov	r6,r7
 40222cc:	01000034 	movhi	r4,0
 40222d0:	21002c04 	addi	r4,r4,176
 40222d4:	40280e40 	call	40280e4 <printf>
		for (int j=LUT_size-1; j>=0; j--) {
 40222d8:	e0bfff17 	ldw	r2,-4(fp)
 40222dc:	10800417 	ldw	r2,16(r2)
 40222e0:	10bfffc4 	addi	r2,r2,-1
 40222e4:	e0bffd15 	stw	r2,-12(fp)
 40222e8:	e0bffd17 	ldw	r2,-12(fp)
 40222ec:	10001916 	blt	r2,zero,4022354 <_ZN7NNLayer5printEv+0x17c>
			unsigned int hex_value = LUT_array[LUT_size * i + j];
 40222f0:	e0bfff17 	ldw	r2,-4(fp)
 40222f4:	10800517 	ldw	r2,20(r2)
 40222f8:	e0ffff17 	ldw	r3,-4(fp)
 40222fc:	19000417 	ldw	r4,16(r3)
 4022300:	e0fffb17 	ldw	r3,-20(fp)
 4022304:	20c9383a 	mul	r4,r4,r3
 4022308:	e0fffd17 	ldw	r3,-12(fp)
 402230c:	20c7883a 	add	r3,r4,r3
 4022310:	10c5883a 	add	r2,r2,r3
 4022314:	10800003 	ldbu	r2,0(r2)
 4022318:	10803fcc 	andi	r2,r2,255
 402231c:	e0bffe15 	stw	r2,-8(fp)
			if (hex_value<16) printf("0");
 4022320:	e0bffe17 	ldw	r2,-8(fp)
 4022324:	10800428 	cmpgeui	r2,r2,16
 4022328:	1000021e 	bne	r2,zero,4022334 <_ZN7NNLayer5printEv+0x15c>
 402232c:	01000c04 	movi	r4,48
 4022330:	40281400 	call	4028140 <putchar>
			printf("%x",hex_value);
 4022334:	e17ffe17 	ldw	r5,-8(fp)
 4022338:	01000034 	movhi	r4,0
 402233c:	21002f04 	addi	r4,r4,188
 4022340:	40280e40 	call	40280e4 <printf>
		for (int j=0; j<n_input_per_neuron; j++) {
			if (j!=0) printf(", %i", *(current_pos++));
			else printf("%i", *(current_pos++));
		}
		printf("}, %f, {",value[i]);
		for (int j=LUT_size-1; j>=0; j--) {
 4022344:	e0bffd17 	ldw	r2,-12(fp)
 4022348:	10bfffc4 	addi	r2,r2,-1
 402234c:	e0bffd15 	stw	r2,-12(fp)
 4022350:	003fe506 	br	40222e8 <__flash_rwdata_start+0xfffebd90>
			unsigned int hex_value = LUT_array[LUT_size * i + j];
			if (hex_value<16) printf("0");
			printf("%x",hex_value);
		}
		printf("}\r\n");
 4022354:	01000034 	movhi	r4,0
 4022358:	21003004 	addi	r4,r4,192
 402235c:	40282300 	call	4028230 <puts>

void NNLayer::print() {
	// TODO Auto-generated constructor stub
	int * current_pos = pos_array;

	for (int i=0; i<n_neuron; i++) {
 4022360:	e0bffb17 	ldw	r2,-20(fp)
 4022364:	10800044 	addi	r2,r2,1
 4022368:	e0bffb15 	stw	r2,-20(fp)
 402236c:	003fa606 	br	4022208 <__flash_rwdata_start+0xfffebcb0>
			if (hex_value<16) printf("0");
			printf("%x",hex_value);
		}
		printf("}\r\n");
	}
}
 4022370:	0001883a 	nop
 4022374:	e037883a 	mov	sp,fp
 4022378:	dfc00117 	ldw	ra,4(sp)
 402237c:	df000017 	ldw	fp,0(sp)
 4022380:	dec00204 	addi	sp,sp,8
 4022384:	f800283a 	ret

04022388 <_ZN3VGA3clrEv>:
#include "VGA.h"
#include "io.h"

//-------------------------------------------------------------------------
void VGA::clr() {
 4022388:	f811883a 	mov	r8,ra
 402238c:	40346e80 	call	40346e8 <_mcount>
 4022390:	403f883a 	mov	ra,r8
 4022394:	defffd04 	addi	sp,sp,-12
 4022398:	df000215 	stw	fp,8(sp)
 402239c:	df000204 	addi	fp,sp,8
 40223a0:	e13fff15 	stw	r4,-4(fp)
  int x;
  for (x=0;x<640*480/4;x++) {
 40223a4:	e03ffe15 	stw	zero,-8(fp)
 40223a8:	e0fffe17 	ldw	r3,-8(fp)
 40223ac:	00800074 	movhi	r2,1
 40223b0:	108affc4 	addi	r2,r2,11263
 40223b4:	10c00d16 	blt	r2,r3,40223ec <_ZN3VGA3clrEv+0x64>
     IOWR(memory_address, x, 0x0);
 40223b8:	e0bffe17 	ldw	r2,-8(fp)
 40223bc:	1085883a 	add	r2,r2,r2
 40223c0:	1085883a 	add	r2,r2,r2
 40223c4:	1007883a 	mov	r3,r2
 40223c8:	e0bfff17 	ldw	r2,-4(fp)
 40223cc:	10800117 	ldw	r2,4(r2)
 40223d0:	1885883a 	add	r2,r3,r2
 40223d4:	0007883a 	mov	r3,zero
 40223d8:	10c00035 	stwio	r3,0(r2)
#include "io.h"

//-------------------------------------------------------------------------
void VGA::clr() {
  int x;
  for (x=0;x<640*480/4;x++) {
 40223dc:	e0bffe17 	ldw	r2,-8(fp)
 40223e0:	10800044 	addi	r2,r2,1
 40223e4:	e0bffe15 	stw	r2,-8(fp)
 40223e8:	003fef06 	br	40223a8 <__flash_rwdata_start+0xfffebe50>
     IOWR(memory_address, x, 0x0);
  }
}
 40223ec:	0001883a 	nop
 40223f0:	e037883a 	mov	sp,fp
 40223f4:	df000017 	ldw	fp,0(sp)
 40223f8:	dec00104 	addi	sp,sp,4
 40223fc:	f800283a 	ret

04022400 <main>:

/*********************************************************************
 * main
 *********************************************************************/
int main(int argc, char **argv)
{
 4022400:	f811883a 	mov	r8,ra
 4022404:	40346e80 	call	40346e8 <_mcount>
 4022408:	403f883a 	mov	ra,r8
 402240c:	deffd504 	addi	sp,sp,-172
 4022410:	dfc02a15 	stw	ra,168(sp)
 4022414:	df002915 	stw	fp,164(sp)
 4022418:	ddc02815 	stw	r23,160(sp)
 402241c:	dd802715 	stw	r22,156(sp)
 4022420:	dd402615 	stw	r21,152(sp)
 4022424:	dd002515 	stw	r20,148(sp)
 4022428:	dcc02415 	stw	r19,144(sp)
 402242c:	dc802315 	stw	r18,140(sp)
 4022430:	dc402215 	stw	r17,136(sp)
 4022434:	dc002115 	stw	r16,132(sp)
 4022438:	df002904 	addi	fp,sp,164
 402243c:	e13fe215 	stw	r4,-120(fp)
 4022440:	e17fe315 	stw	r5,-116(fp)
 4022444:	008100b4 	movhi	r2,1026
 4022448:	108c9504 	addi	r2,r2,12884
 402244c:	e0bfea15 	stw	r2,-88(fp)
 4022450:	008100f4 	movhi	r2,1027
 4022454:	10979e04 	addi	r2,r2,24184
 4022458:	e0bfeb15 	stw	r2,-84(fp)
 402245c:	e0bfec04 	addi	r2,fp,-80
 4022460:	e0ffd704 	addi	r3,fp,-164
 4022464:	10c00015 	stw	r3,0(r2)
 4022468:	00c100b4 	movhi	r3,1026
 402246c:	18c9ed04 	addi	r3,r3,10164
 4022470:	10c00115 	stw	r3,4(r2)
 4022474:	16c00215 	stw	sp,8(r2)
 4022478:	e0bfe404 	addi	r2,fp,-112
 402247c:	1009883a 	mov	r4,r2
 4022480:	40272900 	call	4027290 <_Unwind_SjLj_Register>
	printf("Entering ELE8307 Fall 2018 Project main() \r\n");
 4022484:	01000034 	movhi	r4,0
 4022488:	00bfffc4 	movi	r2,-1
 402248c:	e0bfe515 	stw	r2,-108(fp)
 4022490:	21003804 	addi	r4,r4,224
 4022494:	40282300 	call	4028230 <puts>

	pVGA = new VGA(ELE8307_VGA_0_BASE, (int)display);
 4022498:	01000204 	movi	r4,8
 402249c:	40229780 	call	4022978 <_Znwj>
 40224a0:	e0bff115 	stw	r2,-60(fp)
 40224a4:	00800034 	movhi	r2,0
 40224a8:	10889004 	addi	r2,r2,8768
 40224ac:	100d883a 	mov	r6,r2
 40224b0:	01410134 	movhi	r5,1028
 40224b4:	29440004 	addi	r5,r5,4096
 40224b8:	e13ff117 	ldw	r4,-60(fp)
 40224bc:	40228400 	call	4022840 <_ZN3VGAC1Eii>
 40224c0:	e0bff117 	ldw	r2,-60(fp)
 40224c4:	d0a02215 	stw	r2,-32632(gp)
	pVGA->send_to_display();
 40224c8:	d0a02217 	ldw	r2,-32632(gp)
 40224cc:	1009883a 	mov	r4,r2
 40224d0:	40228900 	call	4022890 <_ZN3VGA15send_to_displayEv>
	pVGA->clr();
 40224d4:	d0a02217 	ldw	r2,-32632(gp)
 40224d8:	1009883a 	mov	r4,r2
 40224dc:	40223880 	call	4022388 <_ZN3VGA3clrEv>

    /* Initialisation et application a une image de la machine neuronale (poids aleatoires) */

    printf("> Exemple 1: NN Aleatoire \r\n");
 40224e0:	01000034 	movhi	r4,0
 40224e4:	21004304 	addi	r4,r4,268
 40224e8:	40282300 	call	4028230 <puts>
    NN network(5);
 40224ec:	e0bfdc04 	addi	r2,fp,-144
 40224f0:	01400144 	movi	r5,5
 40224f4:	1009883a 	mov	r4,r2
 40224f8:	40211dc0 	call	40211dc <_ZN2NNC1Ei>
    int matrix_size = 16;
 40224fc:	00800404 	movi	r2,16
 4022500:	e0bfd815 	stw	r2,-160(fp)

    network.layer[0].random_init(matrix_size*matrix_size, 40, 8);
 4022504:	e13fde17 	ldw	r4,-136(fp)
 4022508:	e0ffd817 	ldw	r3,-160(fp)
 402250c:	e0bfd817 	ldw	r2,-160(fp)
 4022510:	1887383a 	mul	r3,r3,r2
 4022514:	00800044 	movi	r2,1
 4022518:	e0bfe515 	stw	r2,-108(fp)
 402251c:	01c00204 	movi	r7,8
 4022520:	01800a04 	movi	r6,40
 4022524:	180b883a 	mov	r5,r3
 4022528:	4021cbc0 	call	4021cbc <_ZN7NNLayer11random_initEiii>
    network.layer[1].random_init(40, 40, 6);
 402252c:	e0bfde17 	ldw	r2,-136(fp)
 4022530:	10800804 	addi	r2,r2,32
 4022534:	01c00184 	movi	r7,6
 4022538:	01800a04 	movi	r6,40
 402253c:	01400a04 	movi	r5,40
 4022540:	1009883a 	mov	r4,r2
 4022544:	4021cbc0 	call	4021cbc <_ZN7NNLayer11random_initEiii>
    network.layer[2].random_init(40, 40, 6);
 4022548:	e0bfde17 	ldw	r2,-136(fp)
 402254c:	10801004 	addi	r2,r2,64
 4022550:	01c00184 	movi	r7,6
 4022554:	01800a04 	movi	r6,40
 4022558:	01400a04 	movi	r5,40
 402255c:	1009883a 	mov	r4,r2
 4022560:	4021cbc0 	call	4021cbc <_ZN7NNLayer11random_initEiii>
    network.layer[3].random_init(40, 40, 6);
 4022564:	e0bfde17 	ldw	r2,-136(fp)
 4022568:	10801804 	addi	r2,r2,96
 402256c:	01c00184 	movi	r7,6
 4022570:	01800a04 	movi	r6,40
 4022574:	01400a04 	movi	r5,40
 4022578:	1009883a 	mov	r4,r2
 402257c:	4021cbc0 	call	4021cbc <_ZN7NNLayer11random_initEiii>
    network.layer[4].random_init(40, 10, 6);
 4022580:	e0bfde17 	ldw	r2,-136(fp)
 4022584:	10802004 	addi	r2,r2,128
 4022588:	01c00184 	movi	r7,6
 402258c:	01800284 	movi	r6,10
 4022590:	01400a04 	movi	r5,40
 4022594:	1009883a 	mov	r4,r2
 4022598:	4021cbc0 	call	4021cbc <_ZN7NNLayer11random_initEiii>

    network.layer[0].print();
 402259c:	e0bfde17 	ldw	r2,-136(fp)
 40225a0:	1009883a 	mov	r4,r2
 40225a4:	40221d80 	call	40221d8 <_ZN7NNLayer5printEv>
    network.layer[1].print();
 40225a8:	e0bfde17 	ldw	r2,-136(fp)
 40225ac:	10800804 	addi	r2,r2,32
 40225b0:	1009883a 	mov	r4,r2
 40225b4:	40221d80 	call	40221d8 <_ZN7NNLayer5printEv>
    network.layer[2].print();
 40225b8:	e0bfde17 	ldw	r2,-136(fp)
 40225bc:	10801004 	addi	r2,r2,64
 40225c0:	1009883a 	mov	r4,r2
 40225c4:	40221d80 	call	40221d8 <_ZN7NNLayer5printEv>
    network.layer[3].print();
 40225c8:	e0bfde17 	ldw	r2,-136(fp)
 40225cc:	10801804 	addi	r2,r2,96
 40225d0:	1009883a 	mov	r4,r2
 40225d4:	40221d80 	call	40221d8 <_ZN7NNLayer5printEv>
    network.layer[4].print();
 40225d8:	e0bfde17 	ldw	r2,-136(fp)
 40225dc:	10802004 	addi	r2,r2,128
 40225e0:	1009883a 	mov	r4,r2
 40225e4:	40221d80 	call	40221d8 <_ZN7NNLayer5printEv>

	Image my_image(60,200);
 40225e8:	e0bfdf04 	addi	r2,fp,-132
 40225ec:	01803204 	movi	r6,200
 40225f0:	01400f04 	movi	r5,60
 40225f4:	1009883a 	mov	r4,r2
 40225f8:	40202380 	call	4020238 <_ZN5ImageC1Eii>
	my_image.make_fractal();
 40225fc:	e0ffdf04 	addi	r3,fp,-132
 4022600:	00800084 	movi	r2,2
 4022604:	e0bfe515 	stw	r2,-108(fp)
 4022608:	1809883a 	mov	r4,r3
 402260c:	402057c0 	call	402057c <_ZN5Image12make_fractalEv>
	my_image.printToScreen(0,0,pVGA);
 4022610:	d0e02217 	ldw	r3,-32632(gp)
 4022614:	e0bfdf04 	addi	r2,fp,-132
 4022618:	180f883a 	mov	r7,r3
 402261c:	000d883a 	mov	r6,zero
 4022620:	000b883a 	mov	r5,zero
 4022624:	1009883a 	mov	r4,r2
 4022628:	4020f4c0 	call	4020f4c <_ZN5Image13printToScreenEiiP3VGA>
	my_image.make_bw();
 402262c:	e0bfdf04 	addi	r2,fp,-132
 4022630:	1009883a 	mov	r4,r2
 4022634:	40209300 	call	4020930 <_ZN5Image7make_bwEv>
	my_image.printToScreen(120,0,pVGA);
 4022638:	d0e02217 	ldw	r3,-32632(gp)
 402263c:	e0bfdf04 	addi	r2,fp,-132
 4022640:	180f883a 	mov	r7,r3
 4022644:	000d883a 	mov	r6,zero
 4022648:	01401e04 	movi	r5,120
 402264c:	1009883a 	mov	r4,r2
 4022650:	4020f4c0 	call	4020f4c <_ZN5Image13printToScreenEiiP3VGA>
	printf("Start processing ...\r\n");
 4022654:	01000034 	movhi	r4,0
 4022658:	21004a04 	addi	r4,r4,296
 402265c:	40282300 	call	4028230 <puts>
 * alt_nticks() returns the elapsed number of system clock ticks since reset.
 */

static ALT_INLINE alt_u32 ALT_ALWAYS_INLINE alt_nticks (void)
{
  return _alt_nticks;
 4022660:	d0a03417 	ldw	r2,-32560(gp)
		result_image->printToScreen(60*i,240,pVGA);
		delete result_image;
		printf("done in %d ms\r\n",(time2-time1));
	}
	*/
	int time1 = alt_nticks();
 4022664:	e0bfd915 	stw	r2,-156(fp)
	Image **result_images = my_image.apply_NN(&network, matrix_size);
 4022668:	e13fdc04 	addi	r4,fp,-144
 402266c:	e0ffdf04 	addi	r3,fp,-132
 4022670:	00800084 	movi	r2,2
 4022674:	e0bfe515 	stw	r2,-108(fp)
 4022678:	e1bfd817 	ldw	r6,-160(fp)
 402267c:	200b883a 	mov	r5,r4
 4022680:	1809883a 	mov	r4,r3
 4022684:	4020a080 	call	4020a08 <_ZN5Image8apply_NNEP2NNi>
 4022688:	e0bfda15 	stw	r2,-152(fp)
 402268c:	d0a03417 	ldw	r2,-32560(gp)
	int time2 = alt_nticks();
 4022690:	e0bfdb15 	stw	r2,-148(fp)
	printf("done in %d ms\r\n",(time2-time1));
 4022694:	e0ffdb17 	ldw	r3,-148(fp)
 4022698:	e0bfd917 	ldw	r2,-156(fp)
 402269c:	1885c83a 	sub	r2,r3,r2
 40226a0:	100b883a 	mov	r5,r2
 40226a4:	01000034 	movhi	r4,0
 40226a8:	00800084 	movi	r2,2
 40226ac:	e0bfe515 	stw	r2,-108(fp)
 40226b0:	21005004 	addi	r4,r4,320
 40226b4:	40280e40 	call	40280e4 <printf>

	for (int i=0;i<10;i++) {
 40226b8:	e03fd715 	stw	zero,-164(fp)
 40226bc:	e0bfd717 	ldw	r2,-164(fp)
 40226c0:	10800288 	cmpgei	r2,r2,10
 40226c4:	1000231e 	bne	r2,zero,4022754 <main+0x354>
		result_images[i]->printToScreen(60*i,240,pVGA);
 40226c8:	e0bfd717 	ldw	r2,-164(fp)
 40226cc:	1085883a 	add	r2,r2,r2
 40226d0:	1085883a 	add	r2,r2,r2
 40226d4:	1007883a 	mov	r3,r2
 40226d8:	e0bfda17 	ldw	r2,-152(fp)
 40226dc:	10c5883a 	add	r2,r2,r3
 40226e0:	10c00017 	ldw	r3,0(r2)
 40226e4:	e0bfd717 	ldw	r2,-164(fp)
 40226e8:	11000f24 	muli	r4,r2,60
 40226ec:	d1602217 	ldw	r5,-32632(gp)
 40226f0:	00800084 	movi	r2,2
 40226f4:	e0bfe515 	stw	r2,-108(fp)
 40226f8:	280f883a 	mov	r7,r5
 40226fc:	01803c04 	movi	r6,240
 4022700:	200b883a 	mov	r5,r4
 4022704:	1809883a 	mov	r4,r3
 4022708:	4020f4c0 	call	4020f4c <_ZN5Image13printToScreenEiiP3VGA>
		delete result_images[i];
 402270c:	e0bfd717 	ldw	r2,-164(fp)
 4022710:	1085883a 	add	r2,r2,r2
 4022714:	1085883a 	add	r2,r2,r2
 4022718:	1007883a 	mov	r3,r2
 402271c:	e0bfda17 	ldw	r2,-152(fp)
 4022720:	10c5883a 	add	r2,r2,r3
 4022724:	10800017 	ldw	r2,0(r2)
 4022728:	e0bff215 	stw	r2,-56(fp)
 402272c:	e0fff217 	ldw	r3,-56(fp)
 4022730:	18000426 	beq	r3,zero,4022744 <main+0x344>
 4022734:	e13ff217 	ldw	r4,-56(fp)
 4022738:	40210f00 	call	40210f0 <_ZN5ImageD1Ev>
 402273c:	e13ff217 	ldw	r4,-56(fp)
 4022740:	4023b100 	call	4023b10 <_ZdlPv>
	int time1 = alt_nticks();
	Image **result_images = my_image.apply_NN(&network, matrix_size);
	int time2 = alt_nticks();
	printf("done in %d ms\r\n",(time2-time1));

	for (int i=0;i<10;i++) {
 4022744:	e0bfd717 	ldw	r2,-164(fp)
 4022748:	10800044 	addi	r2,r2,1
 402274c:	e0bfd715 	stw	r2,-164(fp)
 4022750:	003fda06 	br	40226bc <__flash_rwdata_start+0xfffec164>
		result_images[i]->printToScreen(60*i,240,pVGA);
		delete result_images[i];
	}
	delete result_images;
 4022754:	e13fda17 	ldw	r4,-152(fp)
 4022758:	4023b100 	call	4023b10 <_ZdlPv>


	return 0;
 402275c:	e03ff315 	stw	zero,-52(fp)
    network.layer[1].print();
    network.layer[2].print();
    network.layer[3].print();
    network.layer[4].print();

	Image my_image(60,200);
 4022760:	e0ffdf04 	addi	r3,fp,-132
 4022764:	00800044 	movi	r2,1
 4022768:	e0bfe515 	stw	r2,-108(fp)
 402276c:	1809883a 	mov	r4,r3
 4022770:	40210f00 	call	40210f0 <_ZN5ImageD1Ev>
	pVGA->clr();

    /* Initialisation et application a une image de la machine neuronale (poids aleatoires) */

    printf("> Exemple 1: NN Aleatoire \r\n");
    NN network(5);
 4022774:	e0ffdc04 	addi	r3,fp,-144
 4022778:	00bfffc4 	movi	r2,-1
 402277c:	e0bfe515 	stw	r2,-108(fp)
 4022780:	1809883a 	mov	r4,r3
 4022784:	40214080 	call	4021408 <_ZN2NND1Ev>
 4022788:	e0bff317 	ldw	r2,-52(fp)
 402278c:	e0bff415 	stw	r2,-48(fp)
 4022790:	00001a06 	br	40227fc <main+0x3fc>
 4022794:	e0fff615 	stw	r3,-40(fp)
    network.layer[1].print();
    network.layer[2].print();
    network.layer[3].print();
    network.layer[4].print();

	Image my_image(60,200);
 4022798:	e0bfdf04 	addi	r2,fp,-132
 402279c:	e03fe515 	stw	zero,-108(fp)
 40227a0:	1009883a 	mov	r4,r2
 40227a4:	40210f00 	call	40210f0 <_ZN5ImageD1Ev>
 40227a8:	e0fff617 	ldw	r3,-40(fp)
 40227ac:	e0fff515 	stw	r3,-44(fp)
 40227b0:	00000906 	br	40227d8 <main+0x3d8>
 40227b4:	e7002904 	addi	fp,fp,164
 40227b8:	e0ffe617 	ldw	r3,-104(fp)
 40227bc:	e0bfe517 	ldw	r2,-108(fp)
 40227c0:	10000426 	beq	r2,zero,40227d4 <main+0x3d4>
 40227c4:	10bfffc4 	addi	r2,r2,-1
 40227c8:	103ff226 	beq	r2,zero,4022794 <__flash_rwdata_start+0xfffec23c>
 40227cc:	10bfffc4 	addi	r2,r2,-1
 40227d0:	003b68fa 	trap	3
 40227d4:	e0fff515 	stw	r3,-44(fp)
	pVGA->clr();

    /* Initialisation et application a une image de la machine neuronale (poids aleatoires) */

    printf("> Exemple 1: NN Aleatoire \r\n");
    NN network(5);
 40227d8:	e0bfdc04 	addi	r2,fp,-144
 40227dc:	e03fe515 	stw	zero,-108(fp)
 40227e0:	1009883a 	mov	r4,r2
 40227e4:	40214080 	call	4021408 <_ZN2NND1Ev>
 40227e8:	e0fff517 	ldw	r3,-44(fp)
 40227ec:	00bfffc4 	movi	r2,-1
 40227f0:	e0bfe515 	stw	r2,-108(fp)
 40227f4:	1809883a 	mov	r4,r3
 40227f8:	40275400 	call	4027540 <_Unwind_SjLj_Resume>
 40227fc:	e0bfe404 	addi	r2,fp,-112
 4022800:	1009883a 	mov	r4,r2
 4022804:	40272b40 	call	40272b4 <_Unwind_SjLj_Unregister>
	}
	delete result_images;


	return 0;
}
 4022808:	e0bff417 	ldw	r2,-48(fp)
 402280c:	e6fff804 	addi	sp,fp,-32
 4022810:	dfc00917 	ldw	ra,36(sp)
 4022814:	df000817 	ldw	fp,32(sp)
 4022818:	ddc00717 	ldw	r23,28(sp)
 402281c:	dd800617 	ldw	r22,24(sp)
 4022820:	dd400517 	ldw	r21,20(sp)
 4022824:	dd000417 	ldw	r20,16(sp)
 4022828:	dcc00317 	ldw	r19,12(sp)
 402282c:	dc800217 	ldw	r18,8(sp)
 4022830:	dc400117 	ldw	r17,4(sp)
 4022834:	dc000017 	ldw	r16,0(sp)
 4022838:	dec00a04 	addi	sp,sp,40
 402283c:	f800283a 	ret

04022840 <_ZN3VGAC1Eii>:
class VGA {
	int system_base_address;
	int memory_address;

public:
	VGA(int system_base_address, int memory_address) : system_base_address(system_base_address), memory_address(memory_address) {};
 4022840:	f811883a 	mov	r8,ra
 4022844:	40346e80 	call	40346e8 <_mcount>
 4022848:	403f883a 	mov	ra,r8
 402284c:	defffc04 	addi	sp,sp,-16
 4022850:	df000315 	stw	fp,12(sp)
 4022854:	df000304 	addi	fp,sp,12
 4022858:	e13ffd15 	stw	r4,-12(fp)
 402285c:	e17ffe15 	stw	r5,-8(fp)
 4022860:	e1bfff15 	stw	r6,-4(fp)
 4022864:	e0bffd17 	ldw	r2,-12(fp)
 4022868:	e0fffe17 	ldw	r3,-8(fp)
 402286c:	10c00015 	stw	r3,0(r2)
 4022870:	e0bffd17 	ldw	r2,-12(fp)
 4022874:	e0ffff17 	ldw	r3,-4(fp)
 4022878:	10c00115 	stw	r3,4(r2)
 402287c:	0001883a 	nop
 4022880:	e037883a 	mov	sp,fp
 4022884:	df000017 	ldw	fp,0(sp)
 4022888:	dec00104 	addi	sp,sp,4
 402288c:	f800283a 	ret

04022890 <_ZN3VGA15send_to_displayEv>:
		if ( (x>=640) || (y>=480) ) return;
		int address = 640*y+x;
		IOWR_8DIRECT(memory_address, address, color);
	}

	inline void send_to_display() {
 4022890:	f811883a 	mov	r8,ra
 4022894:	40346e80 	call	40346e8 <_mcount>
 4022898:	403f883a 	mov	ra,r8
 402289c:	defffe04 	addi	sp,sp,-8
 40228a0:	df000115 	stw	fp,4(sp)
 40228a4:	df000104 	addi	fp,sp,4
 40228a8:	e13fff15 	stw	r4,-4(fp)
		IOWR(system_base_address,0,memory_address);
 40228ac:	e0bfff17 	ldw	r2,-4(fp)
 40228b0:	10800017 	ldw	r2,0(r2)
 40228b4:	1007883a 	mov	r3,r2
 40228b8:	e0bfff17 	ldw	r2,-4(fp)
 40228bc:	10800117 	ldw	r2,4(r2)
 40228c0:	18800035 	stwio	r2,0(r3)
	}
 40228c4:	0001883a 	nop
 40228c8:	e037883a 	mov	sp,fp
 40228cc:	df000017 	ldw	fp,0(sp)
 40228d0:	dec00104 	addi	sp,sp,4
 40228d4:	f800283a 	ret

040228d8 <_Znaj>:
 40228d8:	f811883a 	mov	r8,ra
 40228dc:	40346e80 	call	40346e8 <_mcount>
 40228e0:	403f883a 	mov	ra,r8
 40228e4:	defff004 	addi	sp,sp,-64
 40228e8:	dfc00f15 	stw	ra,60(sp)
 40228ec:	df000e15 	stw	fp,56(sp)
 40228f0:	008100b4 	movhi	r2,1026
 40228f4:	108c9504 	addi	r2,r2,12884
 40228f8:	d8800615 	stw	r2,24(sp)
 40228fc:	008100f4 	movhi	r2,1027
 4022900:	1097a004 	addi	r2,r2,24192
 4022904:	d8800715 	stw	r2,28(sp)
 4022908:	008100b4 	movhi	r2,1026
 402290c:	108a5604 	addi	r2,r2,10584
 4022910:	d9000d15 	stw	r4,52(sp)
 4022914:	d809883a 	mov	r4,sp
 4022918:	d8800915 	stw	r2,36(sp)
 402291c:	dec00815 	stw	sp,32(sp)
 4022920:	dec00a15 	stw	sp,40(sp)
 4022924:	40272900 	call	4027290 <_Unwind_SjLj_Register>
 4022928:	d9000d17 	ldw	r4,52(sp)
 402292c:	00800044 	movi	r2,1
 4022930:	d8800115 	stw	r2,4(sp)
 4022934:	40229780 	call	4022978 <_Znwj>
 4022938:	d809883a 	mov	r4,sp
 402293c:	d8800d15 	stw	r2,52(sp)
 4022940:	40272b40 	call	40272b4 <_Unwind_SjLj_Unregister>
 4022944:	d8800d17 	ldw	r2,52(sp)
 4022948:	dfc00f17 	ldw	ra,60(sp)
 402294c:	df000e17 	ldw	fp,56(sp)
 4022950:	dec01004 	addi	sp,sp,64
 4022954:	f800283a 	ret
 4022958:	d8800317 	ldw	r2,12(sp)
 402295c:	00ffffc4 	movi	r3,-1
 4022960:	d9000217 	ldw	r4,8(sp)
 4022964:	10c00226 	beq	r2,r3,4022970 <_Znaj+0x98>
 4022968:	d8c00115 	stw	r3,4(sp)
 402296c:	40275400 	call	4027540 <_Unwind_SjLj_Resume>
 4022970:	d8800115 	stw	r2,4(sp)
 4022974:	40238600 	call	4023860 <__cxa_call_unexpected>

04022978 <_Znwj>:
 4022978:	f811883a 	mov	r8,ra
 402297c:	40346e80 	call	40346e8 <_mcount>
 4022980:	403f883a 	mov	ra,r8
 4022984:	defffe04 	addi	sp,sp,-8
 4022988:	dfc00115 	stw	ra,4(sp)
 402298c:	dc000015 	stw	r16,0(sp)
 4022990:	2021883a 	mov	r16,r4
 4022994:	2000011e 	bne	r4,zero,402299c <_Znwj+0x24>
 4022998:	04000044 	movi	r16,1
 402299c:	8009883a 	mov	r4,r16
 40229a0:	40277200 	call	4027720 <malloc>
 40229a4:	10000426 	beq	r2,zero,40229b8 <_Znwj+0x40>
 40229a8:	dfc00117 	ldw	ra,4(sp)
 40229ac:	dc000017 	ldw	r16,0(sp)
 40229b0:	dec00204 	addi	sp,sp,8
 40229b4:	f800283a 	ret
 40229b8:	4022a240 	call	4022a24 <_ZSt15get_new_handlerv>
 40229bc:	10000226 	beq	r2,zero,40229c8 <_Znwj+0x50>
 40229c0:	103ee83a 	callr	r2
 40229c4:	003ff506 	br	402299c <__flash_rwdata_start+0xfffec444>
 40229c8:	01000104 	movi	r4,4
 40229cc:	40244940 	call	4024494 <__cxa_allocate_exception>
 40229d0:	00c00034 	movhi	r3,0
 40229d4:	018100b4 	movhi	r6,1026
 40229d8:	01400034 	movhi	r5,0
 40229dc:	18c06104 	addi	r3,r3,388
 40229e0:	318ead04 	addi	r6,r6,15028
 40229e4:	29405c04 	addi	r5,r5,368
 40229e8:	1009883a 	mov	r4,r2
 40229ec:	10c00015 	stw	r3,0(r2)
 40229f0:	4023b700 	call	4023b70 <__cxa_throw>

040229f4 <_ZdaPv>:
 40229f4:	f811883a 	mov	r8,ra
 40229f8:	40346e80 	call	40346e8 <_mcount>
 40229fc:	403f883a 	mov	ra,r8
 4022a00:	4023b101 	jmpi	4023b10 <_ZdlPv>

04022a04 <_ZSt15set_new_handlerPFvvE>:
 4022a04:	f811883a 	mov	r8,ra
 4022a08:	40346e80 	call	40346e8 <_mcount>
 4022a0c:	403f883a 	mov	ra,r8
 4022a10:	00c00034 	movhi	r3,0
 4022a14:	18c87904 	addi	r3,r3,8676
 4022a18:	18800017 	ldw	r2,0(r3)
 4022a1c:	19000015 	stw	r4,0(r3)
 4022a20:	f800283a 	ret

04022a24 <_ZSt15get_new_handlerv>:
 4022a24:	f811883a 	mov	r8,ra
 4022a28:	40346e80 	call	40346e8 <_mcount>
 4022a2c:	403f883a 	mov	ra,r8
 4022a30:	00800034 	movhi	r2,0
 4022a34:	10887904 	addi	r2,r2,8676
 4022a38:	10800017 	ldw	r2,0(r2)
 4022a3c:	f800283a 	ret

04022a40 <_ZL21size_of_encoded_valueh>:
 4022a40:	f811883a 	mov	r8,ra
 4022a44:	40346e80 	call	40346e8 <_mcount>
 4022a48:	403f883a 	mov	ra,r8
 4022a4c:	deffff04 	addi	sp,sp,-4
 4022a50:	dfc00015 	stw	ra,0(sp)
 4022a54:	00803fc4 	movi	r2,255
 4022a58:	20c03fcc 	andi	r3,r4,255
 4022a5c:	18802026 	beq	r3,r2,4022ae0 <_ZL21size_of_encoded_valueh+0xa0>
 4022a60:	210001cc 	andi	r4,r4,7
 4022a64:	00800144 	movi	r2,5
 4022a68:	11001c36 	bltu	r2,r4,4022adc <_ZL21size_of_encoded_valueh+0x9c>
 4022a6c:	200890ba 	slli	r4,r4,2
 4022a70:	008100b4 	movhi	r2,1026
 4022a74:	108aa104 	addi	r2,r2,10884
 4022a78:	2089883a 	add	r4,r4,r2
 4022a7c:	20800017 	ldw	r2,0(r4)
 4022a80:	1000683a 	jmp	r2
 4022a84:	04022a9c 	xori	r16,zero,2218
 4022a88:	04022adc 	xori	r16,zero,2219
 4022a8c:	04022aac 	andhi	r16,zero,2218
 4022a90:	04022a9c 	xori	r16,zero,2218
 4022a94:	04022acc 	andi	r16,zero,2219
 4022a98:	04022abc 	xorhi	r16,zero,2218
 4022a9c:	00800104 	movi	r2,4
 4022aa0:	dfc00017 	ldw	ra,0(sp)
 4022aa4:	dec00104 	addi	sp,sp,4
 4022aa8:	f800283a 	ret
 4022aac:	00800084 	movi	r2,2
 4022ab0:	dfc00017 	ldw	ra,0(sp)
 4022ab4:	dec00104 	addi	sp,sp,4
 4022ab8:	f800283a 	ret
 4022abc:	00800044 	movi	r2,1
 4022ac0:	dfc00017 	ldw	ra,0(sp)
 4022ac4:	dec00104 	addi	sp,sp,4
 4022ac8:	f800283a 	ret
 4022acc:	00800204 	movi	r2,8
 4022ad0:	dfc00017 	ldw	ra,0(sp)
 4022ad4:	dec00104 	addi	sp,sp,4
 4022ad8:	f800283a 	ret
 4022adc:	40276fc0 	call	40276fc <abort>
 4022ae0:	0005883a 	mov	r2,zero
 4022ae4:	dfc00017 	ldw	ra,0(sp)
 4022ae8:	dec00104 	addi	sp,sp,4
 4022aec:	f800283a 	ret

04022af0 <_ZL28read_encoded_value_with_basehjPKhPj>:
 4022af0:	f811883a 	mov	r8,ra
 4022af4:	40346e80 	call	40346e8 <_mcount>
 4022af8:	403f883a 	mov	ra,r8
 4022afc:	deffff04 	addi	sp,sp,-4
 4022b00:	dfc00015 	stw	ra,0(sp)
 4022b04:	00801404 	movi	r2,80
 4022b08:	20c03fcc 	andi	r3,r4,255
 4022b0c:	18807326 	beq	r3,r2,4022cdc <_ZL28read_encoded_value_with_basehjPKhPj+0x1ec>
 4022b10:	20c003cc 	andi	r3,r4,15
 4022b14:	00800304 	movi	r2,12
 4022b18:	10c06f36 	bltu	r2,r3,4022cd8 <_ZL28read_encoded_value_with_basehjPKhPj+0x1e8>
 4022b1c:	180690ba 	slli	r3,r3,2
 4022b20:	020100b4 	movhi	r8,1026
 4022b24:	420acd04 	addi	r8,r8,11060
 4022b28:	1a07883a 	add	r3,r3,r8
 4022b2c:	18800017 	ldw	r2,0(r3)
 4022b30:	1000683a 	jmp	r2
 4022b34:	04022b68 	cmpgeui	r16,zero,2221
 4022b38:	04022c84 	movi	r16,2226
 4022b3c:	04022cc0 	call	4022cc <__alt_heap_start+0x3b4e3c>
 4022b40:	04022b68 	cmpgeui	r16,zero,2221
 4022b44:	04022bcc 	andi	r16,zero,2223
 4022b48:	04022c20 	cmpeqi	r16,zero,2224
 4022b4c:	04022cd8 	cmpnei	r16,zero,2227
 4022b50:	04022cd8 	cmpnei	r16,zero,2227
 4022b54:	04022cd8 	cmpnei	r16,zero,2227
 4022b58:	04022c2c 	andhi	r16,zero,2224
 4022b5c:	04022bfc 	xorhi	r16,zero,2223
 4022b60:	04022b68 	cmpgeui	r16,zero,2221
 4022b64:	04022bcc 	andi	r16,zero,2223
 4022b68:	30800043 	ldbu	r2,1(r6)
 4022b6c:	30c00083 	ldbu	r3,2(r6)
 4022b70:	324000c3 	ldbu	r9,3(r6)
 4022b74:	32000003 	ldbu	r8,0(r6)
 4022b78:	1004923a 	slli	r2,r2,8
 4022b7c:	1806943a 	slli	r3,r3,16
 4022b80:	4812963a 	slli	r9,r9,24
 4022b84:	1204b03a 	or	r2,r2,r8
 4022b88:	1884b03a 	or	r2,r3,r2
 4022b8c:	4886b03a 	or	r3,r9,r2
 4022b90:	30800104 	addi	r2,r6,4
 4022b94:	18000926 	beq	r3,zero,4022bbc <_ZL28read_encoded_value_with_basehjPKhPj+0xcc>
 4022b98:	22001c0c 	andi	r8,r4,112
 4022b9c:	02400404 	movi	r9,16
 4022ba0:	42405726 	beq	r8,r9,4022d00 <_ZL28read_encoded_value_with_basehjPKhPj+0x210>
 4022ba4:	21003fcc 	andi	r4,r4,255
 4022ba8:	2100201c 	xori	r4,r4,128
 4022bac:	213fe004 	addi	r4,r4,-128
 4022bb0:	1947883a 	add	r3,r3,r5
 4022bb4:	2000010e 	bge	r4,zero,4022bbc <_ZL28read_encoded_value_with_basehjPKhPj+0xcc>
 4022bb8:	18c00017 	ldw	r3,0(r3)
 4022bbc:	38c00015 	stw	r3,0(r7)
 4022bc0:	dfc00017 	ldw	ra,0(sp)
 4022bc4:	dec00104 	addi	sp,sp,4
 4022bc8:	f800283a 	ret
 4022bcc:	30800043 	ldbu	r2,1(r6)
 4022bd0:	30c00083 	ldbu	r3,2(r6)
 4022bd4:	324000c3 	ldbu	r9,3(r6)
 4022bd8:	32000003 	ldbu	r8,0(r6)
 4022bdc:	1004923a 	slli	r2,r2,8
 4022be0:	1806943a 	slli	r3,r3,16
 4022be4:	4812963a 	slli	r9,r9,24
 4022be8:	1204b03a 	or	r2,r2,r8
 4022bec:	1884b03a 	or	r2,r3,r2
 4022bf0:	4886b03a 	or	r3,r9,r2
 4022bf4:	30800204 	addi	r2,r6,8
 4022bf8:	003fe606 	br	4022b94 <__flash_rwdata_start+0xfffec63c>
 4022bfc:	30c00043 	ldbu	r3,1(r6)
 4022c00:	32000003 	ldbu	r8,0(r6)
 4022c04:	30800084 	addi	r2,r6,2
 4022c08:	1806923a 	slli	r3,r3,8
 4022c0c:	1a06b03a 	or	r3,r3,r8
 4022c10:	18ffffcc 	andi	r3,r3,65535
 4022c14:	18e0001c 	xori	r3,r3,32768
 4022c18:	18e00004 	addi	r3,r3,-32768
 4022c1c:	003fdd06 	br	4022b94 <__flash_rwdata_start+0xfffec63c>
 4022c20:	30c00003 	ldbu	r3,0(r6)
 4022c24:	30800044 	addi	r2,r6,1
 4022c28:	003fda06 	br	4022b94 <__flash_rwdata_start+0xfffec63c>
 4022c2c:	3017883a 	mov	r11,r6
 4022c30:	0007883a 	mov	r3,zero
 4022c34:	0013883a 	mov	r9,zero
 4022c38:	5a800003 	ldbu	r10,0(r11)
 4022c3c:	58800044 	addi	r2,r11,1
 4022c40:	1017883a 	mov	r11,r2
 4022c44:	52001fcc 	andi	r8,r10,127
 4022c48:	4250983a 	sll	r8,r8,r9
 4022c4c:	53003fcc 	andi	r12,r10,255
 4022c50:	6300201c 	xori	r12,r12,128
 4022c54:	633fe004 	addi	r12,r12,-128
 4022c58:	1a06b03a 	or	r3,r3,r8
 4022c5c:	4a4001c4 	addi	r9,r9,7
 4022c60:	603ff516 	blt	r12,zero,4022c38 <__flash_rwdata_start+0xfffec6e0>
 4022c64:	020007c4 	movi	r8,31
 4022c68:	427fca36 	bltu	r8,r9,4022b94 <__flash_rwdata_start+0xfffec63c>
 4022c6c:	5280100c 	andi	r10,r10,64
 4022c70:	503fc826 	beq	r10,zero,4022b94 <__flash_rwdata_start+0xfffec63c>
 4022c74:	023fffc4 	movi	r8,-1
 4022c78:	4252983a 	sll	r9,r8,r9
 4022c7c:	1a46b03a 	or	r3,r3,r9
 4022c80:	003fc506 	br	4022b98 <__flash_rwdata_start+0xfffec640>
 4022c84:	3017883a 	mov	r11,r6
 4022c88:	0007883a 	mov	r3,zero
 4022c8c:	0015883a 	mov	r10,zero
 4022c90:	5a000003 	ldbu	r8,0(r11)
 4022c94:	58800044 	addi	r2,r11,1
 4022c98:	1017883a 	mov	r11,r2
 4022c9c:	42401fcc 	andi	r9,r8,127
 4022ca0:	4a92983a 	sll	r9,r9,r10
 4022ca4:	42003fcc 	andi	r8,r8,255
 4022ca8:	4200201c 	xori	r8,r8,128
 4022cac:	423fe004 	addi	r8,r8,-128
 4022cb0:	1a46b03a 	or	r3,r3,r9
 4022cb4:	528001c4 	addi	r10,r10,7
 4022cb8:	403ff516 	blt	r8,zero,4022c90 <__flash_rwdata_start+0xfffec738>
 4022cbc:	003fb506 	br	4022b94 <__flash_rwdata_start+0xfffec63c>
 4022cc0:	30c00043 	ldbu	r3,1(r6)
 4022cc4:	32000003 	ldbu	r8,0(r6)
 4022cc8:	30800084 	addi	r2,r6,2
 4022ccc:	1806923a 	slli	r3,r3,8
 4022cd0:	1a06b03a 	or	r3,r3,r8
 4022cd4:	003faf06 	br	4022b94 <__flash_rwdata_start+0xfffec63c>
 4022cd8:	40276fc0 	call	40276fc <abort>
 4022cdc:	308000c4 	addi	r2,r6,3
 4022ce0:	00ffff04 	movi	r3,-4
 4022ce4:	10c4703a 	and	r2,r2,r3
 4022ce8:	10c00017 	ldw	r3,0(r2)
 4022cec:	10800104 	addi	r2,r2,4
 4022cf0:	38c00015 	stw	r3,0(r7)
 4022cf4:	dfc00017 	ldw	ra,0(sp)
 4022cf8:	dec00104 	addi	sp,sp,4
 4022cfc:	f800283a 	ret
 4022d00:	300b883a 	mov	r5,r6
 4022d04:	003fa706 	br	4022ba4 <__flash_rwdata_start+0xfffec64c>

04022d08 <_ZL15get_ttype_entryP16lsda_header_infom>:
 4022d08:	f811883a 	mov	r8,ra
 4022d0c:	40346e80 	call	40346e8 <_mcount>
 4022d10:	403f883a 	mov	ra,r8
 4022d14:	defffc04 	addi	sp,sp,-16
 4022d18:	dfc00315 	stw	ra,12(sp)
 4022d1c:	dc400215 	stw	r17,8(sp)
 4022d20:	dc000115 	stw	r16,4(sp)
 4022d24:	2021883a 	mov	r16,r4
 4022d28:	21000503 	ldbu	r4,20(r4)
 4022d2c:	2823883a 	mov	r17,r5
 4022d30:	4022a400 	call	4022a40 <_ZL21size_of_encoded_valueh>
 4022d34:	1445383a 	mul	r2,r2,r17
 4022d38:	81800317 	ldw	r6,12(r16)
 4022d3c:	81400217 	ldw	r5,8(r16)
 4022d40:	81000503 	ldbu	r4,20(r16)
 4022d44:	d80f883a 	mov	r7,sp
 4022d48:	308dc83a 	sub	r6,r6,r2
 4022d4c:	4022af00 	call	4022af0 <_ZL28read_encoded_value_with_basehjPKhPj>
 4022d50:	d8800017 	ldw	r2,0(sp)
 4022d54:	dfc00317 	ldw	ra,12(sp)
 4022d58:	dc400217 	ldw	r17,8(sp)
 4022d5c:	dc000117 	ldw	r16,4(sp)
 4022d60:	dec00404 	addi	sp,sp,16
 4022d64:	f800283a 	ret

04022d68 <_ZL21base_of_encoded_valuehP15_Unwind_Context>:
 4022d68:	f811883a 	mov	r8,ra
 4022d6c:	40346e80 	call	40346e8 <_mcount>
 4022d70:	403f883a 	mov	ra,r8
 4022d74:	deffff04 	addi	sp,sp,-4
 4022d78:	dfc00015 	stw	ra,0(sp)
 4022d7c:	00803fc4 	movi	r2,255
 4022d80:	20c03fcc 	andi	r3,r4,255
 4022d84:	18800e26 	beq	r3,r2,4022dc0 <_ZL21base_of_encoded_valuehP15_Unwind_Context+0x58>
 4022d88:	20801c0c 	andi	r2,r4,112
 4022d8c:	00c00804 	movi	r3,32
 4022d90:	10c01726 	beq	r2,r3,4022df0 <_ZL21base_of_encoded_valuehP15_Unwind_Context+0x88>
 4022d94:	18800e2e 	bgeu	r3,r2,4022dd0 <_ZL21base_of_encoded_valuehP15_Unwind_Context+0x68>
 4022d98:	00c01004 	movi	r3,64
 4022d9c:	10c01026 	beq	r2,r3,4022de0 <_ZL21base_of_encoded_valuehP15_Unwind_Context+0x78>
 4022da0:	00c01404 	movi	r3,80
 4022da4:	10c00626 	beq	r2,r3,4022dc0 <_ZL21base_of_encoded_valuehP15_Unwind_Context+0x58>
 4022da8:	00c00c04 	movi	r3,48
 4022dac:	10c00b1e 	bne	r2,r3,4022ddc <_ZL21base_of_encoded_valuehP15_Unwind_Context+0x74>
 4022db0:	2809883a 	mov	r4,r5
 4022db4:	dfc00017 	ldw	ra,0(sp)
 4022db8:	dec00104 	addi	sp,sp,4
 4022dbc:	40273ec1 	jmpi	40273ec <_Unwind_GetDataRelBase>
 4022dc0:	0005883a 	mov	r2,zero
 4022dc4:	dfc00017 	ldw	ra,0(sp)
 4022dc8:	dec00104 	addi	sp,sp,4
 4022dcc:	f800283a 	ret
 4022dd0:	103ffb26 	beq	r2,zero,4022dc0 <__flash_rwdata_start+0xfffec868>
 4022dd4:	00c00404 	movi	r3,16
 4022dd8:	10fff926 	beq	r2,r3,4022dc0 <__flash_rwdata_start+0xfffec868>
 4022ddc:	40276fc0 	call	40276fc <abort>
 4022de0:	2809883a 	mov	r4,r5
 4022de4:	dfc00017 	ldw	ra,0(sp)
 4022de8:	dec00104 	addi	sp,sp,4
 4022dec:	40273c41 	jmpi	40273c4 <_Unwind_GetRegionStart>
 4022df0:	2809883a 	mov	r4,r5
 4022df4:	dfc00017 	ldw	ra,0(sp)
 4022df8:	dec00104 	addi	sp,sp,4
 4022dfc:	40274001 	jmpi	4027400 <_Unwind_GetTextRelBase>

04022e00 <_ZL17parse_lsda_headerP15_Unwind_ContextPKhP16lsda_header_info>:
 4022e00:	f811883a 	mov	r8,ra
 4022e04:	40346e80 	call	40346e8 <_mcount>
 4022e08:	403f883a 	mov	ra,r8
 4022e0c:	defffb04 	addi	sp,sp,-20
 4022e10:	dfc00415 	stw	ra,16(sp)
 4022e14:	dcc00315 	stw	r19,12(sp)
 4022e18:	dc800215 	stw	r18,8(sp)
 4022e1c:	dc400115 	stw	r17,4(sp)
 4022e20:	dc000015 	stw	r16,0(sp)
 4022e24:	2027883a 	mov	r19,r4
 4022e28:	2821883a 	mov	r16,r5
 4022e2c:	3023883a 	mov	r17,r6
 4022e30:	20003f26 	beq	r4,zero,4022f30 <_ZL17parse_lsda_headerP15_Unwind_ContextPKhP16lsda_header_info+0x130>
 4022e34:	40273c40 	call	40273c4 <_Unwind_GetRegionStart>
 4022e38:	88800015 	stw	r2,0(r17)
 4022e3c:	84800003 	ldbu	r18,0(r16)
 4022e40:	00c03fc4 	movi	r3,255
 4022e44:	84000044 	addi	r16,r16,1
 4022e48:	90c03726 	beq	r18,r3,4022f28 <_ZL17parse_lsda_headerP15_Unwind_ContextPKhP16lsda_header_info+0x128>
 4022e4c:	980b883a 	mov	r5,r19
 4022e50:	9009883a 	mov	r4,r18
 4022e54:	4022d680 	call	4022d68 <_ZL21base_of_encoded_valuehP15_Unwind_Context>
 4022e58:	800d883a 	mov	r6,r16
 4022e5c:	89c00104 	addi	r7,r17,4
 4022e60:	100b883a 	mov	r5,r2
 4022e64:	9009883a 	mov	r4,r18
 4022e68:	4022af00 	call	4022af0 <_ZL28read_encoded_value_with_basehjPKhPj>
 4022e6c:	1021883a 	mov	r16,r2
 4022e70:	80c00003 	ldbu	r3,0(r16)
 4022e74:	01003fc4 	movi	r4,255
 4022e78:	80800044 	addi	r2,r16,1
 4022e7c:	88c00505 	stb	r3,20(r17)
 4022e80:	18c03fcc 	andi	r3,r3,255
 4022e84:	19002c26 	beq	r3,r4,4022f38 <_ZL17parse_lsda_headerP15_Unwind_ContextPKhP16lsda_header_info+0x138>
 4022e88:	100f883a 	mov	r7,r2
 4022e8c:	000d883a 	mov	r6,zero
 4022e90:	000b883a 	mov	r5,zero
 4022e94:	38c00003 	ldbu	r3,0(r7)
 4022e98:	10800044 	addi	r2,r2,1
 4022e9c:	100f883a 	mov	r7,r2
 4022ea0:	19001fcc 	andi	r4,r3,127
 4022ea4:	2148983a 	sll	r4,r4,r5
 4022ea8:	18c03fcc 	andi	r3,r3,255
 4022eac:	18c0201c 	xori	r3,r3,128
 4022eb0:	18ffe004 	addi	r3,r3,-128
 4022eb4:	310cb03a 	or	r6,r6,r4
 4022eb8:	294001c4 	addi	r5,r5,7
 4022ebc:	183ff516 	blt	r3,zero,4022e94 <__flash_rwdata_start+0xfffec93c>
 4022ec0:	118d883a 	add	r6,r2,r6
 4022ec4:	89800315 	stw	r6,12(r17)
 4022ec8:	10c00003 	ldbu	r3,0(r2)
 4022ecc:	000d883a 	mov	r6,zero
 4022ed0:	10800044 	addi	r2,r2,1
 4022ed4:	88c00545 	stb	r3,21(r17)
 4022ed8:	000b883a 	mov	r5,zero
 4022edc:	10c00003 	ldbu	r3,0(r2)
 4022ee0:	10800044 	addi	r2,r2,1
 4022ee4:	19001fcc 	andi	r4,r3,127
 4022ee8:	2148983a 	sll	r4,r4,r5
 4022eec:	18c03fcc 	andi	r3,r3,255
 4022ef0:	18c0201c 	xori	r3,r3,128
 4022ef4:	18ffe004 	addi	r3,r3,-128
 4022ef8:	310cb03a 	or	r6,r6,r4
 4022efc:	294001c4 	addi	r5,r5,7
 4022f00:	183ff616 	blt	r3,zero,4022edc <__flash_rwdata_start+0xfffec984>
 4022f04:	118d883a 	add	r6,r2,r6
 4022f08:	89800415 	stw	r6,16(r17)
 4022f0c:	dfc00417 	ldw	ra,16(sp)
 4022f10:	dcc00317 	ldw	r19,12(sp)
 4022f14:	dc800217 	ldw	r18,8(sp)
 4022f18:	dc400117 	ldw	r17,4(sp)
 4022f1c:	dc000017 	ldw	r16,0(sp)
 4022f20:	dec00504 	addi	sp,sp,20
 4022f24:	f800283a 	ret
 4022f28:	88800115 	stw	r2,4(r17)
 4022f2c:	003fd006 	br	4022e70 <__flash_rwdata_start+0xfffec918>
 4022f30:	0005883a 	mov	r2,zero
 4022f34:	003fc006 	br	4022e38 <__flash_rwdata_start+0xfffec8e0>
 4022f38:	88000315 	stw	zero,12(r17)
 4022f3c:	003fe206 	br	4022ec8 <__flash_rwdata_start+0xfffec970>

04022f40 <_ZL16get_adjusted_ptrPKSt9type_infoS1_PPv.constprop.3>:
 4022f40:	f811883a 	mov	r8,ra
 4022f44:	40346e80 	call	40346e8 <_mcount>
 4022f48:	403f883a 	mov	ra,r8
 4022f4c:	defffb04 	addi	sp,sp,-20
 4022f50:	dfc00415 	stw	ra,16(sp)
 4022f54:	dc400315 	stw	r17,12(sp)
 4022f58:	dc000215 	stw	r16,8(sp)
 4022f5c:	28800017 	ldw	r2,0(r5)
 4022f60:	30c00017 	ldw	r3,0(r6)
 4022f64:	2021883a 	mov	r16,r4
 4022f68:	10800217 	ldw	r2,8(r2)
 4022f6c:	2809883a 	mov	r4,r5
 4022f70:	d9400115 	stw	r5,4(sp)
 4022f74:	d8c00015 	stw	r3,0(sp)
 4022f78:	3023883a 	mov	r17,r6
 4022f7c:	103ee83a 	callr	r2
 4022f80:	10803fcc 	andi	r2,r2,255
 4022f84:	d9400117 	ldw	r5,4(sp)
 4022f88:	10000326 	beq	r2,zero,4022f98 <_ZL16get_adjusted_ptrPKSt9type_infoS1_PPv.constprop.3+0x58>
 4022f8c:	d8800017 	ldw	r2,0(sp)
 4022f90:	10800017 	ldw	r2,0(r2)
 4022f94:	d8800015 	stw	r2,0(sp)
 4022f98:	80800017 	ldw	r2,0(r16)
 4022f9c:	01c00044 	movi	r7,1
 4022fa0:	d80d883a 	mov	r6,sp
 4022fa4:	10800417 	ldw	r2,16(r2)
 4022fa8:	8009883a 	mov	r4,r16
 4022fac:	103ee83a 	callr	r2
 4022fb0:	10c03fcc 	andi	r3,r2,255
 4022fb4:	18000226 	beq	r3,zero,4022fc0 <_ZL16get_adjusted_ptrPKSt9type_infoS1_PPv.constprop.3+0x80>
 4022fb8:	d8c00017 	ldw	r3,0(sp)
 4022fbc:	88c00015 	stw	r3,0(r17)
 4022fc0:	dfc00417 	ldw	ra,16(sp)
 4022fc4:	dc400317 	ldw	r17,12(sp)
 4022fc8:	dc000217 	ldw	r16,8(sp)
 4022fcc:	dec00504 	addi	sp,sp,20
 4022fd0:	f800283a 	ret

04022fd4 <_ZL28check_compact_exception_specPKSt9type_infoPvPKhij>:
 4022fd4:	f811883a 	mov	r8,ra
 4022fd8:	40346e80 	call	40346e8 <_mcount>
 4022fdc:	403f883a 	mov	ra,r8
 4022fe0:	defff604 	addi	sp,sp,-40
 4022fe4:	dfc00915 	stw	ra,36(sp)
 4022fe8:	dd000815 	stw	r20,32(sp)
 4022fec:	dcc00715 	stw	r19,28(sp)
 4022ff0:	dc800615 	stw	r18,24(sp)
 4022ff4:	dc400515 	stw	r17,20(sp)
 4022ff8:	dc000415 	stw	r16,16(sp)
 4022ffc:	3821d23a 	srai	r16,r7,8
 4023000:	d9400215 	stw	r5,8(sp)
 4023004:	3825883a 	mov	r18,r7
 4023008:	2023883a 	mov	r17,r4
 402300c:	8000010e 	bge	r16,zero,4023014 <_ZL28check_compact_exception_specPKSt9type_infoPvPKhij+0x40>
 4023010:	0421c83a 	sub	r16,zero,r16
 4023014:	000b883a 	mov	r5,zero
 4023018:	01000144 	movi	r4,5
 402301c:	d9800315 	stw	r6,12(sp)
 4023020:	4022d680 	call	4022d68 <_ZL21base_of_encoded_valuehP15_Unwind_Context>
 4023024:	d9800317 	ldw	r6,12(sp)
 4023028:	d9c00104 	addi	r7,sp,4
 402302c:	100b883a 	mov	r5,r2
 4023030:	01000144 	movi	r4,5
 4023034:	4022af00 	call	4022af0 <_ZL28read_encoded_value_with_basehjPKhPj>
 4023038:	11fffe64 	muli	r7,r2,-7
 402303c:	0007883a 	mov	r3,zero
 4023040:	11400003 	ldbu	r5,0(r2)
 4023044:	110001e4 	muli	r4,r2,7
 4023048:	10800044 	addi	r2,r2,1
 402304c:	29801fcc 	andi	r6,r5,127
 4023050:	21c9883a 	add	r4,r4,r7
 4023054:	3108983a 	sll	r4,r6,r4
 4023058:	29403fcc 	andi	r5,r5,255
 402305c:	2940201c 	xori	r5,r5,128
 4023060:	297fe004 	addi	r5,r5,-128
 4023064:	1906b03a 	or	r3,r3,r4
 4023068:	283ff516 	blt	r5,zero,4023040 <__flash_rwdata_start+0xfffecae8>
 402306c:	10c5883a 	add	r2,r2,r3
 4023070:	11fffe64 	muli	r7,r2,-7
 4023074:	0009883a 	mov	r4,zero
 4023078:	11400003 	ldbu	r5,0(r2)
 402307c:	10c001e4 	muli	r3,r2,7
 4023080:	10800044 	addi	r2,r2,1
 4023084:	29801fcc 	andi	r6,r5,127
 4023088:	19c7883a 	add	r3,r3,r7
 402308c:	30c6983a 	sll	r3,r6,r3
 4023090:	29403fcc 	andi	r5,r5,255
 4023094:	2940201c 	xori	r5,r5,128
 4023098:	297fe004 	addi	r5,r5,-128
 402309c:	20c8b03a 	or	r4,r4,r3
 40230a0:	283ff516 	blt	r5,zero,4023078 <__flash_rwdata_start+0xfffecb20>
 40230a4:	80c03fcc 	andi	r3,r16,255
 40230a8:	18ffffc4 	addi	r3,r3,-1
 40230ac:	10c7883a 	add	r3,r2,r3
 40230b0:	210000c4 	addi	r4,r4,3
 40230b4:	197ffe64 	muli	r5,r3,-7
 40230b8:	2085883a 	add	r2,r4,r2
 40230bc:	04ffff04 	movi	r19,-4
 40230c0:	14e6703a 	and	r19,r2,r19
 40230c4:	0021883a 	mov	r16,zero
 40230c8:	18800003 	ldbu	r2,0(r3)
 40230cc:	190001e4 	muli	r4,r3,7
 40230d0:	1d000044 	addi	r20,r3,1
 40230d4:	10c01fcc 	andi	r3,r2,127
 40230d8:	2149883a 	add	r4,r4,r5
 40230dc:	1908983a 	sll	r4,r3,r4
 40230e0:	10803fcc 	andi	r2,r2,255
 40230e4:	1080201c 	xori	r2,r2,128
 40230e8:	10bfe004 	addi	r2,r2,-128
 40230ec:	a007883a 	mov	r3,r20
 40230f0:	8120b03a 	or	r16,r16,r4
 40230f4:	103ff416 	blt	r2,zero,40230c8 <__flash_rwdata_start+0xfffecb70>
 40230f8:	94803fcc 	andi	r18,r18,255
 40230fc:	80001f26 	beq	r16,zero,402317c <_ZL28check_compact_exception_specPKSt9type_infoPvPKhij+0x1a8>
 4023100:	9009883a 	mov	r4,r18
 4023104:	4022a400 	call	4022a40 <_ZL21size_of_encoded_valueh>
 4023108:	81bfffc4 	addi	r6,r16,-1
 402310c:	308d383a 	mul	r6,r6,r2
 4023110:	d9400a17 	ldw	r5,40(sp)
 4023114:	d80f883a 	mov	r7,sp
 4023118:	9009883a 	mov	r4,r18
 402311c:	34cd883a 	add	r6,r6,r19
 4023120:	4022af00 	call	4022af0 <_ZL28read_encoded_value_with_basehjPKhPj>
 4023124:	d9000017 	ldw	r4,0(sp)
 4023128:	d9800204 	addi	r6,sp,8
 402312c:	880b883a 	mov	r5,r17
 4023130:	4022f400 	call	4022f40 <_ZL16get_adjusted_ptrPKSt9type_infoS1_PPv.constprop.3>
 4023134:	10c03fcc 	andi	r3,r2,255
 4023138:	1800111e 	bne	r3,zero,4023180 <_ZL28check_compact_exception_specPKSt9type_infoPvPKhij+0x1ac>
 402313c:	a17ffe64 	muli	r5,r20,-7
 4023140:	a007883a 	mov	r3,r20
 4023144:	0021883a 	mov	r16,zero
 4023148:	19000003 	ldbu	r4,0(r3)
 402314c:	18c001e4 	muli	r3,r3,7
 4023150:	a5000044 	addi	r20,r20,1
 4023154:	20801fcc 	andi	r2,r4,127
 4023158:	1947883a 	add	r3,r3,r5
 402315c:	10c4983a 	sll	r2,r2,r3
 4023160:	21003fcc 	andi	r4,r4,255
 4023164:	2100201c 	xori	r4,r4,128
 4023168:	213fe004 	addi	r4,r4,-128
 402316c:	a007883a 	mov	r3,r20
 4023170:	80a0b03a 	or	r16,r16,r2
 4023174:	203ff416 	blt	r4,zero,4023148 <__flash_rwdata_start+0xfffecbf0>
 4023178:	003fe006 	br	40230fc <__flash_rwdata_start+0xfffecba4>
 402317c:	0005883a 	mov	r2,zero
 4023180:	dfc00917 	ldw	ra,36(sp)
 4023184:	dd000817 	ldw	r20,32(sp)
 4023188:	dcc00717 	ldw	r19,28(sp)
 402318c:	dc800617 	ldw	r18,24(sp)
 4023190:	dc400517 	ldw	r17,20(sp)
 4023194:	dc000417 	ldw	r16,16(sp)
 4023198:	dec00a04 	addi	sp,sp,40
 402319c:	f800283a 	ret

040231a0 <_ZL20check_exception_specP16lsda_header_infoPKSt9type_infoPvl>:
 40231a0:	f811883a 	mov	r8,ra
 40231a4:	40346e80 	call	40346e8 <_mcount>
 40231a8:	403f883a 	mov	ra,r8
 40231ac:	defffb04 	addi	sp,sp,-20
 40231b0:	dfc00415 	stw	ra,16(sp)
 40231b4:	dc800315 	stw	r18,12(sp)
 40231b8:	dc400215 	stw	r17,8(sp)
 40231bc:	dc000115 	stw	r16,4(sp)
 40231c0:	24000317 	ldw	r16,12(r4)
 40231c4:	01ce303a 	nor	r7,zero,r7
 40231c8:	2023883a 	mov	r17,r4
 40231cc:	2825883a 	mov	r18,r5
 40231d0:	d9800015 	stw	r6,0(sp)
 40231d4:	81e1883a 	add	r16,r16,r7
 40231d8:	800d883a 	mov	r6,r16
 40231dc:	000b883a 	mov	r5,zero
 40231e0:	0009883a 	mov	r4,zero
 40231e4:	30800003 	ldbu	r2,0(r6)
 40231e8:	84000044 	addi	r16,r16,1
 40231ec:	800d883a 	mov	r6,r16
 40231f0:	10c01fcc 	andi	r3,r2,127
 40231f4:	1906983a 	sll	r3,r3,r4
 40231f8:	10803fcc 	andi	r2,r2,255
 40231fc:	1080201c 	xori	r2,r2,128
 4023200:	10bfe004 	addi	r2,r2,-128
 4023204:	28cab03a 	or	r5,r5,r3
 4023208:	210001c4 	addi	r4,r4,7
 402320c:	103ff516 	blt	r2,zero,40231e4 <__flash_rwdata_start+0xfffecc8c>
 4023210:	28000e26 	beq	r5,zero,402324c <_ZL20check_exception_specP16lsda_header_infoPKSt9type_infoPvl+0xac>
 4023214:	8809883a 	mov	r4,r17
 4023218:	4022d080 	call	4022d08 <_ZL15get_ttype_entryP16lsda_header_infom>
 402321c:	d80d883a 	mov	r6,sp
 4023220:	900b883a 	mov	r5,r18
 4023224:	1009883a 	mov	r4,r2
 4023228:	4022f400 	call	4022f40 <_ZL16get_adjusted_ptrPKSt9type_infoS1_PPv.constprop.3>
 402322c:	10c03fcc 	andi	r3,r2,255
 4023230:	183fe926 	beq	r3,zero,40231d8 <__flash_rwdata_start+0xfffecc80>
 4023234:	dfc00417 	ldw	ra,16(sp)
 4023238:	dc800317 	ldw	r18,12(sp)
 402323c:	dc400217 	ldw	r17,8(sp)
 4023240:	dc000117 	ldw	r16,4(sp)
 4023244:	dec00504 	addi	sp,sp,20
 4023248:	f800283a 	ret
 402324c:	0005883a 	mov	r2,zero
 4023250:	003ff806 	br	4023234 <__flash_rwdata_start+0xfffeccdc>

04023254 <__gxx_personality_sj0>:
 4023254:	f811883a 	mov	r8,ra
 4023258:	40346e80 	call	40346e8 <_mcount>
 402325c:	403f883a 	mov	ra,r8
 4023260:	deffdd04 	addi	sp,sp,-140
 4023264:	dfc02215 	stw	ra,136(sp)
 4023268:	df002115 	stw	fp,132(sp)
 402326c:	008100b4 	movhi	r2,1026
 4023270:	108c9504 	addi	r2,r2,12884
 4023274:	d8800e15 	stw	r2,56(sp)
 4023278:	008100f4 	movhi	r2,1027
 402327c:	1097a504 	addi	r2,r2,24212
 4023280:	d8800f15 	stw	r2,60(sp)
 4023284:	008100b4 	movhi	r2,1026
 4023288:	108e0e04 	addi	r2,r2,14392
 402328c:	d9001515 	stw	r4,84(sp)
 4023290:	d9000804 	addi	r4,sp,32
 4023294:	d8801115 	stw	r2,68(sp)
 4023298:	dec01015 	stw	sp,64(sp)
 402329c:	dec01215 	stw	sp,72(sp)
 40232a0:	d9401915 	stw	r5,100(sp)
 40232a4:	d9801615 	stw	r6,88(sp)
 40232a8:	d9c01715 	stw	r7,92(sp)
 40232ac:	40272900 	call	4027290 <_Unwind_SjLj_Register>
 40232b0:	d8c01517 	ldw	r3,84(sp)
 40232b4:	d8000715 	stw	zero,28(sp)
 40232b8:	d8000615 	stw	zero,24(sp)
 40232bc:	00800044 	movi	r2,1
 40232c0:	18800926 	beq	r3,r2,40232e8 <__gxx_personality_sj0+0x94>
 40232c4:	01c000c4 	movi	r7,3
 40232c8:	d9c01515 	stw	r7,84(sp)
 40232cc:	d9000804 	addi	r4,sp,32
 40232d0:	40272b40 	call	40272b4 <_Unwind_SjLj_Unregister>
 40232d4:	d8801517 	ldw	r2,84(sp)
 40232d8:	dfc02217 	ldw	ra,136(sp)
 40232dc:	df002117 	ldw	fp,132(sp)
 40232e0:	dec02304 	addi	sp,sp,140
 40232e4:	f800283a 	ret
 40232e8:	d9001617 	ldw	r4,88(sp)
 40232ec:	00af3574 	movhi	r2,48341
 40232f0:	d9c01717 	ldw	r7,92(sp)
 40232f4:	10b54004 	addi	r2,r2,-11008
 40232f8:	00ee2cb4 	movhi	r3,47282
 40232fc:	2085883a 	add	r2,r4,r2
 4023300:	18eaaf04 	addi	r3,r3,-21828
 4023304:	d8801b15 	stw	r2,108(sp)
 4023308:	38c7883a 	add	r3,r7,r3
 402330c:	1105803a 	cmpltu	r2,r2,r4
 4023310:	10c7883a 	add	r3,r2,r3
 4023314:	d8c01c15 	stw	r3,112(sp)
 4023318:	d8c01917 	ldw	r3,100(sp)
 402331c:	00800184 	movi	r2,6
 4023320:	18805426 	beq	r3,r2,4023474 <__gxx_personality_sj0+0x220>
 4023324:	d9002417 	ldw	r4,144(sp)
 4023328:	00bfffc4 	movi	r2,-1
 402332c:	d8800915 	stw	r2,36(sp)
 4023330:	40273ac0 	call	40273ac <_Unwind_GetLanguageSpecificData>
 4023334:	d8801a15 	stw	r2,104(sp)
 4023338:	1000c926 	beq	r2,zero,4023660 <__gxx_personality_sj0+0x40c>
 402333c:	d9002417 	ldw	r4,144(sp)
 4023340:	d80d883a 	mov	r6,sp
 4023344:	100b883a 	mov	r5,r2
 4023348:	4022e000 	call	4022e00 <_ZL17parse_lsda_headerP15_Unwind_ContextPKhP16lsda_header_info>
 402334c:	d9402417 	ldw	r5,144(sp)
 4023350:	d9000503 	ldbu	r4,20(sp)
 4023354:	d8801515 	stw	r2,84(sp)
 4023358:	4022d680 	call	4022d68 <_ZL21base_of_encoded_valuehP15_Unwind_Context>
 402335c:	d9002417 	ldw	r4,144(sp)
 4023360:	d9400604 	addi	r5,sp,24
 4023364:	d8800215 	stw	r2,8(sp)
 4023368:	40273640 	call	4027364 <_Unwind_GetIPInfo>
 402336c:	d8c00617 	ldw	r3,24(sp)
 4023370:	18006126 	beq	r3,zero,40234f8 <__gxx_personality_sj0+0x2a4>
 4023374:	1000ba16 	blt	r2,zero,4023660 <__gxx_personality_sj0+0x40c>
 4023378:	10002f1e 	bne	r2,zero,4023438 <__gxx_personality_sj0+0x1e4>
 402337c:	d8001515 	stw	zero,84(sp)
 4023380:	d8001f15 	stw	zero,124(sp)
 4023384:	d8001815 	stw	zero,96(sp)
 4023388:	00c00044 	movi	r3,1
 402338c:	d9001917 	ldw	r4,100(sp)
 4023390:	2080004c 	andi	r2,r4,1
 4023394:	1000b51e 	bne	r2,zero,402366c <__gxx_personality_sj0+0x418>
 4023398:	d9001917 	ldw	r4,100(sp)
 402339c:	2080020c 	andi	r2,r4,8
 40233a0:	1000b71e 	bne	r2,zero,4023680 <__gxx_personality_sj0+0x42c>
 40233a4:	d9c01c17 	ldw	r7,112(sp)
 40233a8:	3800b826 	beq	r7,zero,402368c <__gxx_personality_sj0+0x438>
 40233ac:	00800044 	movi	r2,1
 40233b0:	1880b526 	beq	r3,r2,4023688 <__gxx_personality_sj0+0x434>
 40233b4:	d9c01517 	ldw	r7,84(sp)
 40233b8:	3800f516 	blt	r7,zero,4023790 <__gxx_personality_sj0+0x53c>
 40233bc:	d9002417 	ldw	r4,144(sp)
 40233c0:	d9802317 	ldw	r6,140(sp)
 40233c4:	00bfffc4 	movi	r2,-1
 40233c8:	000b883a 	mov	r5,zero
 40233cc:	d8800915 	stw	r2,36(sp)
 40233d0:	40273200 	call	4027320 <_Unwind_SetGR>
 40233d4:	d9801517 	ldw	r6,84(sp)
 40233d8:	d9002417 	ldw	r4,144(sp)
 40233dc:	01400044 	movi	r5,1
 40233e0:	40273200 	call	4027320 <_Unwind_SetGR>
 40233e4:	d9002417 	ldw	r4,144(sp)
 40233e8:	d9401f17 	ldw	r5,124(sp)
 40233ec:	40273900 	call	4027390 <_Unwind_SetIP>
 40233f0:	010001c4 	movi	r4,7
 40233f4:	d9001515 	stw	r4,84(sp)
 40233f8:	003fb406 	br	40232cc <__flash_rwdata_start+0xfffecd74>
 40233fc:	000f883a 	mov	r7,zero
 4023400:	000d883a 	mov	r6,zero
 4023404:	19000003 	ldbu	r4,0(r3)
 4023408:	18c00044 	addi	r3,r3,1
 402340c:	d8c01515 	stw	r3,84(sp)
 4023410:	21401fcc 	andi	r5,r4,127
 4023414:	298a983a 	sll	r5,r5,r6
 4023418:	21003fcc 	andi	r4,r4,255
 402341c:	2100201c 	xori	r4,r4,128
 4023420:	213fe004 	addi	r4,r4,-128
 4023424:	394eb03a 	or	r7,r7,r5
 4023428:	318001c4 	addi	r6,r6,7
 402342c:	203ff516 	blt	r4,zero,4023404 <__flash_rwdata_start+0xfffeceac>
 4023430:	10bfffc4 	addi	r2,r2,-1
 4023434:	10003226 	beq	r2,zero,4023500 <__gxx_personality_sj0+0x2ac>
 4023438:	d9c01517 	ldw	r7,84(sp)
 402343c:	0011883a 	mov	r8,zero
 4023440:	000d883a 	mov	r6,zero
 4023444:	39000003 	ldbu	r4,0(r7)
 4023448:	38c00044 	addi	r3,r7,1
 402344c:	180f883a 	mov	r7,r3
 4023450:	21401fcc 	andi	r5,r4,127
 4023454:	298a983a 	sll	r5,r5,r6
 4023458:	21003fcc 	andi	r4,r4,255
 402345c:	2100201c 	xori	r4,r4,128
 4023460:	213fe004 	addi	r4,r4,-128
 4023464:	4150b03a 	or	r8,r8,r5
 4023468:	318001c4 	addi	r6,r6,7
 402346c:	203ff516 	blt	r4,zero,4023444 <__flash_rwdata_start+0xfffeceec>
 4023470:	003fe206 	br	40233fc <__flash_rwdata_start+0xfffecea4>
 4023474:	d9001c17 	ldw	r4,112(sp)
 4023478:	203faa1e 	bne	r4,zero,4023324 <__flash_rwdata_start+0xfffecdcc>
 402347c:	d9c01517 	ldw	r7,84(sp)
 4023480:	d8801b17 	ldw	r2,108(sp)
 4023484:	38bfa736 	bltu	r7,r2,4023324 <__flash_rwdata_start+0xfffecdcc>
 4023488:	d8c02317 	ldw	r3,140(sp)
 402348c:	18fffe17 	ldw	r3,-8(r3)
 4023490:	d8c01f15 	stw	r3,124(sp)
 4023494:	18008226 	beq	r3,zero,40236a0 <__gxx_personality_sj0+0x44c>
 4023498:	d9002317 	ldw	r4,140(sp)
 402349c:	d9c02317 	ldw	r7,140(sp)
 40234a0:	213ffb17 	ldw	r4,-20(r4)
 40234a4:	39fffd17 	ldw	r7,-12(r7)
 40234a8:	d9001515 	stw	r4,84(sp)
 40234ac:	d9c01a15 	stw	r7,104(sp)
 40234b0:	d8801517 	ldw	r2,84(sp)
 40234b4:	103fc10e 	bge	r2,zero,40233bc <__flash_rwdata_start+0xfffece64>
 40234b8:	d9002417 	ldw	r4,144(sp)
 40234bc:	d9401a17 	ldw	r5,104(sp)
 40234c0:	d80d883a 	mov	r6,sp
 40234c4:	00bfffc4 	movi	r2,-1
 40234c8:	d8800915 	stw	r2,36(sp)
 40234cc:	4022e000 	call	4022e00 <_ZL17parse_lsda_headerP15_Unwind_ContextPKhP16lsda_header_info>
 40234d0:	d9402417 	ldw	r5,144(sp)
 40234d4:	d9000503 	ldbu	r4,20(sp)
 40234d8:	4022d680 	call	4022d68 <_ZL21base_of_encoded_valuehP15_Unwind_Context>
 40234dc:	d9000503 	ldbu	r4,20(sp)
 40234e0:	d9402417 	ldw	r5,144(sp)
 40234e4:	d8800215 	stw	r2,8(sp)
 40234e8:	4022d680 	call	4022d68 <_ZL21base_of_encoded_valuehP15_Unwind_Context>
 40234ec:	d8c02317 	ldw	r3,140(sp)
 40234f0:	18bffe15 	stw	r2,-8(r3)
 40234f4:	003fb106 	br	40233bc <__flash_rwdata_start+0xfffece64>
 40234f8:	10bfffc4 	addi	r2,r2,-1
 40234fc:	003f9d06 	br	4023374 <__flash_rwdata_start+0xfffece1c>
 4023500:	42000044 	addi	r8,r8,1
 4023504:	da001f15 	stw	r8,124(sp)
 4023508:	38005326 	beq	r7,zero,4023658 <__gxx_personality_sj0+0x404>
 402350c:	d8800417 	ldw	r2,16(sp)
 4023510:	39ffffc4 	addi	r7,r7,-1
 4023514:	11c5883a 	add	r2,r2,r7
 4023518:	d8801815 	stw	r2,96(sp)
 402351c:	40005026 	beq	r8,zero,4023660 <__gxx_personality_sj0+0x40c>
 4023520:	10007426 	beq	r2,zero,40236f4 <__gxx_personality_sj0+0x4a0>
 4023524:	d8801917 	ldw	r2,100(sp)
 4023528:	1080020c 	andi	r2,r2,8
 402352c:	d8802015 	stw	r2,128(sp)
 4023530:	1000a21e 	bne	r2,zero,40237bc <__gxx_personality_sj0+0x568>
 4023534:	d8c01c17 	ldw	r3,112(sp)
 4023538:	1800b026 	beq	r3,zero,40237fc <__gxx_personality_sj0+0x5a8>
 402353c:	01c00034 	movhi	r7,0
 4023540:	39c86104 	addi	r7,r7,8580
 4023544:	d9c01e15 	stw	r7,120(sp)
 4023548:	d8001d05 	stb	zero,116(sp)
 402354c:	d8c01817 	ldw	r3,96(sp)
 4023550:	d8001515 	stw	zero,84(sp)
 4023554:	0009883a 	mov	r4,zero
 4023558:	19400003 	ldbu	r5,0(r3)
 402355c:	18800044 	addi	r2,r3,1
 4023560:	d9c01517 	ldw	r7,84(sp)
 4023564:	28c01fcc 	andi	r3,r5,127
 4023568:	1906983a 	sll	r3,r3,r4
 402356c:	29803fcc 	andi	r6,r5,255
 4023570:	3180201c 	xori	r6,r6,128
 4023574:	38ceb03a 	or	r7,r7,r3
 4023578:	d8801715 	stw	r2,92(sp)
 402357c:	31bfe004 	addi	r6,r6,-128
 4023580:	d9c01515 	stw	r7,84(sp)
 4023584:	210001c4 	addi	r4,r4,7
 4023588:	1007883a 	mov	r3,r2
 402358c:	303ff216 	blt	r6,zero,4023558 <__flash_rwdata_start+0xfffed000>
 4023590:	00c007c4 	movi	r3,31
 4023594:	19000836 	bltu	r3,r4,40235b8 <__gxx_personality_sj0+0x364>
 4023598:	2940100c 	andi	r5,r5,64
 402359c:	28000626 	beq	r5,zero,40235b8 <__gxx_personality_sj0+0x364>
 40235a0:	01c00044 	movi	r7,1
 40235a4:	3908983a 	sll	r4,r7,r4
 40235a8:	d8c01517 	ldw	r3,84(sp)
 40235ac:	0109c83a 	sub	r4,zero,r4
 40235b0:	1906b03a 	or	r3,r3,r4
 40235b4:	d8c01515 	stw	r3,84(sp)
 40235b8:	d8001615 	stw	zero,88(sp)
 40235bc:	0009883a 	mov	r4,zero
 40235c0:	11400003 	ldbu	r5,0(r2)
 40235c4:	d9c01617 	ldw	r7,88(sp)
 40235c8:	10800044 	addi	r2,r2,1
 40235cc:	28c01fcc 	andi	r3,r5,127
 40235d0:	1906983a 	sll	r3,r3,r4
 40235d4:	29803fcc 	andi	r6,r5,255
 40235d8:	3180201c 	xori	r6,r6,128
 40235dc:	38ceb03a 	or	r7,r7,r3
 40235e0:	31bfe004 	addi	r6,r6,-128
 40235e4:	d9c01615 	stw	r7,88(sp)
 40235e8:	210001c4 	addi	r4,r4,7
 40235ec:	303ff416 	blt	r6,zero,40235c0 <__flash_rwdata_start+0xfffed068>
 40235f0:	008007c4 	movi	r2,31
 40235f4:	11000736 	bltu	r2,r4,4023614 <__gxx_personality_sj0+0x3c0>
 40235f8:	2940100c 	andi	r5,r5,64
 40235fc:	28000526 	beq	r5,zero,4023614 <__gxx_personality_sj0+0x3c0>
 4023600:	00c00044 	movi	r3,1
 4023604:	1908983a 	sll	r4,r3,r4
 4023608:	0109c83a 	sub	r4,zero,r4
 402360c:	390eb03a 	or	r7,r7,r4
 4023610:	d9c01615 	stw	r7,88(sp)
 4023614:	d9001517 	ldw	r4,84(sp)
 4023618:	20003c26 	beq	r4,zero,402370c <__gxx_personality_sj0+0x4b8>
 402361c:	01003e0e 	bge	zero,r4,4023718 <__gxx_personality_sj0+0x4c4>
 4023620:	01ffffc4 	movi	r7,-1
 4023624:	200b883a 	mov	r5,r4
 4023628:	d809883a 	mov	r4,sp
 402362c:	d9c00915 	stw	r7,36(sp)
 4023630:	4022d080 	call	4022d08 <_ZL15get_ttype_entryP16lsda_header_infom>
 4023634:	10005f26 	beq	r2,zero,40237b4 <__gxx_personality_sj0+0x560>
 4023638:	d8c01e17 	ldw	r3,120(sp)
 402363c:	1800571e 	bne	r3,zero,402379c <__gxx_personality_sj0+0x548>
 4023640:	d9001617 	ldw	r4,88(sp)
 4023644:	20002926 	beq	r4,zero,40236ec <__gxx_personality_sj0+0x498>
 4023648:	d9c01717 	ldw	r7,92(sp)
 402364c:	390f883a 	add	r7,r7,r4
 4023650:	d9c01815 	stw	r7,96(sp)
 4023654:	003fbd06 	br	402354c <__flash_rwdata_start+0xfffecff4>
 4023658:	d8c01f17 	ldw	r3,124(sp)
 402365c:	1800251e 	bne	r3,zero,40236f4 <__gxx_personality_sj0+0x4a0>
 4023660:	01000204 	movi	r4,8
 4023664:	d9001515 	stw	r4,84(sp)
 4023668:	003f1806 	br	40232cc <__flash_rwdata_start+0xfffecd74>
 402366c:	d8801c17 	ldw	r2,112(sp)
 4023670:	10000d26 	beq	r2,zero,40236a8 <__gxx_personality_sj0+0x454>
 4023674:	00800184 	movi	r2,6
 4023678:	d8801515 	stw	r2,84(sp)
 402367c:	003f1306 	br	40232cc <__flash_rwdata_start+0xfffecd74>
 4023680:	00800044 	movi	r2,1
 4023684:	18bf4d1e 	bne	r3,r2,40233bc <__flash_rwdata_start+0xfffece64>
 4023688:	40242440 	call	4024244 <_ZSt9terminatev>
 402368c:	d9001b17 	ldw	r4,108(sp)
 4023690:	00800044 	movi	r2,1
 4023694:	113f4536 	bltu	r2,r4,40233ac <__flash_rwdata_start+0xfffece54>
 4023698:	00800044 	movi	r2,1
 402369c:	18bf841e 	bne	r3,r2,40234b0 <__flash_rwdata_start+0xfffecf58>
 40236a0:	d9002317 	ldw	r4,140(sp)
 40236a4:	40246340 	call	4024634 <__cxa_call_terminate>
 40236a8:	d8c01b17 	ldw	r3,108(sp)
 40236ac:	00800044 	movi	r2,1
 40236b0:	10fff036 	bltu	r2,r3,4023674 <__flash_rwdata_start+0xfffed11c>
 40236b4:	d9002317 	ldw	r4,140(sp)
 40236b8:	d8801817 	ldw	r2,96(sp)
 40236bc:	d9c01517 	ldw	r7,84(sp)
 40236c0:	d8c01a17 	ldw	r3,104(sp)
 40236c4:	20bffc15 	stw	r2,-16(r4)
 40236c8:	d8800717 	ldw	r2,28(sp)
 40236cc:	21fffb15 	stw	r7,-20(r4)
 40236d0:	d9c01f17 	ldw	r7,124(sp)
 40236d4:	20bfff15 	stw	r2,-4(r4)
 40236d8:	00800184 	movi	r2,6
 40236dc:	20fffd15 	stw	r3,-12(r4)
 40236e0:	21fffe15 	stw	r7,-8(r4)
 40236e4:	d8801515 	stw	r2,84(sp)
 40236e8:	003ef806 	br	40232cc <__flash_rwdata_start+0xfffecd74>
 40236ec:	d8801d03 	ldbu	r2,116(sp)
 40236f0:	103fdb26 	beq	r2,zero,4023660 <__flash_rwdata_start+0xfffed108>
 40236f4:	d8c01917 	ldw	r3,100(sp)
 40236f8:	1880004c 	andi	r2,r3,1
 40236fc:	103fd81e 	bne	r2,zero,4023660 <__flash_rwdata_start+0xfffed108>
 4023700:	d8001515 	stw	zero,84(sp)
 4023704:	00c00084 	movi	r3,2
 4023708:	003f2306 	br	4023398 <__flash_rwdata_start+0xfffece40>
 402370c:	00c00044 	movi	r3,1
 4023710:	d8c01d05 	stb	r3,116(sp)
 4023714:	003fca06 	br	4023640 <__flash_rwdata_start+0xfffed0e8>
 4023718:	d9001e17 	ldw	r4,120(sp)
 402371c:	20000426 	beq	r4,zero,4023730 <__gxx_personality_sj0+0x4dc>
 4023720:	d9c02017 	ldw	r7,128(sp)
 4023724:	3800021e 	bne	r7,zero,4023730 <__gxx_personality_sj0+0x4dc>
 4023728:	d8801c17 	ldw	r2,112(sp)
 402372c:	10002726 	beq	r2,zero,40237cc <__gxx_personality_sj0+0x578>
 4023730:	d8801517 	ldw	r2,84(sp)
 4023734:	000d883a 	mov	r6,zero
 4023738:	000b883a 	mov	r5,zero
 402373c:	0088303a 	nor	r4,zero,r2
 4023740:	d8800317 	ldw	r2,12(sp)
 4023744:	1109883a 	add	r4,r2,r4
 4023748:	20800003 	ldbu	r2,0(r4)
 402374c:	21000044 	addi	r4,r4,1
 4023750:	10c01fcc 	andi	r3,r2,127
 4023754:	1946983a 	sll	r3,r3,r5
 4023758:	10803fcc 	andi	r2,r2,255
 402375c:	1080201c 	xori	r2,r2,128
 4023760:	10bfe004 	addi	r2,r2,-128
 4023764:	30ccb03a 	or	r6,r6,r3
 4023768:	294001c4 	addi	r5,r5,7
 402376c:	103ff616 	blt	r2,zero,4023748 <__flash_rwdata_start+0xfffed1f0>
 4023770:	3005003a 	cmpeq	r2,r6,zero
 4023774:	10803fcc 	andi	r2,r2,255
 4023778:	103fb126 	beq	r2,zero,4023640 <__flash_rwdata_start+0xfffed0e8>
 402377c:	d9c01917 	ldw	r7,100(sp)
 4023780:	3880004c 	andi	r2,r7,1
 4023784:	103fb91e 	bne	r2,zero,402366c <__flash_rwdata_start+0xfffed114>
 4023788:	d8802017 	ldw	r2,128(sp)
 402378c:	10002d26 	beq	r2,zero,4023844 <__gxx_personality_sj0+0x5f0>
 4023790:	00800044 	movi	r2,1
 4023794:	d8800915 	stw	r2,36(sp)
 4023798:	40242840 	call	4024284 <_ZSt10unexpectedv>
 402379c:	d9800704 	addi	r6,sp,28
 40237a0:	180b883a 	mov	r5,r3
 40237a4:	1009883a 	mov	r4,r2
 40237a8:	4022f400 	call	4022f40 <_ZL16get_adjusted_ptrPKSt9type_infoS1_PPv.constprop.3>
 40237ac:	10803fcc 	andi	r2,r2,255
 40237b0:	103fa326 	beq	r2,zero,4023640 <__flash_rwdata_start+0xfffed0e8>
 40237b4:	00c000c4 	movi	r3,3
 40237b8:	003ef406 	br	402338c <__flash_rwdata_start+0xfffece34>
 40237bc:	01000034 	movhi	r4,0
 40237c0:	21085f04 	addi	r4,r4,8572
 40237c4:	d9001e15 	stw	r4,120(sp)
 40237c8:	003f5f06 	br	4023548 <__flash_rwdata_start+0xfffecff0>
 40237cc:	d9001b17 	ldw	r4,108(sp)
 40237d0:	00c00044 	movi	r3,1
 40237d4:	193fd636 	bltu	r3,r4,4023730 <__flash_rwdata_start+0xfffed1d8>
 40237d8:	01ffffc4 	movi	r7,-1
 40237dc:	d9c00915 	stw	r7,36(sp)
 40237e0:	d9800717 	ldw	r6,28(sp)
 40237e4:	d9c01517 	ldw	r7,84(sp)
 40237e8:	d9401e17 	ldw	r5,120(sp)
 40237ec:	d809883a 	mov	r4,sp
 40237f0:	40231a00 	call	40231a0 <_ZL20check_exception_specP16lsda_header_infoPKSt9type_infoPvl>
 40237f4:	1080005c 	xori	r2,r2,1
 40237f8:	003fde06 	br	4023774 <__flash_rwdata_start+0xfffed21c>
 40237fc:	d9001b17 	ldw	r4,108(sp)
 4023800:	00800044 	movi	r2,1
 4023804:	113f4d36 	bltu	r2,r4,402353c <__flash_rwdata_start+0xfffecfe4>
 4023808:	d9c02317 	ldw	r7,140(sp)
 402380c:	38800017 	ldw	r2,0(r7)
 4023810:	1080004c 	andi	r2,r2,1
 4023814:	1000061e 	bne	r2,zero,4023830 <__gxx_personality_sj0+0x5dc>
 4023818:	d8c02317 	ldw	r3,140(sp)
 402381c:	18800504 	addi	r2,r3,20
 4023820:	d8800715 	stw	r2,28(sp)
 4023824:	10bff017 	ldw	r2,-64(r2)
 4023828:	d8801e15 	stw	r2,120(sp)
 402382c:	003f4606 	br	4023548 <__flash_rwdata_start+0xfffecff0>
 4023830:	38bff517 	ldw	r2,-44(r7)
 4023834:	003ffa06 	br	4023820 <__flash_rwdata_start+0xfffed2c8>
 4023838:	d9000a17 	ldw	r4,40(sp)
 402383c:	4023cb00 	call	4023cb0 <__cxa_begin_catch>
 4023840:	003f9106 	br	4023688 <__flash_rwdata_start+0xfffed130>
 4023844:	d9c01c17 	ldw	r7,112(sp)
 4023848:	383eda1e 	bne	r7,zero,40233b4 <__flash_rwdata_start+0xfffece5c>
 402384c:	d8c01b17 	ldw	r3,108(sp)
 4023850:	00800044 	movi	r2,1
 4023854:	10fed736 	bltu	r2,r3,40233b4 <__flash_rwdata_start+0xfffece5c>
 4023858:	00c000c4 	movi	r3,3
 402385c:	003f8e06 	br	4023698 <__flash_rwdata_start+0xfffed140>

04023860 <__cxa_call_unexpected>:
 4023860:	f811883a 	mov	r8,ra
 4023864:	40346e80 	call	40346e8 <_mcount>
 4023868:	403f883a 	mov	ra,r8
 402386c:	deffe604 	addi	sp,sp,-104
 4023870:	dfc01915 	stw	ra,100(sp)
 4023874:	df001815 	stw	fp,96(sp)
 4023878:	008100b4 	movhi	r2,1026
 402387c:	108c9504 	addi	r2,r2,12884
 4023880:	d8800d15 	stw	r2,52(sp)
 4023884:	008100f4 	movhi	r2,1027
 4023888:	1097a904 	addi	r2,r2,24228
 402388c:	d8800e15 	stw	r2,56(sp)
 4023890:	d8800104 	addi	r2,sp,4
 4023894:	d8800f15 	stw	r2,60(sp)
 4023898:	008100b4 	movhi	r2,1026
 402389c:	108e3e04 	addi	r2,r2,14584
 40238a0:	d9001415 	stw	r4,80(sp)
 40238a4:	d9000704 	addi	r4,sp,28
 40238a8:	d8801015 	stw	r2,64(sp)
 40238ac:	dec01115 	stw	sp,68(sp)
 40238b0:	40272900 	call	4027290 <_Unwind_SjLj_Register>
 40238b4:	d9001417 	ldw	r4,80(sp)
 40238b8:	4023cb00 	call	4023cb0 <__cxa_begin_catch>
 40238bc:	d8c01417 	ldw	r3,80(sp)
 40238c0:	18bffe17 	ldw	r2,-8(r3)
 40238c4:	193ff717 	ldw	r4,-36(r3)
 40238c8:	18fffd17 	ldw	r3,-12(r3)
 40238cc:	d8800315 	stw	r2,12(sp)
 40238d0:	d8c01615 	stw	r3,88(sp)
 40238d4:	d8c01417 	ldw	r3,80(sp)
 40238d8:	18fffb17 	ldw	r3,-20(r3)
 40238dc:	d8c01515 	stw	r3,84(sp)
 40238e0:	d8c01417 	ldw	r3,80(sp)
 40238e4:	18fff817 	ldw	r3,-32(r3)
 40238e8:	d8c01415 	stw	r3,80(sp)
 40238ec:	00c00044 	movi	r3,1
 40238f0:	d8c00815 	stw	r3,32(sp)
 40238f4:	40242680 	call	4024268 <_ZN10__cxxabiv112__unexpectedEPFvvE>
 40238f8:	d8c00917 	ldw	r3,36(sp)
 40238fc:	d8800817 	ldw	r2,32(sp)
 4023900:	d8c01715 	stw	r3,92(sp)
 4023904:	10000a26 	beq	r2,zero,4023930 <__cxa_call_unexpected+0xd0>
 4023908:	10bfffc4 	addi	r2,r2,-1
 402390c:	10000126 	beq	r2,zero,4023914 <__cxa_call_unexpected+0xb4>
 4023910:	003b68fa 	trap	3
 4023914:	d8000815 	stw	zero,32(sp)
 4023918:	4023d700 	call	4023d70 <__cxa_end_catch>
 402391c:	4023d700 	call	4023d70 <__cxa_end_catch>
 4023920:	d9001717 	ldw	r4,92(sp)
 4023924:	00bfffc4 	movi	r2,-1
 4023928:	d8800815 	stw	r2,32(sp)
 402392c:	40275400 	call	4027540 <_Unwind_SjLj_Resume>
 4023930:	d9001717 	ldw	r4,92(sp)
 4023934:	4023cb00 	call	4023cb0 <__cxa_begin_catch>
 4023938:	40246980 	call	4024698 <__cxa_get_globals_fast>
 402393c:	10800017 	ldw	r2,0(r2)
 4023940:	10c00b17 	ldw	r3,44(r2)
 4023944:	18c0004c 	andi	r3,r3,1
 4023948:	18001e26 	beq	r3,zero,40239c4 <__cxa_call_unexpected+0x164>
 402394c:	10800017 	ldw	r2,0(r2)
 4023950:	d8801715 	stw	r2,92(sp)
 4023954:	d8801517 	ldw	r2,84(sp)
 4023958:	00802b0e 	bge	zero,r2,4023a08 <__cxa_call_unexpected+0x1a8>
 402395c:	d8c01717 	ldw	r3,92(sp)
 4023960:	d8800317 	ldw	r2,12(sp)
 4023964:	d9c01517 	ldw	r7,84(sp)
 4023968:	193ff017 	ldw	r4,-64(r3)
 402396c:	d9801617 	ldw	r6,88(sp)
 4023970:	d8800015 	stw	r2,0(sp)
 4023974:	180b883a 	mov	r5,r3
 4023978:	00800084 	movi	r2,2
 402397c:	d8800815 	stw	r2,32(sp)
 4023980:	4022fd40 	call	4022fd4 <_ZL28check_compact_exception_specPKSt9type_infoPvPKhij>
 4023984:	10803fcc 	andi	r2,r2,255
 4023988:	10001e1e 	bne	r2,zero,4023a04 <__cxa_call_unexpected+0x1a4>
 402398c:	d8800317 	ldw	r2,12(sp)
 4023990:	d9c01517 	ldw	r7,84(sp)
 4023994:	d9801617 	ldw	r6,88(sp)
 4023998:	01000034 	movhi	r4,0
 402399c:	d8800015 	stw	r2,0(sp)
 40239a0:	2100a504 	addi	r4,r4,660
 40239a4:	00800084 	movi	r2,2
 40239a8:	000b883a 	mov	r5,zero
 40239ac:	d8800815 	stw	r2,32(sp)
 40239b0:	4022fd40 	call	4022fd4 <_ZL28check_compact_exception_specPKSt9type_infoPvPKhij>
 40239b4:	10803fcc 	andi	r2,r2,255
 40239b8:	1000051e 	bne	r2,zero,40239d0 <__cxa_call_unexpected+0x170>
 40239bc:	d9001417 	ldw	r4,80(sp)
 40239c0:	40241780 	call	4024178 <_ZN10__cxxabiv111__terminateEPFvvE>
 40239c4:	10801004 	addi	r2,r2,64
 40239c8:	d8801715 	stw	r2,92(sp)
 40239cc:	003fe106 	br	4023954 <__flash_rwdata_start+0xfffed3fc>
 40239d0:	01000104 	movi	r4,4
 40239d4:	40244940 	call	4024494 <__cxa_allocate_exception>
 40239d8:	00c00034 	movhi	r3,0
 40239dc:	18c0c004 	addi	r3,r3,768
 40239e0:	018100b4 	movhi	r6,1026
 40239e4:	01400034 	movhi	r5,0
 40239e8:	10c00015 	stw	r3,0(r2)
 40239ec:	31927604 	addi	r6,r6,18904
 40239f0:	00c00084 	movi	r3,2
 40239f4:	2940a504 	addi	r5,r5,660
 40239f8:	1009883a 	mov	r4,r2
 40239fc:	d8c00815 	stw	r3,32(sp)
 4023a00:	4023b700 	call	4023b70 <__cxa_throw>
 4023a04:	4023c0c0 	call	4023c0c <__cxa_rethrow>
 4023a08:	d9401617 	ldw	r5,88(sp)
 4023a0c:	00800084 	movi	r2,2
 4023a10:	d9800104 	addi	r6,sp,4
 4023a14:	0009883a 	mov	r4,zero
 4023a18:	d8800815 	stw	r2,32(sp)
 4023a1c:	4022e000 	call	4022e00 <_ZL17parse_lsda_headerP15_Unwind_ContextPKhP16lsda_header_info>
 4023a20:	d9801717 	ldw	r6,92(sp)
 4023a24:	d9c01517 	ldw	r7,84(sp)
 4023a28:	d9000104 	addi	r4,sp,4
 4023a2c:	317ff017 	ldw	r5,-64(r6)
 4023a30:	40231a00 	call	40231a0 <_ZL20check_exception_specP16lsda_header_infoPKSt9type_infoPvl>
 4023a34:	10803fcc 	andi	r2,r2,255
 4023a38:	1000171e 	bne	r2,zero,4023a98 <__cxa_call_unexpected+0x238>
 4023a3c:	d9c01517 	ldw	r7,84(sp)
 4023a40:	01400034 	movhi	r5,0
 4023a44:	00800084 	movi	r2,2
 4023a48:	2940a504 	addi	r5,r5,660
 4023a4c:	000d883a 	mov	r6,zero
 4023a50:	d9000104 	addi	r4,sp,4
 4023a54:	d8800815 	stw	r2,32(sp)
 4023a58:	40231a00 	call	40231a0 <_ZL20check_exception_specP16lsda_header_infoPKSt9type_infoPvl>
 4023a5c:	10803fcc 	andi	r2,r2,255
 4023a60:	103fd626 	beq	r2,zero,40239bc <__flash_rwdata_start+0xfffed464>
 4023a64:	01000104 	movi	r4,4
 4023a68:	40244940 	call	4024494 <__cxa_allocate_exception>
 4023a6c:	00c00034 	movhi	r3,0
 4023a70:	18c0c004 	addi	r3,r3,768
 4023a74:	018100b4 	movhi	r6,1026
 4023a78:	01400034 	movhi	r5,0
 4023a7c:	10c00015 	stw	r3,0(r2)
 4023a80:	31927604 	addi	r6,r6,18904
 4023a84:	00c00084 	movi	r3,2
 4023a88:	2940a504 	addi	r5,r5,660
 4023a8c:	1009883a 	mov	r4,r2
 4023a90:	d8c00815 	stw	r3,32(sp)
 4023a94:	4023b700 	call	4023b70 <__cxa_throw>
 4023a98:	4023c0c0 	call	4023c0c <__cxa_rethrow>

04023a9c <_ZNKSt9bad_alloc4whatEv>:
 4023a9c:	f811883a 	mov	r8,ra
 4023aa0:	40346e80 	call	40346e8 <_mcount>
 4023aa4:	403f883a 	mov	ra,r8
 4023aa8:	00800034 	movhi	r2,0
 4023aac:	10805404 	addi	r2,r2,336
 4023ab0:	f800283a 	ret

04023ab4 <_ZNSt9bad_allocD1Ev>:
 4023ab4:	f811883a 	mov	r8,ra
 4023ab8:	40346e80 	call	40346e8 <_mcount>
 4023abc:	403f883a 	mov	ra,r8
 4023ac0:	00800034 	movhi	r2,0
 4023ac4:	10806104 	addi	r2,r2,388
 4023ac8:	20800015 	stw	r2,0(r4)
 4023acc:	40249c81 	jmpi	40249c8 <_ZNSt9exceptionD1Ev>

04023ad0 <_ZNSt9bad_allocD0Ev>:
 4023ad0:	f811883a 	mov	r8,ra
 4023ad4:	40346e80 	call	40346e8 <_mcount>
 4023ad8:	403f883a 	mov	ra,r8
 4023adc:	defffe04 	addi	sp,sp,-8
 4023ae0:	dfc00115 	stw	ra,4(sp)
 4023ae4:	dc000015 	stw	r16,0(sp)
 4023ae8:	00800034 	movhi	r2,0
 4023aec:	10806104 	addi	r2,r2,388
 4023af0:	20800015 	stw	r2,0(r4)
 4023af4:	2021883a 	mov	r16,r4
 4023af8:	40249c80 	call	40249c8 <_ZNSt9exceptionD1Ev>
 4023afc:	8009883a 	mov	r4,r16
 4023b00:	dfc00117 	ldw	ra,4(sp)
 4023b04:	dc000017 	ldw	r16,0(sp)
 4023b08:	dec00204 	addi	sp,sp,8
 4023b0c:	4023b101 	jmpi	4023b10 <_ZdlPv>

04023b10 <_ZdlPv>:
 4023b10:	f811883a 	mov	r8,ra
 4023b14:	40346e80 	call	40346e8 <_mcount>
 4023b18:	403f883a 	mov	ra,r8
 4023b1c:	40277401 	jmpi	4027740 <free>

04023b20 <_ZL23__gxx_exception_cleanup19_Unwind_Reason_CodeP17_Unwind_Exception>:
 4023b20:	f811883a 	mov	r8,ra
 4023b24:	40346e80 	call	40346e8 <_mcount>
 4023b28:	403f883a 	mov	ra,r8
 4023b2c:	defffe04 	addi	sp,sp,-8
 4023b30:	dfc00115 	stw	ra,4(sp)
 4023b34:	dc000015 	stw	r16,0(sp)
 4023b38:	00800044 	movi	r2,1
 4023b3c:	11000a36 	bltu	r2,r4,4023b68 <_ZL23__gxx_exception_cleanup19_Unwind_Reason_CodeP17_Unwind_Exception+0x48>
 4023b40:	28bff617 	ldw	r2,-40(r5)
 4023b44:	2c000504 	addi	r16,r5,20
 4023b48:	10000226 	beq	r2,zero,4023b54 <_ZL23__gxx_exception_cleanup19_Unwind_Reason_CodeP17_Unwind_Exception+0x34>
 4023b4c:	8009883a 	mov	r4,r16
 4023b50:	103ee83a 	callr	r2
 4023b54:	8009883a 	mov	r4,r16
 4023b58:	dfc00117 	ldw	ra,4(sp)
 4023b5c:	dc000017 	ldw	r16,0(sp)
 4023b60:	dec00204 	addi	sp,sp,8
 4023b64:	40245001 	jmpi	4024500 <__cxa_free_exception>
 4023b68:	293ff817 	ldw	r4,-32(r5)
 4023b6c:	40241780 	call	4024178 <_ZN10__cxxabiv111__terminateEPFvvE>

04023b70 <__cxa_throw>:
 4023b70:	f811883a 	mov	r8,ra
 4023b74:	40346e80 	call	40346e8 <_mcount>
 4023b78:	403f883a 	mov	ra,r8
 4023b7c:	defffb04 	addi	sp,sp,-20
 4023b80:	dfc00415 	stw	ra,16(sp)
 4023b84:	dcc00315 	stw	r19,12(sp)
 4023b88:	dc800215 	stw	r18,8(sp)
 4023b8c:	dc400115 	stw	r17,4(sp)
 4023b90:	dc000015 	stw	r16,0(sp)
 4023b94:	2021883a 	mov	r16,r4
 4023b98:	2827883a 	mov	r19,r5
 4023b9c:	3025883a 	mov	r18,r6
 4023ba0:	40246b00 	call	40246b0 <__cxa_get_globals>
 4023ba4:	10c00117 	ldw	r3,4(r2)
 4023ba8:	847ffb04 	addi	r17,r16,-20
 4023bac:	18c00044 	addi	r3,r3,1
 4023bb0:	10c00115 	stw	r3,4(r2)
 4023bb4:	00800044 	movi	r2,1
 4023bb8:	80bfef15 	stw	r2,-68(r16)
 4023bbc:	84fff015 	stw	r19,-64(r16)
 4023bc0:	84bff115 	stw	r18,-60(r16)
 4023bc4:	40243040 	call	4024304 <_ZSt14get_unexpectedv>
 4023bc8:	80bff215 	stw	r2,-56(r16)
 4023bcc:	40242c80 	call	40242c8 <_ZSt13get_terminatev>
 4023bd0:	80bff315 	stw	r2,-52(r16)
 4023bd4:	0090caf4 	movhi	r2,17195
 4023bd8:	108ac004 	addi	r2,r2,11008
 4023bdc:	80bffb15 	stw	r2,-20(r16)
 4023be0:	0091d3b4 	movhi	r2,18254
 4023be4:	109550c4 	addi	r2,r2,21827
 4023be8:	80bffc15 	stw	r2,-16(r16)
 4023bec:	008100b4 	movhi	r2,1026
 4023bf0:	108ec804 	addi	r2,r2,15136
 4023bf4:	8809883a 	mov	r4,r17
 4023bf8:	80bffd15 	stw	r2,-12(r16)
 4023bfc:	40274140 	call	4027414 <_Unwind_SjLj_RaiseException>
 4023c00:	8809883a 	mov	r4,r17
 4023c04:	4023cb00 	call	4023cb0 <__cxa_begin_catch>
 4023c08:	40242440 	call	4024244 <_ZSt9terminatev>

04023c0c <__cxa_rethrow>:
 4023c0c:	f811883a 	mov	r8,ra
 4023c10:	40346e80 	call	40346e8 <_mcount>
 4023c14:	403f883a 	mov	ra,r8
 4023c18:	defffe04 	addi	sp,sp,-8
 4023c1c:	dfc00115 	stw	ra,4(sp)
 4023c20:	dc000015 	stw	r16,0(sp)
 4023c24:	40246b00 	call	40246b0 <__cxa_get_globals>
 4023c28:	10c00117 	ldw	r3,4(r2)
 4023c2c:	11000017 	ldw	r4,0(r2)
 4023c30:	18c00044 	addi	r3,r3,1
 4023c34:	10c00115 	stw	r3,4(r2)
 4023c38:	20001126 	beq	r4,zero,4023c80 <__cxa_rethrow+0x74>
 4023c3c:	21400b17 	ldw	r5,44(r4)
 4023c40:	01ef3574 	movhi	r7,48341
 4023c44:	39f54004 	addi	r7,r7,-11008
 4023c48:	29cf883a 	add	r7,r5,r7
 4023c4c:	20c00c17 	ldw	r3,48(r4)
 4023c50:	394d803a 	cmpltu	r6,r7,r5
 4023c54:	016e2cb4 	movhi	r5,47282
 4023c58:	296aaf04 	addi	r5,r5,-21828
 4023c5c:	1947883a 	add	r3,r3,r5
 4023c60:	30c7883a 	add	r3,r6,r3
 4023c64:	18000726 	beq	r3,zero,4023c84 <__cxa_rethrow+0x78>
 4023c68:	10000015 	stw	zero,0(r2)
 4023c6c:	24000b04 	addi	r16,r4,44
 4023c70:	8009883a 	mov	r4,r16
 4023c74:	40275900 	call	4027590 <_Unwind_SjLj_Resume_or_Rethrow>
 4023c78:	8009883a 	mov	r4,r16
 4023c7c:	4023cb00 	call	4023cb0 <__cxa_begin_catch>
 4023c80:	40242440 	call	4024244 <_ZSt9terminatev>
 4023c84:	00c00044 	movi	r3,1
 4023c88:	19fff736 	bltu	r3,r7,4023c68 <__flash_rwdata_start+0xfffed710>
 4023c8c:	20800517 	ldw	r2,20(r4)
 4023c90:	0085c83a 	sub	r2,zero,r2
 4023c94:	20800515 	stw	r2,20(r4)
 4023c98:	003ff406 	br	4023c6c <__flash_rwdata_start+0xfffed714>

04023c9c <__cxa_get_exception_ptr>:
 4023c9c:	f811883a 	mov	r8,ra
 4023ca0:	40346e80 	call	40346e8 <_mcount>
 4023ca4:	403f883a 	mov	ra,r8
 4023ca8:	20bfff17 	ldw	r2,-4(r4)
 4023cac:	f800283a 	ret

04023cb0 <__cxa_begin_catch>:
 4023cb0:	f811883a 	mov	r8,ra
 4023cb4:	40346e80 	call	40346e8 <_mcount>
 4023cb8:	403f883a 	mov	ra,r8
 4023cbc:	defffe04 	addi	sp,sp,-8
 4023cc0:	dfc00115 	stw	ra,4(sp)
 4023cc4:	dc000015 	stw	r16,0(sp)
 4023cc8:	2021883a 	mov	r16,r4
 4023ccc:	40246b00 	call	40246b0 <__cxa_get_globals>
 4023cd0:	81000017 	ldw	r4,0(r16)
 4023cd4:	80c00117 	ldw	r3,4(r16)
 4023cd8:	01af3574 	movhi	r6,48341
 4023cdc:	31b54004 	addi	r6,r6,-11008
 4023ce0:	016e2cb4 	movhi	r5,47282
 4023ce4:	296aaf04 	addi	r5,r5,-21828
 4023ce8:	218d883a 	add	r6,r4,r6
 4023cec:	3109803a 	cmpltu	r4,r6,r4
 4023cf0:	1947883a 	add	r3,r3,r5
 4023cf4:	20c7883a 	add	r3,r4,r3
 4023cf8:	817ff504 	addi	r5,r16,-44
 4023cfc:	11000017 	ldw	r4,0(r2)
 4023d00:	18000726 	beq	r3,zero,4023d20 <__cxa_begin_catch+0x70>
 4023d04:	2000191e 	bne	r4,zero,4023d6c <__cxa_begin_catch+0xbc>
 4023d08:	11400015 	stw	r5,0(r2)
 4023d0c:	0005883a 	mov	r2,zero
 4023d10:	dfc00117 	ldw	ra,4(sp)
 4023d14:	dc000017 	ldw	r16,0(sp)
 4023d18:	dec00204 	addi	sp,sp,8
 4023d1c:	f800283a 	ret
 4023d20:	01c00044 	movi	r7,1
 4023d24:	39bff736 	bltu	r7,r6,4023d04 <__flash_rwdata_start+0xfffed7ac>
 4023d28:	80fffa17 	ldw	r3,-24(r16)
 4023d2c:	18000d16 	blt	r3,zero,4023d64 <__cxa_begin_catch+0xb4>
 4023d30:	18c00044 	addi	r3,r3,1
 4023d34:	11800117 	ldw	r6,4(r2)
 4023d38:	80fffa15 	stw	r3,-24(r16)
 4023d3c:	30ffffc4 	addi	r3,r6,-1
 4023d40:	10c00115 	stw	r3,4(r2)
 4023d44:	21400226 	beq	r4,r5,4023d50 <__cxa_begin_catch+0xa0>
 4023d48:	813ff915 	stw	r4,-28(r16)
 4023d4c:	11400015 	stw	r5,0(r2)
 4023d50:	80bfff17 	ldw	r2,-4(r16)
 4023d54:	dfc00117 	ldw	ra,4(sp)
 4023d58:	dc000017 	ldw	r16,0(sp)
 4023d5c:	dec00204 	addi	sp,sp,8
 4023d60:	f800283a 	ret
 4023d64:	38c7c83a 	sub	r3,r7,r3
 4023d68:	003ff206 	br	4023d34 <__flash_rwdata_start+0xfffed7dc>
 4023d6c:	40242440 	call	4024244 <_ZSt9terminatev>

04023d70 <__cxa_end_catch>:
 4023d70:	f811883a 	mov	r8,ra
 4023d74:	40346e80 	call	40346e8 <_mcount>
 4023d78:	403f883a 	mov	ra,r8
 4023d7c:	deffff04 	addi	sp,sp,-4
 4023d80:	dfc00015 	stw	ra,0(sp)
 4023d84:	40246980 	call	4024698 <__cxa_get_globals_fast>
 4023d88:	11000017 	ldw	r4,0(r2)
 4023d8c:	20001426 	beq	r4,zero,4023de0 <__cxa_end_catch+0x70>
 4023d90:	21400b17 	ldw	r5,44(r4)
 4023d94:	01ef3574 	movhi	r7,48341
 4023d98:	39f54004 	addi	r7,r7,-11008
 4023d9c:	29cf883a 	add	r7,r5,r7
 4023da0:	20c00c17 	ldw	r3,48(r4)
 4023da4:	394d803a 	cmpltu	r6,r7,r5
 4023da8:	016e2cb4 	movhi	r5,47282
 4023dac:	296aaf04 	addi	r5,r5,-21828
 4023db0:	1947883a 	add	r3,r3,r5
 4023db4:	30c7883a 	add	r3,r6,r3
 4023db8:	18000c1e 	bne	r3,zero,4023dec <__cxa_end_catch+0x7c>
 4023dbc:	00c00044 	movi	r3,1
 4023dc0:	19c00a36 	bltu	r3,r7,4023dec <__cxa_end_catch+0x7c>
 4023dc4:	20c00517 	ldw	r3,20(r4)
 4023dc8:	18000d16 	blt	r3,zero,4023e00 <__cxa_end_catch+0x90>
 4023dcc:	18ffffc4 	addi	r3,r3,-1
 4023dd0:	18001026 	beq	r3,zero,4023e14 <__cxa_end_catch+0xa4>
 4023dd4:	00bfffc4 	movi	r2,-1
 4023dd8:	18801426 	beq	r3,r2,4023e2c <__cxa_end_catch+0xbc>
 4023ddc:	20c00515 	stw	r3,20(r4)
 4023de0:	dfc00017 	ldw	ra,0(sp)
 4023de4:	dec00104 	addi	sp,sp,4
 4023de8:	f800283a 	ret
 4023dec:	21000b04 	addi	r4,r4,44
 4023df0:	10000015 	stw	zero,0(r2)
 4023df4:	dfc00017 	ldw	ra,0(sp)
 4023df8:	dec00104 	addi	sp,sp,4
 4023dfc:	40275e81 	jmpi	40275e8 <_Unwind_DeleteException>
 4023e00:	18c00044 	addi	r3,r3,1
 4023e04:	183ff51e 	bne	r3,zero,4023ddc <__flash_rwdata_start+0xfffed884>
 4023e08:	21400417 	ldw	r5,16(r4)
 4023e0c:	11400015 	stw	r5,0(r2)
 4023e10:	003ff206 	br	4023ddc <__flash_rwdata_start+0xfffed884>
 4023e14:	20c00417 	ldw	r3,16(r4)
 4023e18:	21000b04 	addi	r4,r4,44
 4023e1c:	10c00015 	stw	r3,0(r2)
 4023e20:	dfc00017 	ldw	ra,0(sp)
 4023e24:	dec00104 	addi	sp,sp,4
 4023e28:	40275e81 	jmpi	40275e8 <_Unwind_DeleteException>
 4023e2c:	40242440 	call	4024244 <_ZSt9terminatev>

04023e30 <_ZSt18uncaught_exceptionv>:
 4023e30:	f811883a 	mov	r8,ra
 4023e34:	40346e80 	call	40346e8 <_mcount>
 4023e38:	403f883a 	mov	ra,r8
 4023e3c:	deffff04 	addi	sp,sp,-4
 4023e40:	dfc00015 	stw	ra,0(sp)
 4023e44:	40246b00 	call	40246b0 <__cxa_get_globals>
 4023e48:	10800117 	ldw	r2,4(r2)
 4023e4c:	1004c03a 	cmpne	r2,r2,zero
 4023e50:	dfc00017 	ldw	ra,0(sp)
 4023e54:	dec00104 	addi	sp,sp,4
 4023e58:	f800283a 	ret

04023e5c <_ZNK10__cxxabiv117__class_type_info11__do_upcastEPKS0_PPv>:
 4023e5c:	f811883a 	mov	r8,ra
 4023e60:	40346e80 	call	40346e8 <_mcount>
 4023e64:	403f883a 	mov	ra,r8
 4023e68:	defffa04 	addi	sp,sp,-24
 4023e6c:	dfc00515 	stw	ra,20(sp)
 4023e70:	dc000415 	stw	r16,16(sp)
 4023e74:	20800017 	ldw	r2,0(r4)
 4023e78:	3021883a 	mov	r16,r6
 4023e7c:	31800017 	ldw	r6,0(r6)
 4023e80:	10800617 	ldw	r2,24(r2)
 4023e84:	00c00404 	movi	r3,16
 4023e88:	d8c00215 	stw	r3,8(sp)
 4023e8c:	d8000015 	stw	zero,0(sp)
 4023e90:	d8000115 	stw	zero,4(sp)
 4023e94:	d8000315 	stw	zero,12(sp)
 4023e98:	d80f883a 	mov	r7,sp
 4023e9c:	103ee83a 	callr	r2
 4023ea0:	d8800117 	ldw	r2,4(sp)
 4023ea4:	00c00184 	movi	r3,6
 4023ea8:	1080018c 	andi	r2,r2,6
 4023eac:	10c00526 	beq	r2,r3,4023ec4 <_ZNK10__cxxabiv117__class_type_info11__do_upcastEPKS0_PPv+0x68>
 4023eb0:	0005883a 	mov	r2,zero
 4023eb4:	dfc00517 	ldw	ra,20(sp)
 4023eb8:	dc000417 	ldw	r16,16(sp)
 4023ebc:	dec00604 	addi	sp,sp,24
 4023ec0:	f800283a 	ret
 4023ec4:	d8c00017 	ldw	r3,0(sp)
 4023ec8:	00800044 	movi	r2,1
 4023ecc:	80c00015 	stw	r3,0(r16)
 4023ed0:	dfc00517 	ldw	ra,20(sp)
 4023ed4:	dc000417 	ldw	r16,16(sp)
 4023ed8:	dec00604 	addi	sp,sp,24
 4023edc:	f800283a 	ret

04023ee0 <_ZNK10__cxxabiv117__class_type_info20__do_find_public_srcEiPKvPKS0_S2_>:
 4023ee0:	f811883a 	mov	r8,ra
 4023ee4:	40346e80 	call	40346e8 <_mcount>
 4023ee8:	403f883a 	mov	ra,r8
 4023eec:	d8800017 	ldw	r2,0(sp)
 4023ef0:	11800226 	beq	r2,r6,4023efc <_ZNK10__cxxabiv117__class_type_info20__do_find_public_srcEiPKvPKS0_S2_+0x1c>
 4023ef4:	00800044 	movi	r2,1
 4023ef8:	f800283a 	ret
 4023efc:	00800184 	movi	r2,6
 4023f00:	f800283a 	ret

04023f04 <_ZN10__cxxabiv117__class_type_infoD1Ev>:
 4023f04:	f811883a 	mov	r8,ra
 4023f08:	40346e80 	call	40346e8 <_mcount>
 4023f0c:	403f883a 	mov	ra,r8
 4023f10:	00800034 	movhi	r2,0
 4023f14:	10807204 	addi	r2,r2,456
 4023f18:	20800015 	stw	r2,0(r4)
 4023f1c:	4024a781 	jmpi	4024a78 <_ZNSt9type_infoD1Ev>

04023f20 <_ZN10__cxxabiv117__class_type_infoD0Ev>:
 4023f20:	f811883a 	mov	r8,ra
 4023f24:	40346e80 	call	40346e8 <_mcount>
 4023f28:	403f883a 	mov	ra,r8
 4023f2c:	defffe04 	addi	sp,sp,-8
 4023f30:	dfc00115 	stw	ra,4(sp)
 4023f34:	dc000015 	stw	r16,0(sp)
 4023f38:	00800034 	movhi	r2,0
 4023f3c:	10807204 	addi	r2,r2,456
 4023f40:	20800015 	stw	r2,0(r4)
 4023f44:	2021883a 	mov	r16,r4
 4023f48:	4024a780 	call	4024a78 <_ZNSt9type_infoD1Ev>
 4023f4c:	8009883a 	mov	r4,r16
 4023f50:	dfc00117 	ldw	ra,4(sp)
 4023f54:	dc000017 	ldw	r16,0(sp)
 4023f58:	dec00204 	addi	sp,sp,8
 4023f5c:	4023b101 	jmpi	4023b10 <_ZdlPv>

04023f60 <_ZNK10__cxxabiv117__class_type_info11__do_upcastEPKS0_PKvRNS0_15__upcast_resultE>:
 4023f60:	f811883a 	mov	r8,ra
 4023f64:	40346e80 	call	40346e8 <_mcount>
 4023f68:	403f883a 	mov	ra,r8
 4023f6c:	defffd04 	addi	sp,sp,-12
 4023f70:	dfc00215 	stw	ra,8(sp)
 4023f74:	dc400115 	stw	r17,4(sp)
 4023f78:	dc000015 	stw	r16,0(sp)
 4023f7c:	21000117 	ldw	r4,4(r4)
 4023f80:	29400117 	ldw	r5,4(r5)
 4023f84:	3023883a 	mov	r17,r6
 4023f88:	3821883a 	mov	r16,r7
 4023f8c:	21400526 	beq	r4,r5,4023fa4 <_ZNK10__cxxabiv117__class_type_info11__do_upcastEPKS0_PKvRNS0_15__upcast_resultE+0x44>
 4023f90:	20c00007 	ldb	r3,0(r4)
 4023f94:	00800a84 	movi	r2,42
 4023f98:	18800d26 	beq	r3,r2,4023fd0 <_ZNK10__cxxabiv117__class_type_info11__do_upcastEPKS0_PKvRNS0_15__upcast_resultE+0x70>
 4023f9c:	40286c00 	call	40286c0 <strcmp>
 4023fa0:	10000b1e 	bne	r2,zero,4023fd0 <_ZNK10__cxxabiv117__class_type_info11__do_upcastEPKS0_PKvRNS0_15__upcast_resultE+0x70>
 4023fa4:	00800204 	movi	r2,8
 4023fa8:	80800315 	stw	r2,12(r16)
 4023fac:	00800184 	movi	r2,6
 4023fb0:	80800115 	stw	r2,4(r16)
 4023fb4:	84400015 	stw	r17,0(r16)
 4023fb8:	00800044 	movi	r2,1
 4023fbc:	dfc00217 	ldw	ra,8(sp)
 4023fc0:	dc400117 	ldw	r17,4(sp)
 4023fc4:	dc000017 	ldw	r16,0(sp)
 4023fc8:	dec00304 	addi	sp,sp,12
 4023fcc:	f800283a 	ret
 4023fd0:	0005883a 	mov	r2,zero
 4023fd4:	003ff906 	br	4023fbc <__flash_rwdata_start+0xfffeda64>

04023fd8 <_ZNK10__cxxabiv117__class_type_info12__do_dyncastEiNS0_10__sub_kindEPKS0_PKvS3_S5_RNS0_16__dyncast_resultE>:
 4023fd8:	f811883a 	mov	r8,ra
 4023fdc:	40346e80 	call	40346e8 <_mcount>
 4023fe0:	403f883a 	mov	ra,r8
 4023fe4:	defffa04 	addi	sp,sp,-24
 4023fe8:	dfc00515 	stw	ra,20(sp)
 4023fec:	dc800415 	stw	r18,16(sp)
 4023ff0:	dc400315 	stw	r17,12(sp)
 4023ff4:	dc000215 	stw	r16,8(sp)
 4023ff8:	dc800617 	ldw	r18,24(sp)
 4023ffc:	d8800817 	ldw	r2,32(sp)
 4024000:	dc400917 	ldw	r17,36(sp)
 4024004:	24000117 	ldw	r16,4(r4)
 4024008:	90801526 	beq	r18,r2,4024060 <_ZNK10__cxxabiv117__class_type_info12__do_dyncastEiNS0_10__sub_kindEPKS0_PKvS3_S5_RNS0_16__dyncast_resultE+0x88>
 402400c:	39400117 	ldw	r5,4(r7)
 4024010:	2c000826 	beq	r5,r16,4024034 <_ZNK10__cxxabiv117__class_type_info12__do_dyncastEiNS0_10__sub_kindEPKS0_PKvS3_S5_RNS0_16__dyncast_resultE+0x5c>
 4024014:	80c00007 	ldb	r3,0(r16)
 4024018:	00800a84 	movi	r2,42
 402401c:	18800926 	beq	r3,r2,4024044 <_ZNK10__cxxabiv117__class_type_info12__do_dyncastEiNS0_10__sub_kindEPKS0_PKvS3_S5_RNS0_16__dyncast_resultE+0x6c>
 4024020:	8009883a 	mov	r4,r16
 4024024:	d9800115 	stw	r6,4(sp)
 4024028:	40286c00 	call	40286c0 <strcmp>
 402402c:	d9800117 	ldw	r6,4(sp)
 4024030:	1000041e 	bne	r2,zero,4024044 <_ZNK10__cxxabiv117__class_type_info12__do_dyncastEiNS0_10__sub_kindEPKS0_PKvS3_S5_RNS0_16__dyncast_resultE+0x6c>
 4024034:	00800044 	movi	r2,1
 4024038:	8c800015 	stw	r18,0(r17)
 402403c:	89800115 	stw	r6,4(r17)
 4024040:	88800315 	stw	r2,12(r17)
 4024044:	0005883a 	mov	r2,zero
 4024048:	dfc00517 	ldw	ra,20(sp)
 402404c:	dc800417 	ldw	r18,16(sp)
 4024050:	dc400317 	ldw	r17,12(sp)
 4024054:	dc000217 	ldw	r16,8(sp)
 4024058:	dec00604 	addi	sp,sp,24
 402405c:	f800283a 	ret
 4024060:	d8800717 	ldw	r2,28(sp)
 4024064:	11400117 	ldw	r5,4(r2)
 4024068:	81400a26 	beq	r16,r5,4024094 <_ZNK10__cxxabiv117__class_type_info12__do_dyncastEiNS0_10__sub_kindEPKS0_PKvS3_S5_RNS0_16__dyncast_resultE+0xbc>
 402406c:	80c00007 	ldb	r3,0(r16)
 4024070:	00800a84 	movi	r2,42
 4024074:	18800c26 	beq	r3,r2,40240a8 <_ZNK10__cxxabiv117__class_type_info12__do_dyncastEiNS0_10__sub_kindEPKS0_PKvS3_S5_RNS0_16__dyncast_resultE+0xd0>
 4024078:	8009883a 	mov	r4,r16
 402407c:	d9800115 	stw	r6,4(sp)
 4024080:	d9c00015 	stw	r7,0(sp)
 4024084:	40286c00 	call	40286c0 <strcmp>
 4024088:	d9800117 	ldw	r6,4(sp)
 402408c:	d9c00017 	ldw	r7,0(sp)
 4024090:	1000021e 	bne	r2,zero,402409c <_ZNK10__cxxabiv117__class_type_info12__do_dyncastEiNS0_10__sub_kindEPKS0_PKvS3_S5_RNS0_16__dyncast_resultE+0xc4>
 4024094:	89800215 	stw	r6,8(r17)
 4024098:	003fea06 	br	4024044 <__flash_rwdata_start+0xfffedaec>
 402409c:	39400117 	ldw	r5,4(r7)
 40240a0:	817fdf1e 	bne	r16,r5,4024020 <__flash_rwdata_start+0xfffedac8>
 40240a4:	003fe306 	br	4024034 <__flash_rwdata_start+0xfffedadc>
 40240a8:	38800117 	ldw	r2,4(r7)
 40240ac:	80bfe51e 	bne	r16,r2,4024044 <__flash_rwdata_start+0xfffedaec>
 40240b0:	003fe006 	br	4024034 <__flash_rwdata_start+0xfffedadc>

040240b4 <_ZNK10__cxxabiv117__class_type_info10__do_catchEPKSt9type_infoPPvj>:
 40240b4:	f811883a 	mov	r8,ra
 40240b8:	40346e80 	call	40346e8 <_mcount>
 40240bc:	403f883a 	mov	ra,r8
 40240c0:	20800117 	ldw	r2,4(r4)
 40240c4:	28c00117 	ldw	r3,4(r5)
 40240c8:	10c02926 	beq	r2,r3,4024170 <_ZNK10__cxxabiv117__class_type_info10__do_catchEPKSt9type_infoPPvj+0xbc>
 40240cc:	defffb04 	addi	sp,sp,-20
 40240d0:	dfc00415 	stw	ra,16(sp)
 40240d4:	dcc00315 	stw	r19,12(sp)
 40240d8:	dc800215 	stw	r18,8(sp)
 40240dc:	dc400115 	stw	r17,4(sp)
 40240e0:	dc000015 	stw	r16,0(sp)
 40240e4:	2821883a 	mov	r16,r5
 40240e8:	11400007 	ldb	r5,0(r2)
 40240ec:	2025883a 	mov	r18,r4
 40240f0:	01000a84 	movi	r4,42
 40240f4:	3823883a 	mov	r17,r7
 40240f8:	3027883a 	mov	r19,r6
 40240fc:	29000626 	beq	r5,r4,4024118 <_ZNK10__cxxabiv117__class_type_info10__do_catchEPKSt9type_infoPPvj+0x64>
 4024100:	180b883a 	mov	r5,r3
 4024104:	1009883a 	mov	r4,r2
 4024108:	40286c00 	call	40286c0 <strcmp>
 402410c:	1000021e 	bne	r2,zero,4024118 <_ZNK10__cxxabiv117__class_type_info10__do_catchEPKSt9type_infoPPvj+0x64>
 4024110:	00800044 	movi	r2,1
 4024114:	00000306 	br	4024124 <_ZNK10__cxxabiv117__class_type_info10__do_catchEPKSt9type_infoPPvj+0x70>
 4024118:	008000c4 	movi	r2,3
 402411c:	1440082e 	bgeu	r2,r17,4024140 <_ZNK10__cxxabiv117__class_type_info10__do_catchEPKSt9type_infoPPvj+0x8c>
 4024120:	0005883a 	mov	r2,zero
 4024124:	dfc00417 	ldw	ra,16(sp)
 4024128:	dcc00317 	ldw	r19,12(sp)
 402412c:	dc800217 	ldw	r18,8(sp)
 4024130:	dc400117 	ldw	r17,4(sp)
 4024134:	dc000017 	ldw	r16,0(sp)
 4024138:	dec00504 	addi	sp,sp,20
 402413c:	f800283a 	ret
 4024140:	80800017 	ldw	r2,0(r16)
 4024144:	980d883a 	mov	r6,r19
 4024148:	900b883a 	mov	r5,r18
 402414c:	10800517 	ldw	r2,20(r2)
 4024150:	8009883a 	mov	r4,r16
 4024154:	dfc00417 	ldw	ra,16(sp)
 4024158:	dcc00317 	ldw	r19,12(sp)
 402415c:	dc800217 	ldw	r18,8(sp)
 4024160:	dc400117 	ldw	r17,4(sp)
 4024164:	dc000017 	ldw	r16,0(sp)
 4024168:	dec00504 	addi	sp,sp,20
 402416c:	1000683a 	jmp	r2
 4024170:	00800044 	movi	r2,1
 4024174:	f800283a 	ret

04024178 <_ZN10__cxxabiv111__terminateEPFvvE>:
 4024178:	f811883a 	mov	r8,ra
 402417c:	40346e80 	call	40346e8 <_mcount>
 4024180:	403f883a 	mov	ra,r8
 4024184:	deffef04 	addi	sp,sp,-68
 4024188:	dfc01015 	stw	ra,64(sp)
 402418c:	df000f15 	stw	fp,60(sp)
 4024190:	008100b4 	movhi	r2,1026
 4024194:	108c9504 	addi	r2,r2,12884
 4024198:	d8800615 	stw	r2,24(sp)
 402419c:	008100f4 	movhi	r2,1027
 40241a0:	1097ad04 	addi	r2,r2,24244
 40241a4:	d8800715 	stw	r2,28(sp)
 40241a8:	008100b4 	movhi	r2,1026
 40241ac:	10907704 	addi	r2,r2,16860
 40241b0:	d9000d15 	stw	r4,52(sp)
 40241b4:	d809883a 	mov	r4,sp
 40241b8:	d8800915 	stw	r2,36(sp)
 40241bc:	dec00815 	stw	sp,32(sp)
 40241c0:	dec00a15 	stw	sp,40(sp)
 40241c4:	40272900 	call	4027290 <_Unwind_SjLj_Register>
 40241c8:	00800044 	movi	r2,1
 40241cc:	d8800115 	stw	r2,4(sp)
 40241d0:	d8800d17 	ldw	r2,52(sp)
 40241d4:	103ee83a 	callr	r2
 40241d8:	40276fc0 	call	40276fc <abort>
 40241dc:	d8c00217 	ldw	r3,8(sp)
 40241e0:	d8800117 	ldw	r2,4(sp)
 40241e4:	d8c00d15 	stw	r3,52(sp)
 40241e8:	d8c00317 	ldw	r3,12(sp)
 40241ec:	d8c00e15 	stw	r3,56(sp)
 40241f0:	10000b26 	beq	r2,zero,4024220 <_ZN10__cxxabiv111__terminateEPFvvE+0xa8>
 40241f4:	10bfffc4 	addi	r2,r2,-1
 40241f8:	10000126 	beq	r2,zero,4024200 <_ZN10__cxxabiv111__terminateEPFvvE+0x88>
 40241fc:	003b68fa 	trap	3
 4024200:	d8000115 	stw	zero,4(sp)
 4024204:	4023d700 	call	4023d70 <__cxa_end_catch>
 4024208:	d8c00e17 	ldw	r3,56(sp)
 402420c:	00bfffc4 	movi	r2,-1
 4024210:	18800826 	beq	r3,r2,4024234 <_ZN10__cxxabiv111__terminateEPFvvE+0xbc>
 4024214:	d9000d17 	ldw	r4,52(sp)
 4024218:	d8800115 	stw	r2,4(sp)
 402421c:	40275400 	call	4027540 <_Unwind_SjLj_Resume>
 4024220:	d9000d17 	ldw	r4,52(sp)
 4024224:	4023cb00 	call	4023cb0 <__cxa_begin_catch>
 4024228:	00800084 	movi	r2,2
 402422c:	d8800115 	stw	r2,4(sp)
 4024230:	40276fc0 	call	40276fc <abort>
 4024234:	d8800e17 	ldw	r2,56(sp)
 4024238:	d9000d17 	ldw	r4,52(sp)
 402423c:	d8800115 	stw	r2,4(sp)
 4024240:	40238600 	call	4023860 <__cxa_call_unexpected>

04024244 <_ZSt9terminatev>:
 4024244:	f811883a 	mov	r8,ra
 4024248:	40346e80 	call	40346e8 <_mcount>
 402424c:	403f883a 	mov	ra,r8
 4024250:	deffff04 	addi	sp,sp,-4
 4024254:	dfc00015 	stw	ra,0(sp)
 4024258:	00800034 	movhi	r2,0
 402425c:	10886304 	addi	r2,r2,8588
 4024260:	11000017 	ldw	r4,0(r2)
 4024264:	40241780 	call	4024178 <_ZN10__cxxabiv111__terminateEPFvvE>

04024268 <_ZN10__cxxabiv112__unexpectedEPFvvE>:
 4024268:	f811883a 	mov	r8,ra
 402426c:	40346e80 	call	40346e8 <_mcount>
 4024270:	403f883a 	mov	ra,r8
 4024274:	deffff04 	addi	sp,sp,-4
 4024278:	dfc00015 	stw	ra,0(sp)
 402427c:	203ee83a 	callr	r4
 4024280:	40242440 	call	4024244 <_ZSt9terminatev>

04024284 <_ZSt10unexpectedv>:
 4024284:	f811883a 	mov	r8,ra
 4024288:	40346e80 	call	40346e8 <_mcount>
 402428c:	403f883a 	mov	ra,r8
 4024290:	deffff04 	addi	sp,sp,-4
 4024294:	dfc00015 	stw	ra,0(sp)
 4024298:	00800034 	movhi	r2,0
 402429c:	10885c04 	addi	r2,r2,8560
 40242a0:	11000017 	ldw	r4,0(r2)
 40242a4:	40242680 	call	4024268 <_ZN10__cxxabiv112__unexpectedEPFvvE>

040242a8 <_ZSt13set_terminatePFvvE>:
 40242a8:	f811883a 	mov	r8,ra
 40242ac:	40346e80 	call	40346e8 <_mcount>
 40242b0:	403f883a 	mov	ra,r8
 40242b4:	00c00034 	movhi	r3,0
 40242b8:	18c86304 	addi	r3,r3,8588
 40242bc:	18800017 	ldw	r2,0(r3)
 40242c0:	19000015 	stw	r4,0(r3)
 40242c4:	f800283a 	ret

040242c8 <_ZSt13get_terminatev>:
 40242c8:	f811883a 	mov	r8,ra
 40242cc:	40346e80 	call	40346e8 <_mcount>
 40242d0:	403f883a 	mov	ra,r8
 40242d4:	00800034 	movhi	r2,0
 40242d8:	10886304 	addi	r2,r2,8588
 40242dc:	10800017 	ldw	r2,0(r2)
 40242e0:	f800283a 	ret

040242e4 <_ZSt14set_unexpectedPFvvE>:
 40242e4:	f811883a 	mov	r8,ra
 40242e8:	40346e80 	call	40346e8 <_mcount>
 40242ec:	403f883a 	mov	ra,r8
 40242f0:	00c00034 	movhi	r3,0
 40242f4:	18c85c04 	addi	r3,r3,8560
 40242f8:	18800017 	ldw	r2,0(r3)
 40242fc:	19000015 	stw	r4,0(r3)
 4024300:	f800283a 	ret

04024304 <_ZSt14get_unexpectedv>:
 4024304:	f811883a 	mov	r8,ra
 4024308:	40346e80 	call	40346e8 <_mcount>
 402430c:	403f883a 	mov	ra,r8
 4024310:	00800034 	movhi	r2,0
 4024314:	10885c04 	addi	r2,r2,8560
 4024318:	10800017 	ldw	r2,0(r2)
 402431c:	f800283a 	ret

04024320 <_ZN12_GLOBAL__N_14pool4freeEPv.constprop.4>:
 4024320:	f811883a 	mov	r8,ra
 4024324:	40346e80 	call	40346e8 <_mcount>
 4024328:	403f883a 	mov	ra,r8
 402432c:	01800174 	movhi	r6,5
 4024330:	31b49004 	addi	r6,r6,-11712
 4024334:	31400117 	ldw	r5,4(r6)
 4024338:	223fff04 	addi	r8,r4,-4
 402433c:	227fff17 	ldw	r9,-4(r4)
 4024340:	28001326 	beq	r5,zero,4024390 <_ZN12_GLOBAL__N_14pool4freeEPv.constprop.4+0x70>
 4024344:	424f883a 	add	r7,r8,r9
 4024348:	29c01426 	beq	r5,r7,402439c <_ZN12_GLOBAL__N_14pool4freeEPv.constprop.4+0x7c>
 402434c:	28c00117 	ldw	r3,4(r5)
 4024350:	18001c26 	beq	r3,zero,40243c4 <_ZN12_GLOBAL__N_14pool4freeEPv.constprop.4+0xa4>
 4024354:	38c00336 	bltu	r7,r3,4024364 <_ZN12_GLOBAL__N_14pool4freeEPv.constprop.4+0x44>
 4024358:	00001e06 	br	40243d4 <_ZN12_GLOBAL__N_14pool4freeEPv.constprop.4+0xb4>
 402435c:	3880052e 	bgeu	r7,r2,4024374 <_ZN12_GLOBAL__N_14pool4freeEPv.constprop.4+0x54>
 4024360:	1007883a 	mov	r3,r2
 4024364:	18800117 	ldw	r2,4(r3)
 4024368:	29800104 	addi	r6,r5,4
 402436c:	180b883a 	mov	r5,r3
 4024370:	103ffa1e 	bne	r2,zero,402435c <__flash_rwdata_start+0xfffede04>
 4024374:	19400017 	ldw	r5,0(r3)
 4024378:	194f883a 	add	r7,r3,r5
 402437c:	41c00e26 	beq	r8,r7,40243b8 <_ZN12_GLOBAL__N_14pool4freeEPv.constprop.4+0x98>
 4024380:	20800015 	stw	r2,0(r4)
 4024384:	30800017 	ldw	r2,0(r6)
 4024388:	12000115 	stw	r8,4(r2)
 402438c:	f800283a 	ret
 4024390:	20000015 	stw	zero,0(r4)
 4024394:	32000115 	stw	r8,4(r6)
 4024398:	f800283a 	ret
 402439c:	28c00017 	ldw	r3,0(r5)
 40243a0:	28800117 	ldw	r2,4(r5)
 40243a4:	1a53883a 	add	r9,r3,r9
 40243a8:	227fff15 	stw	r9,-4(r4)
 40243ac:	20800015 	stw	r2,0(r4)
 40243b0:	32000115 	stw	r8,4(r6)
 40243b4:	003ff506 	br	402438c <__flash_rwdata_start+0xfffede34>
 40243b8:	494b883a 	add	r5,r9,r5
 40243bc:	19400015 	stw	r5,0(r3)
 40243c0:	003ff206 	br	402438c <__flash_rwdata_start+0xfffede34>
 40243c4:	0005883a 	mov	r2,zero
 40243c8:	2807883a 	mov	r3,r5
 40243cc:	31800104 	addi	r6,r6,4
 40243d0:	003fe806 	br	4024374 <__flash_rwdata_start+0xfffede1c>
 40243d4:	1805883a 	mov	r2,r3
 40243d8:	31800104 	addi	r6,r6,4
 40243dc:	2807883a 	mov	r3,r5
 40243e0:	003fe406 	br	4024374 <__flash_rwdata_start+0xfffede1c>

040243e4 <_ZN12_GLOBAL__N_14pool8allocateEj.constprop.5>:
 40243e4:	f811883a 	mov	r8,ra
 40243e8:	40346e80 	call	40346e8 <_mcount>
 40243ec:	403f883a 	mov	ra,r8
 40243f0:	00c001c4 	movi	r3,7
 40243f4:	20800104 	addi	r2,r4,4
 40243f8:	1880112e 	bgeu	r3,r2,4024440 <_ZN12_GLOBAL__N_14pool8allocateEj.constprop.5+0x5c>
 40243fc:	20c9883a 	add	r4,r4,r3
 4024400:	00bfff04 	movi	r2,-4
 4024404:	208a703a 	and	r5,r4,r2
 4024408:	01800174 	movhi	r6,5
 402440c:	31b49004 	addi	r6,r6,-11712
 4024410:	30c00117 	ldw	r3,4(r6)
 4024414:	18000826 	beq	r3,zero,4024438 <_ZN12_GLOBAL__N_14pool8allocateEj.constprop.5+0x54>
 4024418:	19000017 	ldw	r4,0(r3)
 402441c:	21400436 	bltu	r4,r5,4024430 <_ZN12_GLOBAL__N_14pool8allocateEj.constprop.5+0x4c>
 4024420:	00001906 	br	4024488 <_ZN12_GLOBAL__N_14pool8allocateEj.constprop.5+0xa4>
 4024424:	11000017 	ldw	r4,0(r2)
 4024428:	2140072e 	bgeu	r4,r5,4024448 <_ZN12_GLOBAL__N_14pool8allocateEj.constprop.5+0x64>
 402442c:	1007883a 	mov	r3,r2
 4024430:	18800117 	ldw	r2,4(r3)
 4024434:	103ffb1e 	bne	r2,zero,4024424 <__flash_rwdata_start+0xfffedecc>
 4024438:	0005883a 	mov	r2,zero
 402443c:	f800283a 	ret
 4024440:	01400204 	movi	r5,8
 4024444:	003ff006 	br	4024408 <__flash_rwdata_start+0xfffedeb0>
 4024448:	18c00104 	addi	r3,r3,4
 402444c:	2149c83a 	sub	r4,r4,r5
 4024450:	018001c4 	movi	r6,7
 4024454:	3100092e 	bgeu	r6,r4,402447c <_ZN12_GLOBAL__N_14pool8allocateEj.constprop.5+0x98>
 4024458:	11c00117 	ldw	r7,4(r2)
 402445c:	114d883a 	add	r6,r2,r5
 4024460:	31000015 	stw	r4,0(r6)
 4024464:	31c00115 	stw	r7,4(r6)
 4024468:	18800017 	ldw	r2,0(r3)
 402446c:	11400015 	stw	r5,0(r2)
 4024470:	19800015 	stw	r6,0(r3)
 4024474:	10800104 	addi	r2,r2,4
 4024478:	f800283a 	ret
 402447c:	11000117 	ldw	r4,4(r2)
 4024480:	19000015 	stw	r4,0(r3)
 4024484:	003ffb06 	br	4024474 <__flash_rwdata_start+0xfffedf1c>
 4024488:	1805883a 	mov	r2,r3
 402448c:	30c00104 	addi	r3,r6,4
 4024490:	003fee06 	br	402444c <__flash_rwdata_start+0xfffedef4>

04024494 <__cxa_allocate_exception>:
 4024494:	f811883a 	mov	r8,ra
 4024498:	40346e80 	call	40346e8 <_mcount>
 402449c:	403f883a 	mov	ra,r8
 40244a0:	defffd04 	addi	sp,sp,-12
 40244a4:	dfc00215 	stw	ra,8(sp)
 40244a8:	dc400115 	stw	r17,4(sp)
 40244ac:	dc000015 	stw	r16,0(sp)
 40244b0:	24401104 	addi	r17,r4,68
 40244b4:	8809883a 	mov	r4,r17
 40244b8:	40277200 	call	4027720 <malloc>
 40244bc:	1021883a 	mov	r16,r2
 40244c0:	10000a26 	beq	r2,zero,40244ec <__cxa_allocate_exception+0x58>
 40244c4:	01801104 	movi	r6,68
 40244c8:	000b883a 	mov	r5,zero
 40244cc:	8009883a 	mov	r4,r16
 40244d0:	4027f780 	call	4027f78 <memset>
 40244d4:	80801104 	addi	r2,r16,68
 40244d8:	dfc00217 	ldw	ra,8(sp)
 40244dc:	dc400117 	ldw	r17,4(sp)
 40244e0:	dc000017 	ldw	r16,0(sp)
 40244e4:	dec00304 	addi	sp,sp,12
 40244e8:	f800283a 	ret
 40244ec:	8809883a 	mov	r4,r17
 40244f0:	40243e40 	call	40243e4 <_ZN12_GLOBAL__N_14pool8allocateEj.constprop.5>
 40244f4:	1021883a 	mov	r16,r2
 40244f8:	103ff21e 	bne	r2,zero,40244c4 <__flash_rwdata_start+0xfffedf6c>
 40244fc:	40242440 	call	4024244 <_ZSt9terminatev>

04024500 <__cxa_free_exception>:
 4024500:	f811883a 	mov	r8,ra
 4024504:	40346e80 	call	40346e8 <_mcount>
 4024508:	403f883a 	mov	ra,r8
 402450c:	00c00174 	movhi	r3,5
 4024510:	18f49004 	addi	r3,r3,-11712
 4024514:	18800217 	ldw	r2,8(r3)
 4024518:	213fef04 	addi	r4,r4,-68
 402451c:	1100042e 	bgeu	r2,r4,4024530 <__cxa_free_exception+0x30>
 4024520:	18c00317 	ldw	r3,12(r3)
 4024524:	10c5883a 	add	r2,r2,r3
 4024528:	2080012e 	bgeu	r4,r2,4024530 <__cxa_free_exception+0x30>
 402452c:	40243201 	jmpi	4024320 <_ZN12_GLOBAL__N_14pool4freeEPv.constprop.4>
 4024530:	40277401 	jmpi	4027740 <free>

04024534 <__cxa_allocate_dependent_exception>:
 4024534:	f811883a 	mov	r8,ra
 4024538:	40346e80 	call	40346e8 <_mcount>
 402453c:	403f883a 	mov	ra,r8
 4024540:	defffe04 	addi	sp,sp,-8
 4024544:	dfc00115 	stw	ra,4(sp)
 4024548:	dc000015 	stw	r16,0(sp)
 402454c:	01001004 	movi	r4,64
 4024550:	40277200 	call	4027720 <malloc>
 4024554:	1021883a 	mov	r16,r2
 4024558:	10000926 	beq	r2,zero,4024580 <__cxa_allocate_dependent_exception+0x4c>
 402455c:	01801004 	movi	r6,64
 4024560:	000b883a 	mov	r5,zero
 4024564:	8009883a 	mov	r4,r16
 4024568:	4027f780 	call	4027f78 <memset>
 402456c:	8005883a 	mov	r2,r16
 4024570:	dfc00117 	ldw	ra,4(sp)
 4024574:	dc000017 	ldw	r16,0(sp)
 4024578:	dec00204 	addi	sp,sp,8
 402457c:	f800283a 	ret
 4024580:	01001004 	movi	r4,64
 4024584:	40243e40 	call	40243e4 <_ZN12_GLOBAL__N_14pool8allocateEj.constprop.5>
 4024588:	1021883a 	mov	r16,r2
 402458c:	103ff31e 	bne	r2,zero,402455c <__flash_rwdata_start+0xfffee004>
 4024590:	40242440 	call	4024244 <_ZSt9terminatev>

04024594 <__cxa_free_dependent_exception>:
 4024594:	f811883a 	mov	r8,ra
 4024598:	40346e80 	call	40346e8 <_mcount>
 402459c:	403f883a 	mov	ra,r8
 40245a0:	01400174 	movhi	r5,5
 40245a4:	29749004 	addi	r5,r5,-11712
 40245a8:	28c00217 	ldw	r3,8(r5)
 40245ac:	2005883a 	mov	r2,r4
 40245b0:	1900042e 	bgeu	r3,r4,40245c4 <__cxa_free_dependent_exception+0x30>
 40245b4:	29400317 	ldw	r5,12(r5)
 40245b8:	1947883a 	add	r3,r3,r5
 40245bc:	20c0012e 	bgeu	r4,r3,40245c4 <__cxa_free_dependent_exception+0x30>
 40245c0:	40243201 	jmpi	4024320 <_ZN12_GLOBAL__N_14pool4freeEPv.constprop.4>
 40245c4:	1009883a 	mov	r4,r2
 40245c8:	40277401 	jmpi	4027740 <free>

040245cc <_GLOBAL__sub_I___cxa_allocate_exception>:
 40245cc:	f811883a 	mov	r8,ra
 40245d0:	40346e80 	call	40346e8 <_mcount>
 40245d4:	403f883a 	mov	ra,r8
 40245d8:	defffd04 	addi	sp,sp,-12
 40245dc:	dfc00215 	stw	ra,8(sp)
 40245e0:	dc400115 	stw	r17,4(sp)
 40245e4:	dc000015 	stw	r16,0(sp)
 40245e8:	04424004 	movi	r17,2304
 40245ec:	04000174 	movhi	r16,5
 40245f0:	84349004 	addi	r16,r16,-11712
 40245f4:	8809883a 	mov	r4,r17
 40245f8:	84400315 	stw	r17,12(r16)
 40245fc:	40277200 	call	4027720 <malloc>
 4024600:	80800215 	stw	r2,8(r16)
 4024604:	10000826 	beq	r2,zero,4024628 <_GLOBAL__sub_I___cxa_allocate_exception+0x5c>
 4024608:	80800115 	stw	r2,4(r16)
 402460c:	14400015 	stw	r17,0(r2)
 4024610:	10000115 	stw	zero,4(r2)
 4024614:	dfc00217 	ldw	ra,8(sp)
 4024618:	dc400117 	ldw	r17,4(sp)
 402461c:	dc000017 	ldw	r16,0(sp)
 4024620:	dec00304 	addi	sp,sp,12
 4024624:	f800283a 	ret
 4024628:	80000315 	stw	zero,12(r16)
 402462c:	80000115 	stw	zero,4(r16)
 4024630:	003ff806 	br	4024614 <__flash_rwdata_start+0xfffee0bc>

04024634 <__cxa_call_terminate>:
 4024634:	f811883a 	mov	r8,ra
 4024638:	40346e80 	call	40346e8 <_mcount>
 402463c:	403f883a 	mov	ra,r8
 4024640:	defffe04 	addi	sp,sp,-8
 4024644:	dfc00115 	stw	ra,4(sp)
 4024648:	dc000015 	stw	r16,0(sp)
 402464c:	20000d26 	beq	r4,zero,4024684 <__cxa_call_terminate+0x50>
 4024650:	2021883a 	mov	r16,r4
 4024654:	4023cb00 	call	4023cb0 <__cxa_begin_catch>
 4024658:	80c00017 	ldw	r3,0(r16)
 402465c:	016f3574 	movhi	r5,48341
 4024660:	29754004 	addi	r5,r5,-11008
 4024664:	194b883a 	add	r5,r3,r5
 4024668:	80800117 	ldw	r2,4(r16)
 402466c:	28c9803a 	cmpltu	r4,r5,r3
 4024670:	00ee2cb4 	movhi	r3,47282
 4024674:	18eaaf04 	addi	r3,r3,-21828
 4024678:	10c5883a 	add	r2,r2,r3
 402467c:	2085883a 	add	r2,r4,r2
 4024680:	10000126 	beq	r2,zero,4024688 <__cxa_call_terminate+0x54>
 4024684:	40242440 	call	4024244 <_ZSt9terminatev>
 4024688:	00800044 	movi	r2,1
 402468c:	117ffd36 	bltu	r2,r5,4024684 <__flash_rwdata_start+0xfffee12c>
 4024690:	813ff817 	ldw	r4,-32(r16)
 4024694:	40241780 	call	4024178 <_ZN10__cxxabiv111__terminateEPFvvE>

04024698 <__cxa_get_globals_fast>:
 4024698:	f811883a 	mov	r8,ra
 402469c:	40346e80 	call	40346e8 <_mcount>
 40246a0:	403f883a 	mov	ra,r8
 40246a4:	00800034 	movhi	r2,0
 40246a8:	10887a04 	addi	r2,r2,8680
 40246ac:	f800283a 	ret

040246b0 <__cxa_get_globals>:
 40246b0:	f811883a 	mov	r8,ra
 40246b4:	40346e80 	call	40346e8 <_mcount>
 40246b8:	403f883a 	mov	ra,r8
 40246bc:	00800034 	movhi	r2,0
 40246c0:	10887a04 	addi	r2,r2,8680
 40246c4:	f800283a 	ret

040246c8 <_ZN10__cxxabiv120__si_class_type_infoD1Ev>:
 40246c8:	f811883a 	mov	r8,ra
 40246cc:	40346e80 	call	40346e8 <_mcount>
 40246d0:	403f883a 	mov	ra,r8
 40246d4:	00800034 	movhi	r2,0
 40246d8:	10808a04 	addi	r2,r2,552
 40246dc:	20800015 	stw	r2,0(r4)
 40246e0:	4023f041 	jmpi	4023f04 <_ZN10__cxxabiv117__class_type_infoD1Ev>

040246e4 <_ZN10__cxxabiv120__si_class_type_infoD0Ev>:
 40246e4:	f811883a 	mov	r8,ra
 40246e8:	40346e80 	call	40346e8 <_mcount>
